	.section .mdebug.abi32
	.previous
	.nan	legacy
	.gnu_attribute 4, 3
	.text
$Ltext0:
	.cfi_sections	.debug_frame
	.section	.text.set_fast_pptp_fw,"ax",@progbits
	.align	2
	.globl	set_fast_pptp_fw
$LFB72 = .
	.file 1 "/home/kai_wang/release-ecos1.5.1/release_tool_v15/ecos_v1.5.1_20160706/ecos-work/../ecos-3.0/packages/net/bsd_tcpip/v3_0/src/sys/netinet/fastpath/fast_pptp_core.c"
	.loc 1 47 0
	.cfi_startproc
	.set	nomips16
	.set	nomicromips
	.ent	set_fast_pptp_fw
	.type	set_fast_pptp_fw, @function
set_fast_pptp_fw:
	.frame	$sp,0,$31		# vars= 0, regs= 0/0, args= 0, gp= 0
	.mask	0x00000000,0
	.fmask	0x00000000,0
	.set	noreorder
	.set	nomacro
$LVL0 = .
	.loc 1 48 0
	lui	$24,%hi(fast_pptp_fw)
	j	$31
	sw	$4,%lo(fast_pptp_fw)($24)

	.set	macro
	.set	reorder
	.end	set_fast_pptp_fw
	.cfi_endproc
$LFE72:
	.size	set_fast_pptp_fw, .-set_fast_pptp_fw
	.section	.text.get_fast_pptp_fw,"ax",@progbits
	.align	2
	.globl	get_fast_pptp_fw
$LFB73 = .
	.loc 1 51 0
	.cfi_startproc
	.set	nomips16
	.set	nomicromips
	.ent	get_fast_pptp_fw
	.type	get_fast_pptp_fw, @function
get_fast_pptp_fw:
	.frame	$sp,0,$31		# vars= 0, regs= 0/0, args= 0, gp= 0
	.mask	0x00000000,0
	.fmask	0x00000000,0
	.set	noreorder
	.set	nomacro
	.loc 1 53 0
	lui	$24,%hi(fast_pptp_fw)
	j	$31
	lw	$2,%lo(fast_pptp_fw)($24)

	.set	macro
	.set	reorder
	.end	get_fast_pptp_fw
	.cfi_endproc
$LFE73:
	.size	get_fast_pptp_fw, .-get_fast_pptp_fw
	.section	.text.set_pptp_wan_dev,"ax",@progbits
	.align	2
	.globl	set_pptp_wan_dev
$LFB74 = .
	.loc 1 56 0
	.cfi_startproc
	.set	nomips16
	.set	nomicromips
	.ent	set_pptp_wan_dev
	.type	set_pptp_wan_dev, @function
set_pptp_wan_dev:
	.frame	$sp,0,$31		# vars= 0, regs= 0/0, args= 0, gp= 0
	.mask	0x00000000,0
	.fmask	0x00000000,0
	.set	noreorder
	.set	nomacro
$LVL1 = .
	.loc 1 57 0
	lui	$24,%hi(pptpAccInfo)
	addiu	$24,$24,%lo(pptpAccInfo)
	sw	$4,44($24)
	.loc 1 58 0
	j	$31
	sw	$5,8($24)

	.set	macro
	.set	reorder
	.end	set_pptp_wan_dev
	.cfi_endproc
$LFE74:
	.size	set_pptp_wan_dev, .-set_pptp_wan_dev
	.section	.text.clean_fastforward_info,"ax",@progbits
	.align	2
	.globl	clean_fastforward_info
$LFB75 = .
	.loc 1 61 0
	.cfi_startproc
	.set	nomips16
	.set	nomicromips
	.ent	clean_fastforward_info
	.type	clean_fastforward_info, @function
clean_fastforward_info:
	.frame	$sp,24,$31		# vars= 0, regs= 1/0, args= 16, gp= 0
	.mask	0x80000000,-4
	.fmask	0x00000000,0
	.set	noreorder
	.set	nomacro
	addiu	$sp,$sp,-24
	.cfi_def_cfa_offset 24
	sw	$31,20($sp)
	.cfi_offset 31, -4
	.loc 1 64 0
	lui	$4,%hi(pptpAccInfo)
	.loc 1 63 0
	lui	$24,%hi(fast_pptp_fw)
	.loc 1 64 0
	li	$6,72			# 0x48
	move	$5,$0
	.loc 1 63 0
	sw	$0,%lo(fast_pptp_fw)($24)
	.loc 1 64 0
	jal	memset
	addiu	$4,$4,%lo(pptpAccInfo)

$LVL2 = .
	.loc 1 65 0
	lui	$24,%hi(ppp_comp_flag)
	.loc 1 66 0
	lw	$31,20($sp)
	.loc 1 65 0
	sw	$0,%lo(ppp_comp_flag)($24)
	.loc 1 66 0
	j	$31
	addiu	$sp,$sp,24

	.cfi_def_cfa_offset 0
	.cfi_restore 31
	.set	macro
	.set	reorder
	.end	clean_fastforward_info
	.cfi_endproc
$LFE75:
	.size	clean_fastforward_info, .-clean_fastforward_info
	.section	.text.set_mppc_mppe_flag,"ax",@progbits
	.align	2
	.globl	set_mppc_mppe_flag
$LFB76 = .
	.loc 1 68 0
	.cfi_startproc
	.set	nomips16
	.set	nomicromips
	.ent	set_mppc_mppe_flag
	.type	set_mppc_mppe_flag, @function
set_mppc_mppe_flag:
	.frame	$sp,0,$31		# vars= 0, regs= 0/0, args= 0, gp= 0
	.mask	0x00000000,0
	.fmask	0x00000000,0
	.set	noreorder
	.set	nomacro
$LVL3 = .
	.loc 1 69 0
	lui	$24,%hi(ppp_comp_flag)
	j	$31
	sw	$4,%lo(ppp_comp_flag)($24)

	.set	macro
	.set	reorder
	.end	set_mppc_mppe_flag
	.cfi_endproc
$LFE76:
	.size	set_mppc_mppe_flag, .-set_mppc_mppe_flag
	.section	.text.sync_gre_rx_2_fastpptp,"ax",@progbits
	.align	2
	.globl	sync_gre_rx_2_fastpptp
$LFB77 = .
	.loc 1 87 0
	.cfi_startproc
	.set	nomips16
	.set	nomicromips
	.ent	sync_gre_rx_2_fastpptp
	.type	sync_gre_rx_2_fastpptp, @function
sync_gre_rx_2_fastpptp:
	.frame	$sp,0,$31		# vars= 0, regs= 0/0, args= 0, gp= 0
	.mask	0x00000000,0
	.fmask	0x00000000,0
	.set	noreorder
	.set	nomacro
$LVL4 = .
	.loc 1 88 0
	lui	$24,%hi(pptpAccInfo+40)
	j	$31
	sw	$4,%lo(pptpAccInfo+40)($24)

	.set	macro
	.set	reorder
	.end	sync_gre_rx_2_fastpptp
	.cfi_endproc
$LFE77:
	.size	sync_gre_rx_2_fastpptp, .-sync_gre_rx_2_fastpptp
	.section	.text.sync_gre_tx_2_fastpptp,"ax",@progbits
	.align	2
	.globl	sync_gre_tx_2_fastpptp
$LFB78 = .
	.loc 1 92 0
	.cfi_startproc
	.set	nomips16
	.set	nomicromips
	.ent	sync_gre_tx_2_fastpptp
	.type	sync_gre_tx_2_fastpptp, @function
sync_gre_tx_2_fastpptp:
	.frame	$sp,0,$31		# vars= 0, regs= 0/0, args= 0, gp= 0
	.mask	0x00000000,0
	.fmask	0x00000000,0
	.set	noreorder
	.set	nomacro
$LVL5 = .
	.loc 1 93 0
	lui	$24,%hi(pptpAccInfo+36)
	j	$31
	sw	$4,%lo(pptpAccInfo+36)($24)

	.set	macro
	.set	reorder
	.end	sync_gre_tx_2_fastpptp
	.cfi_endproc
$LFE78:
	.size	sync_gre_tx_2_fastpptp, .-sync_gre_tx_2_fastpptp
	.section	.text.fast_pptp_filter,"ax",@progbits
	.align	2
	.globl	fast_pptp_filter
$LFB79 = .
	.loc 1 98 0
	.cfi_startproc
	.set	nomips16
	.set	nomicromips
	.ent	fast_pptp_filter
	.type	fast_pptp_filter, @function
fast_pptp_filter:
	.frame	$sp,32,$31		# vars= 0, regs= 3/0, args= 16, gp= 0
	.mask	0x80030000,-4
	.fmask	0x00000000,0
	.set	noreorder
	.set	nomacro
$LVL6 = .
	.loc 1 109 0
	lui	$24,%hi(fast_pptp_fw)
	lw	$24,%lo(fast_pptp_fw)($24)
	beq	$24,$0,$L37
	nop

	.loc 1 113 0
	lw	$24,24($4)
$LVL7 = .
	sltu	$24,$24,56
	bne	$24,$0,$L37
	lw	$3,8($4)

$LBB2 = .
	.loc 1 115 0
	lbu	$24,0($3)
	.loc 1 118 0
	li	$2,6			# 0x6
	lbu	$4,9($3)
$LVL8 = .
	bne	$4,$2,$L37
	andi	$24,$24,0xf

	.loc 1 115 0 discriminator 1
	sll	$24,$24,2
	addu	$2,$3,$24
$LVL9 = .
$LBB3 = .
	.loc 1 118 0 discriminator 1
	lbu	$24,1($2)
	lbu	$4,0($2)
	sll	$24,$24,8
	or	$24,$24,$4
	wsbh	$24,$24
$LBE3 = .
	li	$4,1723			# 0x6bb
	andi	$24,$24,0xffff
	bne	$24,$4,$L37
	nop

	.loc 1 120 0
	lbu	$24,12($2)
	ext	$24,$24,4,4
	sll	$24,$24,2
	addu	$24,$2,$24
$LVL10 = .
	.loc 1 124 0
	li	$2,1			# 0x1
$LVL11 = .
	lhu	$4,2($24)
	wsbh	$4,$4
	andi	$4,$4,0xffff
	bne	$4,$2,$L37
	li	$6,8			# 0x8

$LVL12 = .
	lhu	$2,8($24)
	wsbh	$2,$2
	seh	$2,$2
	.loc 1 124 0 is_stmt 0 discriminator 1
	bnel	$2,$6,$L11
	li	$3,13			# 0xd

	.loc 1 125 0 is_stmt 1
	lbu	$2,16($24)
	bne	$2,$4,$L37
	nop

$LBE2 = .
	.loc 1 98 0
	addiu	$sp,$sp,-32
	.cfi_def_cfa_offset 32
	sw	$31,28($sp)
$LVL13 = .
	sw	$17,24($sp)
	sw	$16,20($sp)
	.cfi_offset 31, -4
	.cfi_offset 17, -8
	.cfi_offset 16, -12
$LBB4 = .
	.loc 1 132 0
	lui	$16,%hi(pptpAccInfo)
	addiu	$16,$16,%lo(pptpAccInfo)
	lw	$2,36($16)
	beql	$2,$0,$L39
	lhu	$2,12($24)

	.loc 1 132 0 is_stmt 0 discriminator 1
	lw	$2,20($16)
	beql	$2,$0,$L39
	lhu	$2,12($24)

	.loc 1 132 0 discriminator 2
	lw	$2,32($16)
	beq	$2,$0,$L39
	lhu	$2,12($24)

	.loc 1 134 0 is_stmt 1
	lhu	$4,18($16)
	bne	$4,$2,$L40
	lw	$31,28($sp)

	.loc 1 134 0 is_stmt 0 discriminator 1
	lhu	$4,30($16)
	lhu	$2,14($24)
	bne	$4,$2,$L41
	lw	$17,24($sp)

	.loc 1 141 0 is_stmt 1
	lhu	$2,12($24)
$L39:
	.loc 1 145 0
	lui	$4,%hi(pptpAccInfo+24)
	.loc 1 142 0
	lhu	$24,14($24)
$LVL14 = .
	move	$17,$5
	.loc 1 145 0
	li	$6,6			# 0x6
	addiu	$5,$5,6
$LVL15 = .
	.loc 1 141 0
	sh	$2,18($16)
	.loc 1 145 0
	addiu	$4,$4,%lo(pptpAccInfo+24)
	.loc 1 142 0
	sh	$24,30($16)
	.loc 1 143 0
	lwl	$24,19($3)
	lwr	$24,16($3)
	sw	$24,20($16)
	.loc 1 144 0
	lwl	$24,15($3)
	lwr	$24,12($3)
	.loc 1 145 0
	jal	memcpy
	sw	$24,32($16)

$LVL16 = .
	.loc 1 146 0
	lui	$4,%hi(pptpAccInfo+12)
	li	$6,6			# 0x6
	addiu	$4,$4,%lo(pptpAccInfo+12)
	jal	memcpy
	move	$5,$17

$LVL17 = .
	.loc 1 147 0
	li	$24,1			# 0x1
	sw	$24,36($16)
	.loc 1 148 0
	j	$L9
	sw	$24,4($16)

$LVL18 = .
$L11:
	.cfi_def_cfa_offset 0
	.cfi_restore 16
	.cfi_restore 17
	.cfi_restore 31
	.loc 1 154 0 discriminator 1
	bne	$2,$3,$L37
	lui	$2,%hi(pptpAccInfo)

$LVL19 = .
	.loc 1 161 0
	addiu	$2,$2,%lo(pptpAccInfo)
	lw	$3,36($2)
	beq	$3,$0,$L13
	nop

	.loc 1 161 0 is_stmt 0 discriminator 1
	lw	$3,20($2)
	beq	$3,$0,$L13
	nop

	.loc 1 161 0 discriminator 2
	lw	$3,32($2)
	beq	$3,$0,$L13
	nop

	.loc 1 163 0 is_stmt 1
	lhu	$3,18($2)
	lhu	$24,12($24)
$LVL20 = .
	bne	$3,$24,$L37
	nop

$L13:
$LVL21 = .
$LBE4 = .
	.loc 1 169 0
	j	$31
	sw	$0,4($2)

$LVL22 = .
$L9:
	.cfi_def_cfa_offset 32
	.cfi_offset 16, -12
	.cfi_offset 17, -8
	.cfi_offset 31, -4
	.loc 1 265 0
	lw	$31,28($sp)
$L40:
	lw	$17,24($sp)
$L41:
	lw	$16,20($sp)
	addiu	$sp,$sp,32
	.cfi_restore 16
	.cfi_restore 17
	.cfi_restore 31
	.cfi_def_cfa_offset 0
$LVL23 = .
$L37:
	j	$31
	nop

	.set	macro
	.set	reorder
	.end	fast_pptp_filter
	.cfi_endproc
$LFE79:
	.size	fast_pptp_filter, .-fast_pptp_filter
	.section	.text.check_and_restore_pptp_hdr,"ax",@progbits
	.align	2
	.globl	check_and_restore_pptp_hdr
$LFB80 = .
	.loc 1 268 0
	.cfi_startproc
	.set	nomips16
	.set	nomicromips
	.ent	check_and_restore_pptp_hdr
	.type	check_and_restore_pptp_hdr, @function
check_and_restore_pptp_hdr:
	.frame	$sp,24,$31		# vars= 0, regs= 2/0, args= 16, gp= 0
	.mask	0x80010000,-4
	.fmask	0x00000000,0
	.set	noreorder
	.set	nomacro
$LVL24 = .
	.loc 1 270 0
	lui	$24,%hi(fast_pptp_fw)
	lw	$24,%lo(fast_pptp_fw)($24)
	beq	$24,$0,$L52
	nop

	.loc 1 268 0
	addiu	$sp,$sp,-24
	.cfi_def_cfa_offset 24
	sw	$31,20($sp)
	sw	$16,16($sp)
	.cfi_offset 31, -4
	.cfi_offset 16, -8
	.loc 1 273 0
	lbu	$24,73($4)
	beq	$24,$0,$L42
	move	$16,$4

$LBB5 = .
	.loc 1 275 0
	jal	rtl_skb_push
	lbu	$5,74($4)

$LVL25 = .
	.loc 1 276 0
	sb	$0,73($16)
$L42:
$LBE5 = .
	.loc 1 278 0
	lw	$31,20($sp)
	lw	$16,16($sp)
$LVL26 = .
	addiu	$sp,$sp,24
	.cfi_restore 16
	.cfi_restore 31
	.cfi_def_cfa_offset 0
$L52:
	j	$31
	nop

	.set	macro
	.set	reorder
	.end	check_and_restore_pptp_hdr
	.cfi_endproc
$LFE80:
	.size	check_and_restore_pptp_hdr, .-check_and_restore_pptp_hdr
	.section	.text.fast_pptp_to_lan,"ax",@progbits
	.align	2
	.globl	fast_pptp_to_lan
$LFB81 = .
	.loc 1 283 0
	.cfi_startproc
	.set	nomips16
	.set	nomicromips
	.ent	fast_pptp_to_lan
	.type	fast_pptp_to_lan, @function
fast_pptp_to_lan:
	.frame	$sp,72,$31		# vars= 16, regs= 10/0, args= 16, gp= 0
	.mask	0xc0ff0000,-4
	.fmask	0x00000000,0
	.set	noreorder
	.set	nomacro
$LVL27 = .
	addiu	$sp,$sp,-72
	.cfi_def_cfa_offset 72
	sw	$31,68($sp)
	sw	$fp,64($sp)
	sw	$23,60($sp)
	sw	$22,56($sp)
	sw	$21,52($sp)
	sw	$20,48($sp)
	sw	$19,44($sp)
	sw	$18,40($sp)
	sw	$17,36($sp)
	sw	$16,32($sp)
	.cfi_offset 31, -4
	.cfi_offset 30, -8
	.cfi_offset 23, -12
	.cfi_offset 22, -16
	.cfi_offset 21, -20
	.cfi_offset 20, -24
	.cfi_offset 19, -28
	.cfi_offset 18, -32
	.cfi_offset 17, -36
	.cfi_offset 16, -40
$LVL28 = .
	.loc 1 297 0
	lui	$24,%hi(fast_pptp_fw)
	.loc 1 294 0
	sw	$0,16($sp)
$LVL29 = .
	.loc 1 297 0
	lw	$24,%lo(fast_pptp_fw)($24)
	beq	$24,$0,$L54
	lw	$20,0($4)

	.loc 1 300 0
	lui	$24,%hi(ppp_comp_flag)
	lw	$24,%lo(ppp_comp_flag)($24)
	beq	$24,$0,$L68
	li	$24,47			# 0x2f

	.loc 1 303 0
	lw	$16,8($20)
$LVL30 = .
	.loc 1 306 0
	lbu	$2,9($16)
	bne	$2,$24,$L90
	move	$2,$0

	.loc 1 309 0
	lbu	$24,8($16)
	sltu	$24,$24,2
	bne	$24,$0,$L68
	li	$2,1			# 0x1

	.loc 1 319 0
	lbu	$19,0($16)
	andi	$19,$19,0xf
	sll	$19,$19,2
	addu	$19,$16,$19
$LVL31 = .
	.loc 1 321 0
	lbu	$24,1($19)
	andi	$24,$24,0x7
	bne	$24,$2,$L90
	move	$2,$0

$LVL32 = .
	lhu	$24,2($19)
	.loc 1 321 0 is_stmt 0 discriminator 1
	li	$2,34827			# 0x880b
	wsbh	$24,$24
	andi	$24,$24,0xffff
	bne	$24,$2,$L90
	move	$2,$0

$LVL33 = .
$LBB6 = .
	.loc 1 330 0 is_stmt 1
	lui	$17,%hi(pptpAccInfo)
	lhu	$2,6($19)
	addiu	$17,$17,%lo(pptpAccInfo)
	lhu	$24,30($17)
	bne	$2,$24,$L90
	move	$2,$0

	.loc 1 336 0
	lw	$24,68($17)
	bne	$24,$0,$L56
	move	$18,$4

	.loc 1 340 0
	addiu	$4,$17,48
$LVL34 = .
	li	$6,20			# 0x14
	jal	memcpy
	move	$5,$16

$LVL35 = .
$LBB7 = .
	.loc 1 341 0
	lwl	$4,19($16)
	lw	$5,60($17)
$LVL36 = .
	lwr	$4,16($16)
$LVL37 = .
	srl	$3,$5,16
	andi	$24,$5,0xffff
	andi	$2,$4,0xffff
	srl	$4,$4,16
$LVL38 = .
	addu	$4,$2,$4
	subu	$2,$3,$4
	addu	$24,$2,$24
$LVL39 = .
	lhu	$2,58($17)
	addu	$24,$24,$2
$LVL40 = .
	bgez	$24,$L57
	sra	$2,$24,16

	.loc 1 341 0 is_stmt 0 discriminator 1
	subu	$24,$0,$24
$LVL41 = .
	sra	$2,$24,16
	andi	$24,$24,0xffff
$LVL42 = .
	addu	$24,$2,$24
$LVL43 = .
	sra	$2,$24,16
$LVL44 = .
	addu	$24,$24,$2
$LVL45 = .
$LBE7 = .
$LBE6 = .
	j	$L87
	nor	$24,$0,$24

$LVL46 = .
$L57:
$LBB15 = .
$LBB8 = .
	.loc 1 341 0 discriminator 2
	andi	$24,$24,0xffff
$LVL47 = .
	addu	$24,$2,$24
$LVL48 = .
	sra	$2,$24,16
$LVL49 = .
	addu	$24,$24,$2
$LVL50 = .
$L87:
	sh	$24,58($17)
$LBE8 = .
	.loc 1 342 0 is_stmt 1 discriminator 2
	lwl	$24,19($16)
$LBB9 = .
	.loc 1 343 0 discriminator 2
	lw	$5,64($17)
$LBE9 = .
	.loc 1 342 0 discriminator 2
	lwr	$24,16($16)
$LBB10 = .
	.loc 1 343 0 discriminator 2
	srl	$3,$5,16
$LBE10 = .
	.loc 1 342 0 discriminator 2
	sw	$24,60($17)
$LVL51 = .
$LBB11 = .
	.loc 1 343 0 discriminator 2
	andi	$24,$5,0xffff
	lwl	$4,15($16)
	lwr	$4,12($16)
$LVL52 = .
	andi	$2,$4,0xffff
	srl	$4,$4,16
$LVL53 = .
	addu	$4,$2,$4
	subu	$2,$3,$4
	addu	$24,$2,$24
$LVL54 = .
	lhu	$2,58($17)
	addu	$24,$24,$2
$LVL55 = .
	bgez	$24,$L59
	sra	$2,$24,16

	.loc 1 343 0 is_stmt 0 discriminator 1
	subu	$24,$0,$24
$LVL56 = .
	sra	$2,$24,16
	andi	$24,$24,0xffff
$LVL57 = .
	addu	$24,$2,$24
$LVL58 = .
	sra	$2,$24,16
$LVL59 = .
	addu	$24,$24,$2
$LVL60 = .
$LBE11 = .
$LBE15 = .
	j	$L88
	nor	$24,$0,$24

$LVL61 = .
$L59:
$LBB16 = .
$LBB12 = .
	.loc 1 343 0 discriminator 2
	andi	$24,$24,0xffff
$LVL62 = .
	addu	$24,$2,$24
$LVL63 = .
	sra	$2,$24,16
$LVL64 = .
	addu	$24,$24,$2
$LVL65 = .
$L88:
	sh	$24,58($17)
$LBE12 = .
	.loc 1 344 0 is_stmt 1 discriminator 2
	lwl	$24,15($16)
	lwr	$24,12($16)
	sw	$24,64($17)
	.loc 1 345 0 discriminator 2
	li	$24,1			# 0x1
	sw	$24,68($17)
$L56:
	.loc 1 347 0
	lbu	$24,0($19)
	andi	$24,$24,0x10
	beq	$24,$0,$L61
	li	$22,8			# 0x8

$LVL66 = .
	lw	$24,8($19)
	.loc 1 350 0
	li	$22,12			# 0xc
	wsbh	$24,$24
	ror	$24,$24,16
	.loc 1 349 0
	sw	$24,40($17)
$LVL67 = .
$L61:
	.loc 1 353 0
	lb	$24,1($19)
	.loc 1 354 0
	addiu	$2,$22,4
	slt	$24,$24,0
	movn	$22,$2,$24
$LVL68 = .
	.loc 1 359 0
	lhu	$24,4($19)
	beq	$24,$0,$L90
	move	$2,$0

	.loc 1 356 0
	addu	$24,$19,$22
	.loc 1 362 0
	lbu	$2,0($24)
	bne	$2,$0,$L63
	li	$3,255			# 0xff

$LVL69 = .
	.loc 1 365 0
	addiu	$24,$24,1
$LVL70 = .
	j	$L64
	li	$21,1			# 0x1

$LVL71 = .
$L63:
	.loc 1 367 0
	bne	$2,$3,$L64
	move	$21,$0

	.loc 1 367 0 is_stmt 0 discriminator 1
	lbu	$3,1($24)
	li	$2,3			# 0x3
	bnel	$3,$2,$L91
	lbu	$23,0($24)

$LVL72 = .
	.loc 1 371 0 is_stmt 1
	lbu	$3,2($24)
$LVL73 = .
	bne	$3,$0,$L72
	addiu	$2,$24,2

$LVL74 = .
	.loc 1 374 0
	addiu	$24,$24,3
$LVL75 = .
$LBE16 = .
	.loc 1 373 0
	j	$L64
	li	$21,3			# 0x3

$LVL76 = .
$L72:
$LBB17 = .
	.loc 1 369 0
	li	$21,2			# 0x2
	.loc 1 370 0
	move	$24,$2
$LVL77 = .
$L64:
	.loc 1 379 0
	lbu	$23,0($24)
$L91:
	li	$24,33			# 0x21
$LVL78 = .
	beq	$23,$24,$L65
	li	$24,253			# 0xfd

	.loc 1 379 0 is_stmt 0 discriminator 1
	bne	$23,$24,$L90
	move	$2,$0

$L65:
$LVL79 = .
	.loc 1 391 0 is_stmt 1
	lbu	$24,0($16)
	.loc 1 394 0
	move	$4,$19
$LVL80 = .
	jal	sync_gre_rx_2_daemon
	andi	$16,$24,0xf

$LVL81 = .
	.loc 1 395 0
	li	$24,253			# 0xfd
	bnel	$23,$24,$L92
	lw	$24,44($17)

$LVL82 = .
	.loc 1 391 0
	sll	$16,$16,2
	.loc 1 381 0
	addiu	$19,$21,1
$LVL83 = .
	.loc 1 391 0
	addu	$16,$16,$22
$LBB13 = .
	.loc 1 402 0
	move	$4,$20
$LBE13 = .
	.loc 1 391 0
	addu	$19,$16,$19
$LVL84 = .
$LBB14 = .
	.loc 1 402 0
	addiu	$21,$19,-4
$LVL85 = .
	jal	cyg_m_adj
	move	$5,$21

$LVL86 = .
	.loc 1 408 0
	li	$2,-1			# 0xffffffffffffffff
	.loc 1 403 0
	lw	$16,8($20)
$LVL87 = .
	.loc 1 413 0
	addiu	$5,$sp,16
	move	$4,$20
	.loc 1 404 0
	lbu	$24,0($16)
$LVL88 = .
	.loc 1 405 0
	lbu	$fp,1($16)
$LVL89 = .
	.loc 1 408 0
	sb	$2,0($16)
$LVL90 = .
	.loc 1 409 0
	li	$2,3			# 0x3
	.loc 1 406 0
	lbu	$23,2($16)
$LVL91 = .
	.loc 1 407 0
	lbu	$22,3($16)
$LVL92 = .
	.loc 1 409 0
	sb	$2,1($16)
$LVL93 = .
	.loc 1 411 0
	li	$2,-3			# 0xfffffffffffffffd
	.loc 1 410 0
	sb	$0,2($16)
$LVL94 = .
	.loc 1 411 0
	sb	$2,3($16)
$LVL95 = .
	.loc 1 413 0
	jal	rtl_ppp_receive_nonmp_frame
	sw	$24,24($sp)

$LVL96 = .
	.loc 1 415 0
	beq	$2,$0,$L67
	lw	$24,24($sp)

	.loc 1 420 0
	lw	$24,16($sp)
$LVL97 = .
	.loc 1 421 0
	sw	$24,0($18)
	.loc 1 423 0
	lw	$2,24($24)
$LVL98 = .
	addiu	$2,$2,-4
	sw	$2,24($24)
	.loc 1 424 0
	lw	$2,8($24)
	addiu	$2,$2,4
	sw	$2,8($24)
	.loc 1 425 0
	lw	$2,12($24)
	addiu	$2,$2,-4
	j	$L66
	sw	$2,12($24)

$LVL99 = .
$L67:
	.loc 1 449 0
	sb	$24,0($16)
	.loc 1 450 0
	sb	$fp,1($16)
	.loc 1 451 0
	sb	$23,2($16)
	.loc 1 452 0
	sb	$22,3($16)
	.loc 1 453 0
	lw	$24,12($20)
	.loc 1 455 0
	lw	$5,24($20)
	.loc 1 453 0
	addu	$24,$24,$21
	.loc 1 455 0
	addu	$5,$5,$21
	.loc 1 453 0
	sw	$24,12($20)
	.loc 1 454 0
	li	$24,4			# 0x4
	.loc 1 455 0
	sw	$5,24($20)
	.loc 1 454 0
	subu	$19,$24,$19
	lw	$24,8($20)
	addu	$19,$24,$19
	sw	$19,8($20)
$LVL100 = .
$L66:
$LBE14 = .
	.loc 1 460 0
	lw	$24,44($17)
$LVL101 = .
$L92:
	.loc 1 461 0
	beq	$24,$0,$L90
	move	$2,$0

	.loc 1 461 0 is_stmt 0 discriminator 1
	lhu	$2,58($24)
	andi	$2,$2,0x1
	beq	$2,$0,$L90
	move	$2,$0

	.loc 1 463 0 is_stmt 1
	lw	$2,92($24)
	addiu	$2,$2,1
$LBE17 = .
	j	$L68
	sw	$2,92($24)

$LVL102 = .
$L54:
	.loc 1 476 0
	j	$L89
	lw	$31,68($sp)

$LVL103 = .
$L68:
	move	$2,$0
$L90:
	lw	$31,68($sp)
$L89:
	lw	$fp,64($sp)
	lw	$23,60($sp)
	lw	$22,56($sp)
	lw	$21,52($sp)
	lw	$20,48($sp)
	lw	$19,44($sp)
	lw	$18,40($sp)
	lw	$17,36($sp)
	lw	$16,32($sp)
	j	$31
	addiu	$sp,$sp,72

	.cfi_def_cfa_offset 0
	.cfi_restore 16
	.cfi_restore 17
	.cfi_restore 18
	.cfi_restore 19
	.cfi_restore 20
	.cfi_restore 21
	.cfi_restore 22
	.cfi_restore 23
	.cfi_restore 30
	.cfi_restore 31
	.set	macro
	.set	reorder
	.end	fast_pptp_to_lan
	.cfi_endproc
$LFE81:
	.size	fast_pptp_to_lan, .-fast_pptp_to_lan
	.section	.text.fast_pptp_to_lan_skb,"ax",@progbits
	.align	2
	.globl	fast_pptp_to_lan_skb
$LFB82 = .
	.loc 1 484 0
	.cfi_startproc
	.set	nomips16
	.set	nomicromips
	.ent	fast_pptp_to_lan_skb
	.type	fast_pptp_to_lan_skb, @function
fast_pptp_to_lan_skb:
	.frame	$sp,48,$31		# vars= 0, regs= 7/0, args= 16, gp= 0
	.mask	0x803f0000,-4
	.fmask	0x00000000,0
	.set	noreorder
	.set	nomacro
$LVL104 = .
	addiu	$sp,$sp,-48
	.cfi_def_cfa_offset 48
	sw	$31,44($sp)
	sw	$21,40($sp)
	sw	$20,36($sp)
	sw	$19,32($sp)
	sw	$18,28($sp)
	sw	$17,24($sp)
	sw	$16,20($sp)
	.cfi_offset 31, -4
	.cfi_offset 21, -8
	.cfi_offset 20, -12
	.cfi_offset 19, -16
	.cfi_offset 18, -20
	.cfi_offset 17, -24
	.cfi_offset 16, -28
$LVL105 = .
	.loc 1 495 0
	jal	rtl_ip_hdr
	move	$18,$4

$LVL106 = .
	.loc 1 496 0
	move	$4,$18
$LVL107 = .
	jal	rtl_get_skb_data
	move	$21,$2

$LVL108 = .
	.loc 1 499 0
	lui	$24,%hi(fast_pptp_fw)
	.loc 1 497 0
	lw	$19,0($21)
	.loc 1 499 0
	lw	$24,%lo(fast_pptp_fw)($24)
$LVL109 = .
	beq	$24,$0,$L94
	andi	$19,$19,0xf

	.loc 1 502 0
	lui	$24,%hi(ppp_comp_flag)
	lw	$24,%lo(ppp_comp_flag)($24)
	bne	$24,$0,$L96
	move	$17,$2

$LVL110 = .
	.loc 1 505 0
	lbu	$2,9($21)
	li	$24,47			# 0x2f
	bne	$2,$24,$L93
	move	$2,$0

	.loc 1 508 0
	lbu	$24,8($21)
	sltu	$24,$24,2
	bne	$24,$0,$L128
	lw	$31,44($sp)

	.loc 1 511 0 discriminator 1
	jal	rtl_get_skb_len
	move	$4,$18

$LVL111 = .
	sltu	$2,$2,20
	bne	$2,$0,$L93
	move	$2,$0

	.loc 1 497 0
	sll	$19,$19,2
	.loc 1 514 0
	move	$5,$0
	.loc 1 497 0
	addu	$19,$17,$19
	.loc 1 514 0
	jal	rtl_set_skb_pptp_flag
	move	$4,$18

$LVL112 = .
	.loc 1 516 0
	li	$2,1			# 0x1
	lbu	$24,1($19)
	andi	$24,$24,0x7
	bne	$24,$2,$L93
	move	$2,$0

$LVL113 = .
	lhu	$24,2($19)
	.loc 1 516 0 is_stmt 0 discriminator 1
	li	$2,34827			# 0x880b
	wsbh	$24,$24
	andi	$24,$24,0xffff
	bne	$24,$2,$L93
	move	$2,$0

$LVL114 = .
$LBB18 = .
	.loc 1 522 0 is_stmt 1
	lui	$16,%hi(pptpAccInfo)
	lhu	$2,6($19)
	addiu	$16,$16,%lo(pptpAccInfo)
	lhu	$24,30($16)
	bne	$2,$24,$L93
	move	$2,$0

	.loc 1 527 0
	lw	$24,68($16)
	bnel	$24,$0,$L126
	lbu	$24,0($19)

	.loc 1 530 0
	addiu	$4,$16,48
	li	$6,20			# 0x14
	jal	memcpy
	move	$5,$21

$LVL115 = .
$LBB19 = .
	.loc 1 531 0
	lw	$5,16($21)
	lw	$4,60($16)
$LVL116 = .
	srl	$2,$5,16
	andi	$24,$5,0xffff
	addu	$24,$24,$2
	srl	$3,$4,16
	subu	$2,$3,$24
	andi	$24,$4,0xffff
	addu	$24,$2,$24
$LVL117 = .
	lhu	$2,58($16)
	addu	$24,$24,$2
$LVL118 = .
	bgez	$24,$L99
	sra	$2,$24,16

	.loc 1 531 0 is_stmt 0 discriminator 1
	subu	$24,$0,$24
$LVL119 = .
	sra	$2,$24,16
	andi	$24,$24,0xffff
$LVL120 = .
	addu	$24,$2,$24
$LVL121 = .
	sra	$2,$24,16
$LVL122 = .
	addu	$24,$24,$2
$LVL123 = .
$LBE19 = .
$LBE18 = .
	j	$L124
	nor	$24,$0,$24

$LVL124 = .
$L99:
$LBB25 = .
$LBB20 = .
	.loc 1 531 0 discriminator 2
	andi	$24,$24,0xffff
$LVL125 = .
	addu	$24,$2,$24
$LVL126 = .
	sra	$2,$24,16
$LVL127 = .
	addu	$24,$24,$2
$LVL128 = .
$L124:
$LBE20 = .
$LBB21 = .
	.loc 1 533 0 is_stmt 1 discriminator 2
	lw	$4,64($16)
$LBE21 = .
	.loc 1 532 0 discriminator 2
	sw	$5,60($16)
$LVL129 = .
$LBB22 = .
	.loc 1 531 0 discriminator 2
	sh	$24,58($16)
$LBE22 = .
$LBB23 = .
	.loc 1 533 0 discriminator 2
	lw	$5,12($21)
$LVL130 = .
	srl	$3,$4,16
	srl	$2,$5,16
	andi	$24,$5,0xffff
	addu	$24,$24,$2
	subu	$2,$3,$24
	andi	$24,$4,0xffff
	addu	$24,$2,$24
$LVL131 = .
	lhu	$2,58($16)
	addu	$24,$24,$2
$LVL132 = .
	bgez	$24,$L101
	sra	$2,$24,16

	.loc 1 533 0 is_stmt 0 discriminator 1
	subu	$24,$0,$24
$LVL133 = .
	sra	$2,$24,16
	andi	$24,$24,0xffff
$LVL134 = .
	addu	$24,$2,$24
$LVL135 = .
	sra	$2,$24,16
$LVL136 = .
	addu	$24,$24,$2
$LVL137 = .
$LBE23 = .
$LBE25 = .
	j	$L125
	nor	$24,$0,$24

$LVL138 = .
$L101:
$LBB26 = .
$LBB24 = .
	.loc 1 533 0 discriminator 2
	andi	$24,$24,0xffff
$LVL139 = .
	addu	$24,$2,$24
$LVL140 = .
	sra	$2,$24,16
$LVL141 = .
	addu	$24,$24,$2
$LVL142 = .
$L125:
	sh	$24,58($16)
$LBE24 = .
	.loc 1 535 0 is_stmt 1 discriminator 2
	li	$24,1			# 0x1
	.loc 1 534 0 discriminator 2
	sw	$5,64($16)
	.loc 1 535 0 discriminator 2
	sw	$24,68($16)
	.loc 1 538 0
	lbu	$24,0($19)
$L126:
	andi	$24,$24,0x10
	beq	$24,$0,$L103
	li	$20,8			# 0x8

$LVL143 = .
	lw	$24,8($19)
	.loc 1 540 0
	li	$20,12			# 0xc
	wsbh	$24,$24
	ror	$24,$24,16
	.loc 1 539 0
	sw	$24,40($16)
$LVL144 = .
$L103:
	.loc 1 543 0
	lb	$24,1($19)
	.loc 1 544 0
	addiu	$2,$20,4
	slt	$24,$24,0
	movn	$20,$2,$24
$LVL145 = .
	.loc 1 549 0
	lhu	$24,4($19)
	beq	$24,$0,$L93
	move	$2,$0

	.loc 1 546 0
	addu	$2,$19,$20
	.loc 1 551 0
	lbu	$24,0($2)
	bne	$24,$0,$L105
	li	$4,255			# 0xff

$LVL146 = .
	.loc 1 553 0
	addiu	$2,$2,1
$LVL147 = .
	j	$L106
	li	$3,1			# 0x1

$LVL148 = .
$L105:
	.loc 1 555 0
	bne	$24,$4,$L106
	move	$3,$0

	.loc 1 555 0 is_stmt 0 discriminator 1
	lbu	$4,1($2)
	li	$24,3			# 0x3
	bnel	$4,$24,$L127
	lbu	$24,0($2)

$LVL149 = .
	.loc 1 558 0 is_stmt 1
	lbu	$3,2($2)
$LVL150 = .
	bne	$3,$0,$L112
	addiu	$24,$2,2

$LVL151 = .
	.loc 1 560 0
	addiu	$2,$2,3
$LVL152 = .
$LBE26 = .
	.loc 1 559 0
	j	$L106
	li	$3,3			# 0x3

$LVL153 = .
$L112:
$LBB27 = .
	.loc 1 556 0
	li	$3,2			# 0x2
	.loc 1 557 0
	move	$2,$24
$LVL154 = .
$L106:
	.loc 1 563 0
	lbu	$24,0($2)
$L127:
	li	$2,33			# 0x21
$LVL155 = .
	beq	$24,$2,$L107
	li	$2,253			# 0xfd

	.loc 1 563 0 is_stmt 0 discriminator 1
	bne	$24,$2,$L93
	move	$2,$0

$L107:
$LVL156 = .
	.loc 1 574 0 is_stmt 1
	lw	$24,0($21)
	andi	$24,$24,0xf
	sll	$24,$24,2
	addu	$24,$24,$20
	.loc 1 564 0
	addiu	$20,$3,1
$LVL157 = .
	.loc 1 574 0
	addu	$20,$24,$20
$LVL158 = .
	.loc 1 576 0
	li	$24,6			# 0x6
	.loc 1 575 0
	addu	$17,$17,$20
$LVL159 = .
	.loc 1 576 0
	lbu	$2,9($17)
	bne	$2,$24,$L108
	nop

$LVL160 = .
	.loc 1 578 0
	lw	$24,0($17)
	andi	$24,$24,0xf
	.loc 1 579 0
	sll	$24,$24,2
	addu	$17,$17,$24
$LVL161 = .
	lbu	$24,13($17)
	andi	$24,$24,0x7
	bne	$24,$0,$L93
	move	$2,$0

$L108:
	.loc 1 583 0
	jal	sync_gre_rx_2_daemon
	move	$4,$19

$LVL162 = .
	.loc 1 584 0
	move	$5,$20
	jal	skb_pull
	move	$4,$18

$LVL163 = .
	.loc 1 585 0
	li	$5,1			# 0x1
	jal	rtl_set_skb_pptp_flag
	move	$4,$18

$LVL164 = .
	.loc 1 586 0
	move	$5,$20
	jal	rtl_set_skb_pptp_offset
	move	$4,$18

$LVL165 = .
	.loc 1 589 0
	lw	$24,44($16)
$LVL166 = .
	.loc 1 590 0
	beq	$24,$0,$L93
	move	$2,$0

	.loc 1 590 0 is_stmt 0 discriminator 1
	lhu	$2,58($24)
	andi	$2,$2,0x1
	beql	$2,$0,$L93
	move	$2,$0

	.loc 1 592 0 is_stmt 1
	lw	$2,92($24)
	addiu	$2,$2,1
	sw	$2,92($24)
$LVL167 = .
$L96:
	move	$2,$0
$LVL168 = .
$L94:
$LVL169 = .
$L93:
$LBE27 = .
	.loc 1 598 0
	lw	$31,44($sp)
$L128:
	lw	$21,40($sp)
	lw	$20,36($sp)
	lw	$19,32($sp)
	lw	$18,28($sp)
$LVL170 = .
	lw	$17,24($sp)
	lw	$16,20($sp)
	j	$31
	addiu	$sp,$sp,48

	.cfi_def_cfa_offset 0
	.cfi_restore 16
	.cfi_restore 17
	.cfi_restore 18
	.cfi_restore 19
	.cfi_restore 20
	.cfi_restore 21
	.cfi_restore 31
	.set	macro
	.set	reorder
	.end	fast_pptp_to_lan_skb
	.cfi_endproc
$LFE82:
	.size	fast_pptp_to_lan_skb, .-fast_pptp_to_lan_skb
	.section	.rodata.str1.4,"aMS",@progbits,1
	.align	2
$LC0:
	.ascii	"%s,%d,prepend error!\012\000"
	.section	.text.fast_pptp_to_wan,"ax",@progbits
	.align	2
	.globl	fast_pptp_to_wan
$LFB83 = .
	.loc 1 603 0
	.cfi_startproc
	.set	nomips16
	.set	nomicromips
	.ent	fast_pptp_to_wan
	.type	fast_pptp_to_wan, @function
fast_pptp_to_wan:
	.frame	$sp,64,$31		# vars= 24, regs= 5/0, args= 16, gp= 0
	.mask	0x800f0000,-4
	.fmask	0x00000000,0
	.set	noreorder
	.set	nomacro
$LVL171 = .
	addiu	$sp,$sp,-64
	.cfi_def_cfa_offset 64
	sw	$31,60($sp)
	sw	$19,56($sp)
	sw	$18,52($sp)
	sw	$17,48($sp)
	sw	$16,44($sp)
	.cfi_offset 31, -4
	.cfi_offset 19, -8
	.cfi_offset 18, -12
	.cfi_offset 17, -16
	.cfi_offset 16, -20
$LVL172 = .
	.loc 1 617 0
	lui	$2,%hi(fast_pptp_fw)
	.loc 1 613 0
	sw	$0,32($sp)
$LVL173 = .
	.loc 1 617 0
	lw	$2,%lo(fast_pptp_fw)($2)
	bne	$2,$0,$L130
	lw	$24,0($4)

$LVL174 = .
$L132:
	.loc 1 618 0
	j	$L162
	move	$2,$0

$LVL175 = .
$L130:
	.loc 1 620 0
	lui	$2,%hi(ppp_comp_flag)
	lw	$2,%lo(ppp_comp_flag)($2)
	beql	$2,$0,$L162
	move	$2,$0

	.loc 1 623 0
	beq	$5,$0,$L132
	lui	$16,%hi(pptpAccInfo)

	.loc 1 626 0
	addiu	$16,$16,%lo(pptpAccInfo)
	lw	$18,44($16)
	bne	$18,$5,$L162
	move	$2,$0

$LVL176 = .
	.loc 1 630 0
	lw	$2,4($16)
	beq	$2,$0,$L132
	move	$19,$4

$LBB28 = .
	.loc 1 633 0
	addiu	$5,$sp,32
$LVL177 = .
	jal	rtl_ppp_receive_mp_frame
	move	$4,$24

$LVL178 = .
	.loc 1 634 0
	li	$24,1			# 0x1
	bnel	$2,$24,$L162
	move	$2,$0

	.loc 1 639 0
	lw	$17,32($sp)
$LBB29 = .
	.loc 1 674 0
	lhu	$24,18($17)
$LBE29 = .
	.loc 1 639 0
	sw	$17,0($19)
$LVL179 = .
$LBB30 = .
	.loc 1 674 0
	andi	$3,$24,0x1
	beq	$3,$0,$L133
	lw	$2,8($17)

$LBE30 = .
$LBE28 = .
	.loc 1 674 0 is_stmt 0 discriminator 1
	j	$L165
	lw	$24,96($17)

$L133:
$LBB41 = .
$LBB31 = .
	.loc 1 674 0 discriminator 2
	andi	$24,$24,0x2
	beql	$24,$0,$L135
	addiu	$24,$17,20

	addiu	$24,$17,96
$L135:
$L165:
	.loc 1 674 0 discriminator 5
	subu	$24,$2,$24
	slt	$24,$24,50
	bne	$24,$0,$L136
	addiu	$2,$2,-50

	.loc 1 674 0 discriminator 9
	lw	$24,12($17)
	addiu	$24,$24,50
	sw	$2,8($17)
$LBE31 = .
$LBE41 = .
	j	$L137
	sw	$24,12($17)

$L136:
$LBB42 = .
$LBB32 = .
	.loc 1 674 0 discriminator 10
	li	$6,1			# 0x1
	li	$5,50			# 0x32
	jal	cyg_m_prepend
	move	$4,$17

$LVL180 = .
	beq	$2,$0,$L138
	move	$17,$2

$LVL181 = .
$L137:
	.loc 1 674 0 discriminator 13
	lhu	$24,18($17)
	andi	$24,$24,0x2
	beql	$24,$0,$L167
	lw	$19,8($17)

	.loc 1 674 0 discriminator 15
	lw	$24,24($17)
	addiu	$24,$24,50
$LBE32 = .
$LBE42 = .
	j	$L139
	sw	$24,24($17)

$LVL182 = .
$L138:
$LBB43 = .
	.loc 1 677 0 is_stmt 1
	lui	$5,%hi(__FUNCTION__.5966)
	lui	$4,%hi($LC0)
	li	$6,677			# 0x2a5
	addiu	$5,$5,%lo(__FUNCTION__.5966)
	jal	diag_printf
	addiu	$4,$4,%lo($LC0)

$LVL183 = .
	.loc 1 678 0
	j	$L162
	li	$2,355			# 0x163

$LVL184 = .
$L139:
	.loc 1 680 0
	lw	$19,8($17)
$LVL185 = .
$L167:
	.loc 1 682 0
	li	$6,6			# 0x6
	addiu	$5,$16,24
	jal	memcpy
	move	$4,$19

$LVL186 = .
	.loc 1 683 0
	li	$6,6			# 0x6
	addiu	$5,$16,12
	jal	memcpy
	addiu	$4,$19,6

$LVL187 = .
	.loc 1 684 0
	li	$24,8			# 0x8
	sb	$0,13($19)
$LVL188 = .
	sb	$24,12($19)
$LBB33 = .
	.loc 1 706 0
	lw	$2,24($17)
$LBE33 = .
	.loc 1 705 0
	lhu	$24,50($16)
$LVL189 = .
$LBB34 = .
	.loc 1 706 0
	addiu	$2,$2,-14
	wsbh	$2,$2
	andi	$3,$2,0xffff
$LBE34 = .
	sh	$2,50($16)
$LVL190 = .
$LBB35 = .
	.loc 1 707 0
	subu	$24,$24,$3
$LVL191 = .
	lhu	$2,58($16)
	addu	$24,$24,$2
$LVL192 = .
	bgez	$24,$L163
	sra	$2,$24,16

$LVL193 = .
$LBE35 = .
$LBE43 = .
	.loc 1 707 0 is_stmt 0 discriminator 1
	j	$L166
	addiu	$24,$24,-1

$LVL194 = .
$L163:
$LBB44 = .
$LBB36 = .
	.loc 1 707 0 discriminator 2
	andi	$24,$24,0xffff
$LVL195 = .
	addu	$24,$2,$24
$LVL196 = .
	sra	$2,$24,16
$LVL197 = .
	addu	$24,$24,$2
$LVL198 = .
$L166:
$LBE36 = .
	.loc 1 708 0 is_stmt 1 discriminator 2
	li	$6,20			# 0x14
$LBB37 = .
	.loc 1 707 0 discriminator 2
	sh	$24,58($16)
$LBE37 = .
	.loc 1 708 0 discriminator 2
	addiu	$5,$16,48
	jal	memcpy
	addiu	$4,$19,14

$LVL199 = .
	.loc 1 712 0 discriminator 2
	li	$24,48			# 0x30
	.loc 1 719 0 discriminator 2
	li	$6,16			# 0x10
	addiu	$5,$sp,16
$LVL200 = .
	.loc 1 712 0 discriminator 2
	sb	$24,16($sp)
	.loc 1 713 0 discriminator 2
	li	$24,-127			# 0xffffffffffffff81
	.loc 1 719 0 discriminator 2
	addiu	$4,$19,34
	.loc 1 713 0 discriminator 2
	sb	$24,17($sp)
$LVL201 = .
	.loc 1 714 0 discriminator 2
	li	$24,2952			# 0xb88
	sh	$24,18($sp)
$LVL202 = .
$LBB38 = .
	.loc 1 715 0 discriminator 2
	lw	$24,24($17)
	addiu	$24,$24,-50
	wsbh	$24,$24
$LBE38 = .
	sh	$24,20($sp)
	.loc 1 716 0 discriminator 2
	lhu	$24,18($16)
	sh	$24,22($sp)
$LBB39 = .
	.loc 1 717 0 discriminator 2
	lw	$24,36($16)
	addiu	$2,$24,1
	wsbh	$24,$24
	ror	$24,$24,16
	sw	$2,36($16)
$LVL203 = .
$LBE39 = .
	sw	$24,24($sp)
$LVL204 = .
	lw	$24,40($16)
	wsbh	$24,$24
	ror	$24,$24,16
	.loc 1 719 0 discriminator 2
	jal	memcpy
	sw	$24,28($sp)

$LVL205 = .
	.loc 1 721 0 discriminator 2
	lw	$24,8($16)
	beq	$24,$0,$L162
	move	$2,$0

$LBB40 = .
	.loc 1 724 0
	jal	sync_gre_tx_2_daemon
	nop

$LVL206 = .
	.loc 1 725 0
	lhu	$24,58($18)
	andi	$24,$24,0x1
	beql	$24,$0,$L168
	lw	$4,8($16)

	.loc 1 727 0
	lw	$24,100($18)
	addiu	$24,$24,1
	sw	$24,100($18)
	.loc 1 729 0
	lw	$4,8($16)
$L168:
	jal	cyg_ether_output_frame
	move	$5,$17

$LVL207 = .
	.loc 1 730 0
	li	$2,1			# 0x1
$LVL208 = .
$L162:
$LBE40 = .
$LBE44 = .
	.loc 1 734 0
	lw	$31,60($sp)
	lw	$19,56($sp)
	lw	$18,52($sp)
	lw	$17,48($sp)
	lw	$16,44($sp)
	j	$31
	addiu	$sp,$sp,64

	.cfi_def_cfa_offset 0
	.cfi_restore 16
	.cfi_restore 17
	.cfi_restore 18
	.cfi_restore 19
	.cfi_restore 31
	.set	macro
	.set	reorder
	.end	fast_pptp_to_wan
	.cfi_endproc
$LFE83:
	.size	fast_pptp_to_wan, .-fast_pptp_to_wan
	.section	.text.fast_pptp_to_wan_skb,"ax",@progbits
	.align	2
	.globl	fast_pptp_to_wan_skb
$LFB84 = .
	.loc 1 738 0
	.cfi_startproc
	.set	nomips16
	.set	nomicromips
	.ent	fast_pptp_to_wan_skb
	.type	fast_pptp_to_wan_skb, @function
fast_pptp_to_wan_skb:
	.frame	$sp,64,$31		# vars= 24, regs= 5/0, args= 16, gp= 0
	.mask	0x800f0000,-4
	.fmask	0x00000000,0
	.set	noreorder
	.set	nomacro
$LVL209 = .
	.loc 1 748 0
	lui	$24,%hi(fast_pptp_fw)
	lw	$24,%lo(fast_pptp_fw)($24)
	beq	$24,$0,$L206
	nop

	.loc 1 751 0
	lui	$24,%hi(ppp_comp_flag)
	lw	$24,%lo(ppp_comp_flag)($24)
	bne	$24,$0,$L206
	nop

	.loc 1 738 0
	addiu	$sp,$sp,-64
	.cfi_def_cfa_offset 64
	sw	$31,60($sp)
	sw	$19,56($sp)
	sw	$18,52($sp)
	sw	$17,48($sp)
	sw	$16,44($sp)
	.cfi_offset 31, -4
	.cfi_offset 19, -8
	.cfi_offset 18, -12
	.cfi_offset 17, -16
	.cfi_offset 16, -20
	move	$19,$4
	.loc 1 754 0
	jal	rtl_get_skb_dev
	move	$18,$5

$LVL210 = .
	bne	$2,$0,$L209
	nop

$L172:
	.loc 1 749 0
	j	$L171
	move	$2,$0

$L209:
	.loc 1 754 0 discriminator 1
	beq	$18,$0,$L172
	li	$24,23			# 0x17

	.loc 1 759 0
	lbu	$2,72($18)
	bnel	$2,$24,$L171
	move	$2,$0

	.loc 1 764 0
	lui	$16,%hi(pptpAccInfo)
	addiu	$16,$16,%lo(pptpAccInfo)
	lw	$24,68($16)
	beql	$24,$0,$L171
	move	$2,$0

	.loc 1 767 0
	lw	$24,4($16)
	beql	$24,$0,$L171
	move	$2,$0

	.loc 1 767 0 is_stmt 0 discriminator 1
	lw	$24,44($16)
	beql	$24,$0,$L171
	move	$2,$0

	.loc 1 767 0 discriminator 2
	lw	$24,8($16)
	beql	$24,$0,$L171
	move	$2,$0

$LVL211 = .
$LBB56 = .
$LBB57 = .
$LBB58 = .
	.file 2 "/home/kai_wang/release-ecos1.5.1/release_tool_v15/ecos_v1.5.1_20160706/ecos-work/97f-8812br-16M-gw_install/include/cyg/io/eth/rltk/819x/wrapper/skbuff.h"
	.loc 2 464 0 is_stmt 1
	lw	$24,36($19)
	.loc 2 463 0
	lw	$17,16($19)
	.loc 2 464 0
	addiu	$24,$24,54
	.loc 2 463 0
	addiu	$4,$17,-54
	.loc 2 464 0
	sw	$24,36($19)
	.loc 2 463 0
	sw	$4,16($19)
	.loc 2 469 0
	lw	$24,84($19)
	beq	$24,$0,$L210
	li	$6,6			# 0x6

$LVL212 = .
$LBB59 = .
$LBB60 = .
	lw	$24,76($19)
	beq	$24,$0,$L210
	addiu	$24,$24,54

	.loc 2 470 0
	sw	$24,76($19)
$LVL213 = .
$LBE60 = .
$LBE59 = .
$LBE58 = .
$LBE57 = .
	.loc 1 773 0
	li	$6,6			# 0x6
$L210:
	jal	memcpy
	addiu	$5,$16,24

$LVL214 = .
	.loc 1 774 0
	addiu	$4,$17,-48
	li	$6,6			# 0x6
	jal	memcpy
	addiu	$5,$16,12

$LVL215 = .
	.loc 1 775 0
	li	$24,8			# 0x8
	sb	$0,-41($17)
$LVL216 = .
$LBB61 = .
	.loc 1 798 0
	move	$4,$19
$LBE61 = .
	.loc 1 775 0
	sb	$24,-42($17)
$LVL217 = .
$LBB62 = .
	.loc 1 798 0
	jal	rtl_get_skb_len
	lhu	$17,50($16)

$LVL218 = .
	addiu	$2,$2,-14
$LVL219 = .
	wsbh	$2,$2
	andi	$24,$2,0xffff
$LBE62 = .
$LBB63 = .
	.loc 1 799 0
	subu	$17,$17,$24
$LVL220 = .
	lhu	$24,58($16)
$LVL221 = .
	addu	$24,$17,$24
$LVL222 = .
	bgez	$24,$L174
	sh	$2,50($16)

$LVL223 = .
$LBE63 = .
$LBE56 = .
	.loc 1 799 0 is_stmt 0 discriminator 1
	j	$L207
	addiu	$24,$24,-1

$LVL224 = .
$L174:
$LBB70 = .
$LBB64 = .
	.loc 1 799 0 discriminator 2
	sra	$2,$24,16
	andi	$24,$24,0xffff
$LVL225 = .
	addu	$24,$2,$24
$LVL226 = .
	sra	$2,$24,16
$LVL227 = .
	addu	$24,$24,$2
$LVL228 = .
$L207:
	sh	$24,58($16)
$LBE64 = .
	.loc 1 800 0 is_stmt 1 discriminator 2
	jal	rtl_get_skb_data
	move	$4,$19

$LVL229 = .
	li	$6,20			# 0x14
	addiu	$5,$16,48
	jal	memcpy
	addiu	$4,$2,14

$LVL230 = .
	.loc 1 817 0 discriminator 2
	li	$24,48			# 0x30
$LBB65 = .
	.loc 1 820 0 discriminator 2
	move	$4,$19
$LBE65 = .
	.loc 1 817 0 discriminator 2
	sb	$24,16($sp)
	.loc 1 818 0 discriminator 2
	li	$24,-127			# 0xffffffffffffff81
	sb	$24,17($sp)
$LVL231 = .
	.loc 1 819 0 discriminator 2
	li	$24,2952			# 0xb88
$LBB66 = .
	.loc 1 820 0 discriminator 2
	jal	rtl_get_skb_len
	sh	$24,18($sp)

$LVL232 = .
$LBE66 = .
	.loc 1 824 0 discriminator 2
	move	$4,$19
	.loc 1 821 0 discriminator 2
	lhu	$24,18($16)
$LBB67 = .
	.loc 1 820 0 discriminator 2
	addiu	$2,$2,-50
$LVL233 = .
	wsbh	$2,$2
$LBE67 = .
	.loc 1 821 0 discriminator 2
	sh	$24,22($sp)
	.loc 1 820 0 discriminator 2
	sh	$2,20($sp)
$LBB68 = .
	.loc 1 822 0 discriminator 2
	lw	$24,36($16)
	addiu	$2,$24,1
	wsbh	$24,$24
	ror	$24,$24,16
	sw	$2,36($16)
$LBE68 = .
	sw	$24,24($sp)
$LVL234 = .
	lw	$24,40($16)
	wsbh	$24,$24
	ror	$24,$24,16
	.loc 1 824 0 discriminator 2
	jal	rtl_get_skb_data
	sw	$24,28($sp)

$LVL235 = .
	li	$6,16			# 0x10
	addiu	$5,$sp,16
$LVL236 = .
	jal	memcpy
	addiu	$4,$2,34

$LVL237 = .
	.loc 1 828 0 discriminator 2
	li	$24,1023			# 0x3ff
	.loc 1 830 0 discriminator 2
	move	$4,$19
	.loc 1 828 0 discriminator 2
	sh	$24,32($sp)
$LVL238 = .
	.loc 1 829 0 discriminator 2
	li	$24,8448			# 0x2100
	.loc 1 830 0 discriminator 2
	jal	rtl_get_skb_data
	sh	$24,34($sp)

$LVL239 = .
	li	$6,4			# 0x4
	addiu	$4,$2,50
$LVL240 = .
	jal	memcpy
	addiu	$5,$sp,32

$LVL241 = .
	.loc 1 834 0 discriminator 2
	jal	sync_gre_tx_2_daemon
	nop

$LVL242 = .
	.loc 1 838 0 discriminator 2
	lw	$4,8($16)
	beq	$4,$0,$L176
	nop

$LBB69 = .
	.loc 1 842 0
	jal	rtl_getDevByIfp
	nop

$LVL243 = .
	.loc 1 845 0
	move	$4,$19
	move	$5,$2
$LVL244 = .
	jal	rtl_set_skb_dev
	move	$16,$2

$LVL245 = .
	.loc 1 861 0
	lhu	$24,58($18)
	andi	$24,$24,0x1
	beql	$24,$0,$L211
	lw	$24,48($16)

	.loc 1 863 0
	lw	$24,100($18)
	addiu	$24,$24,1
	sw	$24,100($18)
	.loc 1 866 0
	lw	$24,48($16)
$L211:
	move	$5,$16
	jalr	$24
	move	$4,$19

$LVL246 = .
$LBE69 = .
$LBE70 = .
	.loc 1 873 0
	j	$L171
	li	$2,1			# 0x1

$LVL247 = .
$L176:
$LBB71 = .
	.loc 1 870 0
	jal	kfree_skb
	move	$4,$19

$LVL248 = .
	.loc 1 873 0
	li	$2,1			# 0x1
$LVL249 = .
$L171:
$LBE71 = .
	.loc 1 876 0
	lw	$31,60($sp)
	lw	$19,56($sp)
$LVL250 = .
	lw	$18,52($sp)
$LVL251 = .
	lw	$17,48($sp)
	lw	$16,44($sp)
	j	$31
	addiu	$sp,$sp,64

	.cfi_def_cfa_offset 0
	.cfi_restore 16
	.cfi_restore 17
	.cfi_restore 18
	.cfi_restore 19
	.cfi_restore 31
$LVL252 = .
$L206:
	j	$31
	move	$2,$0

	.set	macro
	.set	reorder
	.end	fast_pptp_to_wan_skb
	.cfi_endproc
$LFE84:
	.size	fast_pptp_to_wan_skb, .-fast_pptp_to_wan_skb
	.section	.text.fast_pptp_to_wan_check,"ax",@progbits
	.align	2
	.globl	fast_pptp_to_wan_check
$LFB85 = .
	.loc 1 882 0
	.cfi_startproc
	.set	nomips16
	.set	nomicromips
	.ent	fast_pptp_to_wan_check
	.type	fast_pptp_to_wan_check, @function
fast_pptp_to_wan_check:
	.frame	$sp,24,$31		# vars= 0, regs= 2/0, args= 16, gp= 0
	.mask	0x80010000,-4
	.fmask	0x00000000,0
	.set	noreorder
	.set	nomacro
$LVL253 = .
	.loc 1 892 0
	lui	$24,%hi(fast_pptp_fw)
	lw	$24,%lo(fast_pptp_fw)($24)
	beq	$24,$0,$L223
	nop

	.loc 1 895 0
	lui	$24,%hi(ppp_comp_flag)
	lw	$24,%lo(ppp_comp_flag)($24)
	bne	$24,$0,$L223
	nop

	.loc 1 882 0
	addiu	$sp,$sp,-24
	.cfi_def_cfa_offset 24
	sw	$31,20($sp)
	sw	$16,16($sp)
	.cfi_offset 31, -4
	.cfi_offset 16, -8
	move	$16,$4
$LVL254 = .
	.loc 1 898 0
	jal	rtl_get_skb_dev
	move	$4,$5

$LVL255 = .
	bne	$2,$0,$L224
	nop

$L215:
	.loc 1 893 0
	j	$L214
	move	$2,$0

$L224:
	.loc 1 898 0 discriminator 1
	beq	$16,$0,$L215
	li	$24,23			# 0x17

	.loc 1 903 0
	lbu	$2,72($16)
	bne	$2,$24,$L214
	move	$2,$0

	.loc 1 908 0
	lui	$24,%hi(pptpAccInfo+68)
	lw	$2,%lo(pptpAccInfo+68)($24)
	sltu	$2,$0,$2
$L214:
	.loc 1 912 0
	lw	$31,20($sp)
	lw	$16,16($sp)
$LVL256 = .
	j	$31
	addiu	$sp,$sp,24

	.cfi_def_cfa_offset 0
	.cfi_restore 16
	.cfi_restore 31
$LVL257 = .
$L223:
	j	$31
	move	$2,$0

	.set	macro
	.set	reorder
	.end	fast_pptp_to_wan_check
	.cfi_endproc
$LFE85:
	.size	fast_pptp_to_wan_check, .-fast_pptp_to_wan_check
	.section	.text.fast_pptp_to_wan_skb2,"ax",@progbits
	.align	2
	.globl	fast_pptp_to_wan_skb2
$LFB86 = .
	.loc 1 918 0
	.cfi_startproc
	.set	nomips16
	.set	nomicromips
	.ent	fast_pptp_to_wan_skb2
	.type	fast_pptp_to_wan_skb2, @function
fast_pptp_to_wan_skb2:
	.frame	$sp,64,$31		# vars= 24, regs= 5/0, args= 16, gp= 0
	.mask	0x800f0000,-4
	.fmask	0x00000000,0
	.set	noreorder
	.set	nomacro
$LVL258 = .
	addiu	$sp,$sp,-64
	.cfi_def_cfa_offset 64
	sw	$31,60($sp)
	sw	$19,56($sp)
	sw	$18,52($sp)
	sw	$17,48($sp)
	sw	$16,44($sp)
	.cfi_offset 31, -4
	.cfi_offset 19, -8
	.cfi_offset 18, -12
	.cfi_offset 17, -16
	.cfi_offset 16, -20
$LVL259 = .
	.loc 1 928 0
	lui	$24,%hi(fast_pptp_fw)
	lw	$24,%lo(fast_pptp_fw)($24)
	beq	$24,$0,$L226
	move	$19,$5

	.loc 1 931 0
	lui	$24,%hi(ppp_comp_flag)
	lw	$24,%lo(ppp_comp_flag)($24)
	bne	$24,$0,$L226
	move	$18,$4

$LVL260 = .
	.loc 1 934 0
	jal	rtl_get_skb_dev
	move	$4,$5

$LVL261 = .
	beq	$2,$0,$L226
	nop

	.loc 1 934 0 is_stmt 0 discriminator 1
	beq	$18,$0,$L226
	li	$24,23			# 0x17

	.loc 1 939 0 is_stmt 1
	lbu	$2,72($18)
	bne	$2,$24,$L226
	lui	$16,%hi(pptpAccInfo)

	.loc 1 944 0
	addiu	$16,$16,%lo(pptpAccInfo)
	lw	$24,68($16)
	beq	$24,$0,$L226
	nop

	.loc 1 947 0
	lw	$24,4($16)
	beq	$24,$0,$L226
	nop

	.loc 1 947 0 is_stmt 0 discriminator 1
	lw	$24,44($16)
	beq	$24,$0,$L226
	nop

	.loc 1 947 0 discriminator 2
	lw	$24,8($16)
	beq	$24,$0,$L226
	nop

$LVL262 = .
$LBB83 = .
$LBB84 = .
$LBB85 = .
	.loc 2 464 0 is_stmt 1
	lw	$24,36($19)
	.loc 2 463 0
	lw	$17,16($19)
	.loc 2 464 0
	addiu	$24,$24,54
	.loc 2 463 0
	addiu	$4,$17,-54
	.loc 2 464 0
	sw	$24,36($19)
	.loc 2 463 0
	sw	$4,16($19)
	.loc 2 469 0
	lw	$24,84($19)
	beq	$24,$0,$L266
	li	$6,6			# 0x6

$LVL263 = .
$LBB86 = .
$LBB87 = .
	lw	$24,76($19)
	beq	$24,$0,$L266
	addiu	$24,$24,54

	.loc 2 470 0
	sw	$24,76($19)
$LVL264 = .
$LBE87 = .
$LBE86 = .
$LBE85 = .
$LBE84 = .
	.loc 1 953 0
	li	$6,6			# 0x6
$L266:
	jal	memcpy
	addiu	$5,$16,24

$LVL265 = .
	.loc 1 954 0
	addiu	$4,$17,-48
	li	$6,6			# 0x6
	jal	memcpy
	addiu	$5,$16,12

$LVL266 = .
	.loc 1 955 0
	li	$24,8			# 0x8
	sb	$0,-41($17)
$LVL267 = .
$LBB88 = .
	.loc 1 978 0
	move	$4,$19
$LBE88 = .
	.loc 1 955 0
	sb	$24,-42($17)
$LVL268 = .
$LBB89 = .
	.loc 1 978 0
	jal	rtl_get_skb_len
	lhu	$17,50($16)

$LVL269 = .
	addiu	$2,$2,-14
$LVL270 = .
	wsbh	$2,$2
	andi	$24,$2,0xffff
$LBE89 = .
$LBB90 = .
	.loc 1 979 0
	subu	$17,$17,$24
$LVL271 = .
	lhu	$24,58($16)
$LVL272 = .
	addu	$24,$17,$24
$LVL273 = .
	bgez	$24,$L228
	sh	$2,50($16)

$LVL274 = .
$LBE90 = .
$LBE83 = .
	.loc 1 979 0 is_stmt 0 discriminator 1
	j	$L264
	addiu	$24,$24,-1

$LVL275 = .
$L228:
$LBB97 = .
$LBB91 = .
	.loc 1 979 0 discriminator 2
	sra	$2,$24,16
	andi	$24,$24,0xffff
$LVL276 = .
	addu	$24,$2,$24
$LVL277 = .
	sra	$2,$24,16
$LVL278 = .
	addu	$24,$24,$2
$LVL279 = .
$L264:
	sh	$24,58($16)
$LBE91 = .
	.loc 1 980 0 is_stmt 1 discriminator 2
	jal	rtl_get_skb_data
	move	$4,$19

$LVL280 = .
	li	$6,20			# 0x14
	addiu	$5,$16,48
	jal	memcpy
	addiu	$4,$2,14

$LVL281 = .
	.loc 1 997 0 discriminator 2
	li	$24,48			# 0x30
$LBB92 = .
	.loc 1 1000 0 discriminator 2
	move	$4,$19
$LBE92 = .
	.loc 1 997 0 discriminator 2
	sb	$24,16($sp)
	.loc 1 998 0 discriminator 2
	li	$24,-127			# 0xffffffffffffff81
	sb	$24,17($sp)
$LVL282 = .
	.loc 1 999 0 discriminator 2
	li	$24,2952			# 0xb88
$LBB93 = .
	.loc 1 1000 0 discriminator 2
	jal	rtl_get_skb_len
	sh	$24,18($sp)

$LVL283 = .
$LBE93 = .
	.loc 1 1004 0 discriminator 2
	move	$4,$19
	.loc 1 1001 0 discriminator 2
	lhu	$24,18($16)
$LBB94 = .
	.loc 1 1000 0 discriminator 2
	addiu	$2,$2,-50
$LVL284 = .
	wsbh	$2,$2
$LBE94 = .
	.loc 1 1001 0 discriminator 2
	sh	$24,22($sp)
	.loc 1 1000 0 discriminator 2
	sh	$2,20($sp)
$LBB95 = .
	.loc 1 1002 0 discriminator 2
	lw	$24,36($16)
	addiu	$2,$24,1
	wsbh	$24,$24
	ror	$24,$24,16
	sw	$2,36($16)
$LBE95 = .
	sw	$24,24($sp)
$LVL285 = .
	lw	$24,40($16)
	wsbh	$24,$24
	ror	$24,$24,16
	.loc 1 1004 0 discriminator 2
	jal	rtl_get_skb_data
	sw	$24,28($sp)

$LVL286 = .
	li	$6,16			# 0x10
	addiu	$5,$sp,16
$LVL287 = .
	jal	memcpy
	addiu	$4,$2,34

$LVL288 = .
	.loc 1 1008 0 discriminator 2
	li	$24,1023			# 0x3ff
	.loc 1 1010 0 discriminator 2
	move	$4,$19
	.loc 1 1008 0 discriminator 2
	sh	$24,32($sp)
$LVL289 = .
	.loc 1 1009 0 discriminator 2
	li	$24,8448			# 0x2100
	.loc 1 1010 0 discriminator 2
	jal	rtl_get_skb_data
	sh	$24,34($sp)

$LVL290 = .
	li	$6,4			# 0x4
	addiu	$4,$2,50
$LVL291 = .
	jal	memcpy
	addiu	$5,$sp,32

$LVL292 = .
	.loc 1 1014 0 discriminator 2
	jal	sync_gre_tx_2_daemon
	nop

$LVL293 = .
	.loc 1 1018 0 discriminator 2
	lw	$4,8($16)
	beq	$4,$0,$L230
	nop

$LBB96 = .
	.loc 1 1022 0
	jal	rtl_getDevByIfp
	nop

$LVL294 = .
	.loc 1 1025 0
	move	$4,$19
	move	$5,$2
$LVL295 = .
	jal	rtl_set_skb_dev
	move	$16,$2

$LVL296 = .
	.loc 1 1041 0
	lhu	$24,58($18)
	andi	$24,$24,0x1
	beql	$24,$0,$L267
	lw	$24,48($16)

	.loc 1 1043 0
	lw	$24,100($18)
	addiu	$24,$24,1
	sw	$24,100($18)
	.loc 1 1046 0
	lw	$24,48($16)
$L267:
	move	$5,$16
	jalr	$24
	move	$4,$19

$LVL297 = .
$LBE96 = .
$LBE97 = .
	.loc 1 1053 0
	j	$L232
	li	$2,1			# 0x1

$LVL298 = .
$L230:
$LBB98 = .
	.loc 1 1050 0
	jal	kfree_skb
	move	$4,$19

$LVL299 = .
$LBE98 = .
	.loc 1 1053 0
	j	$L232
	li	$2,1			# 0x1

$LVL300 = .
$L226:
$LDL1 = .
	.loc 1 1057 0
	jal	kfree_skb
	move	$4,$19

$LVL301 = .
	.loc 1 1058 0
	move	$2,$0
$L232:
	.loc 1 1060 0
	lw	$31,60($sp)
	lw	$19,56($sp)
$LVL302 = .
	lw	$18,52($sp)
	lw	$17,48($sp)
	lw	$16,44($sp)
	j	$31
	addiu	$sp,$sp,64

	.cfi_def_cfa_offset 0
	.cfi_restore 16
	.cfi_restore 17
	.cfi_restore 18
	.cfi_restore 19
	.cfi_restore 31
	.set	macro
	.set	reorder
	.end	fast_pptp_to_wan_skb2
	.cfi_endproc
$LFE86:
	.size	fast_pptp_to_wan_skb2, .-fast_pptp_to_wan_skb2
	.section	.rodata.__FUNCTION__.5966,"a",@progbits
	.align	2
	.type	__FUNCTION__.5966, @object
	.size	__FUNCTION__.5966, 17
__FUNCTION__.5966:
	.ascii	"fast_pptp_to_wan\000"
	.globl	fast_pptp_fw
	.section	.bss.fast_pptp_fw,"aw",@nobits
	.align	2
	.type	fast_pptp_fw, @object
	.size	fast_pptp_fw, 4
fast_pptp_fw:
	.space	4
	.section	.bss.pptpAccInfo,"aw",@nobits
	.align	2
	.type	pptpAccInfo, @object
	.size	pptpAccInfo, 72
pptpAccInfo:
	.space	72
	.text
$Letext0:
	.file 3 "/home/kai_wang/release-ecos1.5.1/release_tool_v15/ecos_v1.5.1_20160706/gnutools/msdk-4.9.4/linux/newlib/lib/gcc/mips-elf/4.9.4/include/stddef.h"
	.file 4 "/home/kai_wang/release-ecos1.5.1/release_tool_v15/ecos_v1.5.1_20160706/ecos-work/97f-8812br-16M-gw_install/include/cyg/infra/cyg_type.h"
	.file 5 "/home/kai_wang/release-ecos1.5.1/release_tool_v15/ecos_v1.5.1_20160706/ecos-work/97f-8812br-16M-gw_install/include/sys/bsdtypes.h"
	.file 6 "/home/kai_wang/release-ecos1.5.1/release_tool_v15/ecos_v1.5.1_20160706/ecos-work/97f-8812br-16M-gw_install/include/time.h"
	.file 7 "/home/kai_wang/release-ecos1.5.1/release_tool_v15/ecos_v1.5.1_20160706/ecos-work/97f-8812br-16M-gw_install/include/cyg/libc/time/time.h"
	.file 8 "/home/kai_wang/release-ecos1.5.1/release_tool_v15/ecos_v1.5.1_20160706/ecos-work/97f-8812br-16M-gw_install/include/rtl/rtl_types.h"
	.file 9 "/home/kai_wang/release-ecos1.5.1/release_tool_v15/ecos_v1.5.1_20160706/ecos-work/97f-8812br-16M-gw_install/include/cyg/io/eth/rltk/819x/wrapper/sys_support.h"
	.file 10 "/home/kai_wang/release-ecos1.5.1/release_tool_v15/ecos_v1.5.1_20160706/ecos-work/97f-8812br-16M-gw_install/include/sys/socket.h"
	.file 11 "/home/kai_wang/release-ecos1.5.1/release_tool_v15/ecos_v1.5.1_20160706/ecos-work/97f-8812br-16M-gw_install/include/cyg/posix/sys/time.h"
	.file 12 "/home/kai_wang/release-ecos1.5.1/release_tool_v15/ecos_v1.5.1_20160706/ecos-work/97f-8812br-16M-gw_install/include/net/if_var.h"
	.file 13 "/home/kai_wang/release-ecos1.5.1/release_tool_v15/ecos_v1.5.1_20160706/ecos-work/97f-8812br-16M-gw_install/include/net/if.h"
	.file 14 "/home/kai_wang/release-ecos1.5.1/release_tool_v15/ecos_v1.5.1_20160706/ecos-work/97f-8812br-16M-gw_install/include/sys/mbuf.h"
	.file 15 "/home/kai_wang/release-ecos1.5.1/release_tool_v15/ecos_v1.5.1_20160706/ecos-work/97f-8812br-16M-gw_install/include/net/route.h"
	.file 16 "/home/kai_wang/release-ecos1.5.1/release_tool_v15/ecos_v1.5.1_20160706/ecos-work/97f-8812br-16M-gw_install/include/netinet/rtl_vlan.h"
	.file 17 "/home/kai_wang/release-ecos1.5.1/release_tool_v15/ecos_v1.5.1_20160706/ecos-work/97f-8812br-16M-gw_install/include/cyg/io/eth/rltk/819x/wrapper/wireless.h"
	.file 18 "/home/kai_wang/release-ecos1.5.1/release_tool_v15/ecos_v1.5.1_20160706/ecos-work/97f-8812br-16M-gw_install/include/netinet/ip.h"
	.file 19 "/home/kai_wang/release-ecos1.5.1/release_tool_v15/ecos_v1.5.1_20160706/ecos-work/97f-8812br-16M-gw_install/include/netinet/tcp.h"
	.file 20 "/home/kai_wang/release-ecos1.5.1/release_tool_v15/ecos_v1.5.1_20160706/ecos-work/97f-8812br-16M-gw_install/include/net/radix.h"
	.file 21 "/home/kai_wang/release-ecos1.5.1/release_tool_v15/ecos_v1.5.1_20160706/ecos-work/97f-8812br-16M-gw_install/include/net/ethernet.h"
	.file 22 "/home/kai_wang/release-ecos1.5.1/release_tool_v15/ecos_v1.5.1_20160706/ecos-work/97f-8812br-16M-gw_install/include/netinet/fastpath/fastpath_core.h"
	.file 23 "/home/kai_wang/release-ecos1.5.1/release_tool_v15/ecos_v1.5.1_20160706/ecos-work/97f-8812br-16M-gw_install/include/cyg/libc/time/time.inl"
	.file 24 "/home/kai_wang/release-ecos1.5.1/release_tool_v15/ecos_v1.5.1_20160706/ecos-work/97f-8812br-16M-gw_install/include/cyg/libc/time/timeutil.h"
	.file 25 "/home/kai_wang/release-ecos1.5.1/release_tool_v15/ecos_v1.5.1_20160706/ecos-work/97f-8812br-16M-gw_install/include/cyg/infra/diag.h"