	.section .mdebug.abi32
	.previous
	.nan	legacy
	.gnu_attribute 4, 3
	.text
$Ltext0:
	.cfi_sections	.debug_frame
	.section	.text.free_fragEntry,"ax",@progbits
	.align	2
$LFB73 = .
	.file 1 "/home/dingbin_lu/ecos_v1.5.1_20160706/ecos-work/../ecos-3.0/packages/net/bsd_tcpip/v3_0/src/sys/netinet/fastpath/fastpath_core.c"
	.loc 1 358 0
	.cfi_startproc
	.set	nomips16
	.set	nomicromips
	.ent	free_fragEntry
	.type	free_fragEntry, @function
free_fragEntry:
	.frame	$sp,0,$31		# vars= 0, regs= 0/0, args= 0, gp= 0
	.mask	0x00000000,0
	.fmask	0x00000000,0
	.set	noreorder
	.set	nomacro
$LVL0 = .
$LBB56 = .
$LBB57 = .
	.loc 1 350 0
	lw	$3,4($4)
	lw	$24,8($4)
	.loc 1 352 0
	lhu	$5,2($4)
	lw	$6,24($4)
	.loc 1 350 0
	xor	$24,$24,$3
$LVL1 = .
$LBE57 = .
$LBE56 = .
	.loc 1 361 0
	sb	$0,0($4)
$LBB59 = .
$LBB58 = .
	.loc 1 352 0
	srl	$3,$24,16
	xor	$24,$5,$24
$LVL2 = .
	xor	$3,$24,$3
$LVL3 = .
	.loc 1 353 0
	lbu	$24,1($4)
	srl	$2,$3,8
	xor	$3,$3,$24
$LVL4 = .
	.loc 1 354 0
	lui	$24,%hi(max_udp_frag_entry)
	.loc 1 353 0
	xor	$3,$3,$2
$LVL5 = .
	.loc 1 354 0
	lw	$24,%lo(max_udp_frag_entry)($24)
	addiu	$24,$24,-1
	and	$2,$3,$24
$LBE58 = .
$LBE59 = .
	.loc 1 362 0
	lw	$24,20($4)
	beq	$24,$0,$L2
	lui	$5,%hi(udp_cache_table)

	j	$L3
	sw	$6,24($24)

$L2:
	.loc 1 362 0 is_stmt 0 discriminator 2
	lw	$3,%lo(udp_cache_table)($5)
$LVL6 = .
	lw	$7,0($3)
	li	$3,12			# 0xc
	mul	$8,$2,$3
	addu	$3,$8,$7
	sw	$6,4($3)
$LVL7 = .
$L3:
	.loc 1 362 0 discriminator 4
	lw	$3,24($4)
	sw	$24,0($3)
	li	$3,12			# 0xc
	lw	$24,%lo(udp_cache_table)($5)
	mul	$5,$2,$3
	lw	$24,0($24)
	addu	$24,$5,$24
	lw	$2,8($24)
	addiu	$2,$2,-1
	sw	$2,8($24)
	.loc 1 363 0 is_stmt 1 discriminator 4
	lui	$24,%hi(udp_cache_list_free)
	sw	$0,28($4)
	addiu	$24,$24,%lo(udp_cache_list_free)
	lw	$2,4($24)
	sw	$2,32($4)
	sw	$4,0($2)
	addiu	$4,$4,28
$LVL8 = .
	lw	$2,8($24)
$LVL9 = .
	sw	$4,4($24)
	addiu	$2,$2,1
	j	$31
	sw	$2,8($24)

	.set	macro
	.set	reorder
	.end	free_fragEntry
	.cfi_endproc
$LFE73:
	.size	free_fragEntry, .-free_fragEntry
	.section	.text.FastPath_Hash_PATH_Entry,"ax",@progbits
	.align	2
$LFB79 = .
	.loc 1 585 0
	.cfi_startproc
	.set	nomips16
	.set	nomicromips
	.ent	FastPath_Hash_PATH_Entry
	.type	FastPath_Hash_PATH_Entry, @function
FastPath_Hash_PATH_Entry:
	.frame	$sp,0,$31		# vars= 0, regs= 0/0, args= 0, gp= 0
	.mask	0x00000000,0
	.fmask	0x00000000,0
	.set	noreorder
	.set	nomacro
$LVL10 = .
	.loc 1 585 0
	lhu	$24,16($sp)
	.loc 1 598 0
	srl	$5,$5,4
$LVL11 = .
	xor	$7,$24,$7
$LVL12 = .
	xor	$7,$7,$6
	.loc 1 601 0
	lui	$24,%hi(path_table_list_max)
	xor	$7,$7,$5
	.loc 1 597 0
	srl	$6,$6,16
$LVL13 = .
	xor	$7,$7,$4
	.loc 1 601 0
	lw	$24,%lo(path_table_list_max)($24)
	.loc 1 596 0
	srl	$4,$4,8
$LVL14 = .
	xor	$7,$7,$6
	.loc 1 600 0
	xor	$4,$7,$4
$LVL15 = .
	.loc 1 601 0
	srl	$2,$4,12
	addiu	$24,$24,-1
	xor	$2,$2,$4
	.loc 1 605 0
	j	$31
	and	$2,$2,$24

	.set	macro
	.set	reorder
	.end	FastPath_Hash_PATH_Entry
	.cfi_endproc
$LFE79:
	.size	FastPath_Hash_PATH_Entry, .-FastPath_Hash_PATH_Entry
	.section	.text.cache_timeout,"ax",@progbits
	.align	2
$LFB74 = .
	.loc 1 369 0
	.cfi_startproc
	.set	nomips16
	.set	nomicromips
	.ent	cache_timeout
	.type	cache_timeout, @function
cache_timeout:
	.frame	$sp,48,$31		# vars= 0, regs= 7/0, args= 16, gp= 0
	.mask	0x803f0000,-4
	.fmask	0x00000000,0
	.set	noreorder
	.set	nomacro
	addiu	$sp,$sp,-48
	.cfi_def_cfa_offset 48
	sw	$31,44($sp)
	sw	$21,40($sp)
	sw	$20,36($sp)
	sw	$19,32($sp)
	sw	$18,28($sp)
	sw	$17,24($sp)
	sw	$16,20($sp)
	.cfi_offset 31, -4
	.cfi_offset 21, -8
	.cfi_offset 20, -12
	.cfi_offset 19, -16
	.cfi_offset 18, -20
	.cfi_offset 17, -24
	.cfi_offset 16, -28
	.loc 1 374 0
	jal	rtl_getTimeStamp
	move	$17,$0

$LVL16 = .
	.loc 1 377 0
	lui	$20,%hi(udp_cache_table)
	.loc 1 379 0
	li	$21,1			# 0x1
	.loc 1 375 0
	li	$18,768			# 0x300
	.loc 1 374 0
	move	$19,$2
$LVL17 = .
	.loc 1 377 0
	lw	$24,%lo(udp_cache_table)($20)
$L14:
	lw	$24,0($24)
	addu	$24,$24,$17
	lw	$16,0($24)
$LVL18 = .
$L7:
	.loc 1 377 0 is_stmt 0 discriminator 1
	beql	$16,$0,$L13
	addiu	$17,$17,12

	.loc 1 379 0 is_stmt 1
	lw	$24,16($16)
	addiu	$24,$24,10
	sltu	$24,$24,$19
	beql	$24,$0,$L7
	lw	$16,20($16)

	.loc 1 379 0 is_stmt 0 discriminator 1
	lbu	$24,0($16)
	bnel	$24,$21,$L7
	lw	$16,20($16)

	.loc 1 381 0 is_stmt 1
	jal	free_fragEntry
	move	$4,$16

$LVL19 = .
	.loc 1 377 0 discriminator 2
	j	$L7
	lw	$16,20($16)

$L13:
	.loc 1 375 0 discriminator 2
	bne	$17,$18,$L14
	lw	$24,%lo(udp_cache_table)($20)

	.loc 1 386 0
	lui	$24,%hi(cyg_hz)
	lui	$6,%hi(cache_timeout)
	lui	$4,%hi(udp_frag_cache_timer)
	lw	$24,%lo(cyg_hz)($24)
	move	$7,$0
	addiu	$6,$6,%lo(cache_timeout)
	addiu	$4,$4,%lo(udp_frag_cache_timer)
	sll	$5,$24,2
	jal	cyg_callout_reset
	addu	$5,$5,$24

$LVL20 = .
	.loc 1 388 0
	lw	$31,44($sp)
	lw	$21,40($sp)
	lw	$20,36($sp)
	lw	$19,32($sp)
$LVL21 = .
	lw	$18,28($sp)
	lw	$17,24($sp)
	lw	$16,20($sp)
$LVL22 = .
	j	$31
	addiu	$sp,$sp,48

	.cfi_def_cfa_offset 0
	.cfi_restore 16
	.cfi_restore 17
	.cfi_restore 18
	.cfi_restore 19
	.cfi_restore 20
	.cfi_restore 21
	.cfi_restore 31
	.set	macro
	.set	reorder
	.end	cache_timeout
	.cfi_endproc
$LFE74:
	.size	cache_timeout, .-cache_timeout
	.section	.text.unlikely.add_fragEntry,"ax",@progbits
	.align	2
$LFB78 = .
	.loc 1 476 0
	.cfi_startproc
	.set	nomips16
	.set	nomicromips
	.ent	add_fragEntry
	.type	add_fragEntry, @function
add_fragEntry:
	.frame	$sp,24,$31		# vars= 0, regs= 2/0, args= 16, gp= 0
	.mask	0x80010000,-4
	.fmask	0x00000000,0
	.set	noreorder
	.set	nomacro
$LVL23 = .
	addiu	$sp,$sp,-24
	.cfi_def_cfa_offset 24
	sw	$31,20($sp)
	sw	$16,16($sp)
	.cfi_offset 31, -4
	.cfi_offset 16, -8
$LVL24 = .
$LBB62 = .
$LBB63 = .
	.loc 1 350 0
	xor	$2,$5,$7
	.loc 1 352 0
	srl	$24,$2,16
$LBE63 = .
$LBE62 = .
	.loc 1 476 0
	lbu	$8,44($sp)
$LVL25 = .
	.loc 1 480 0
	lui	$3,%hi(udp_cache_list_free)
	.loc 1 476 0
	lhu	$9,40($sp)
	xor	$24,$24,$2
$LBB66 = .
$LBB64 = .
	.loc 1 352 0
	xor	$24,$24,$4
$LVL26 = .
	.loc 1 353 0
	srl	$2,$24,8
$LBE64 = .
$LBE66 = .
	.loc 1 480 0
	lw	$16,%lo(udp_cache_list_free)($3)
	xor	$24,$24,$8
$LVL27 = .
$LBB67 = .
$LBB65 = .
	.loc 1 353 0
	xor	$2,$24,$2
$LVL28 = .
	.loc 1 354 0
	lui	$24,%hi(max_udp_frag_entry)
	lw	$24,%lo(max_udp_frag_entry)($24)
	addiu	$24,$24,-1
	and	$24,$2,$24
$LVL29 = .
$LBE65 = .
$LBE67 = .
	.loc 1 480 0
	beq	$16,$0,$L16
	move	$2,$0

$LVL30 = .
	.loc 1 494 0
	li	$2,1			# 0x1
	.loc 1 488 0
	sh	$4,2($16)
	.loc 1 489 0
	sw	$5,4($16)
	.loc 1 490 0
	sw	$7,8($16)
	.loc 1 494 0
	sb	$2,0($16)
	addiu	$2,$3,%lo(udp_cache_list_free)
	.loc 1 491 0
	sb	$8,1($16)
	.loc 1 492 0
	sh	$6,12($16)
	.loc 1 493 0
	sh	$9,14($16)
	.loc 1 495 0
	lw	$4,28($16)
$LVL31 = .
	beq	$4,$0,$L17
	lw	$5,32($16)

	j	$L18
	sw	$5,32($4)

$L17:
	.loc 1 495 0 is_stmt 0 discriminator 2
	sw	$5,4($2)
$L18:
	.loc 1 495 0 discriminator 4
	lw	$3,32($16)
	sw	$4,0($3)
	lw	$3,8($2)
	.loc 1 496 0 is_stmt 1 discriminator 4
	sw	$0,20($16)
	.loc 1 495 0 discriminator 4
	addiu	$3,$3,-1
	sw	$3,8($2)
	.loc 1 496 0 discriminator 4
	lui	$3,%hi(udp_cache_table)
	li	$2,12			# 0xc
	mul	$24,$24,$2
	lw	$2,%lo(udp_cache_table)($3)
	lw	$2,0($2)
	addu	$2,$2,$24
	lw	$2,4($2)
	sw	$2,24($16)
	sw	$16,0($2)
	lw	$2,%lo(udp_cache_table)($3)
	lw	$2,0($2)
	addu	$24,$2,$24
	addiu	$2,$16,20
	sw	$2,4($24)
	lw	$2,8($24)
	addiu	$2,$2,1
	.loc 1 499 0 discriminator 4
	jal	rtl_getTimeStamp
	sw	$2,8($24)

$LVL32 = .
	sw	$2,16($16)
	.loc 1 505 0 discriminator 4
	li	$2,1			# 0x1
$LVL33 = .
$L16:
	.loc 1 506 0
	lw	$31,20($sp)
	lw	$16,16($sp)
$LVL34 = .
	j	$31
	addiu	$sp,$sp,24

	.cfi_def_cfa_offset 0
	.cfi_restore 16
	.cfi_restore 31
	.set	macro
	.set	reorder
	.end	add_fragEntry
	.cfi_endproc
$LFE78:
	.size	add_fragEntry, .-add_fragEntry
	.section	.text.find_fragEntry,"ax",@progbits
	.align	2
$LFB77 = .
	.loc 1 454 0
	.cfi_startproc
	.set	nomips16
	.set	nomicromips
	.ent	find_fragEntry
	.type	find_fragEntry, @function
find_fragEntry:
	.frame	$sp,24,$31		# vars= 0, regs= 2/0, args= 16, gp= 0
	.mask	0x80010000,-4
	.fmask	0x00000000,0
	.set	noreorder
	.set	nomacro
$LVL35 = .
	addiu	$sp,$sp,-24
	.cfi_def_cfa_offset 24
	sw	$31,20($sp)
	sw	$16,16($sp)
	.cfi_offset 31, -4
	.cfi_offset 16, -8
$LVL36 = .
$LBB70 = .
$LBB71 = .
	.loc 1 350 0
	xor	$2,$5,$6
$LVL37 = .
	.loc 1 352 0
	srl	$24,$2,16
$LBE71 = .
$LBE70 = .
	.loc 1 458 0
	lui	$3,%hi(udp_cache_table)
	xor	$24,$24,$2
$LBB74 = .
$LBB72 = .
	.loc 1 352 0
	xor	$24,$24,$4
$LVL38 = .
	.loc 1 353 0
	srl	$2,$24,8
$LBE72 = .
$LBE74 = .
	.loc 1 458 0
	lw	$8,%lo(udp_cache_table)($3)
	xor	$24,$24,$7
$LVL39 = .
$LBB75 = .
$LBB73 = .
	.loc 1 353 0
	xor	$3,$24,$2
$LVL40 = .
	.loc 1 354 0
	lui	$24,%hi(max_udp_frag_entry)
	lw	$24,%lo(max_udp_frag_entry)($24)
	addiu	$24,$24,-1
	and	$2,$3,$24
$LBE73 = .
$LBE75 = .
	.loc 1 458 0
	lw	$24,0($8)
	li	$3,12			# 0xc
$LVL41 = .
	mul	$8,$2,$3
	addu	$24,$8,$24
	lw	$16,0($24)
$LVL42 = .
	.loc 1 463 0
	li	$24,1			# 0x1
$L22:
	.loc 1 458 0 discriminator 1
	beq	$16,$0,$L27
	move	$2,$0

	.loc 1 460 0
	lhu	$2,2($16)
	bnel	$2,$4,$L22
	lw	$16,20($16)

	.loc 1 460 0 is_stmt 0 discriminator 1
	lw	$2,4($16)
	bnel	$2,$5,$L22
	lw	$16,20($16)

	.loc 1 461 0 is_stmt 1
	lw	$2,8($16)
	bnel	$2,$6,$L22
	lw	$16,20($16)

	.loc 1 462 0
	lbu	$2,1($16)
	bnel	$2,$7,$L22
	lw	$16,20($16)

	.loc 1 463 0
	lbu	$2,0($16)
	bnel	$2,$24,$L22
	lw	$16,20($16)

	.loc 1 467 0
	jal	rtl_getTimeStamp
	nop

$LVL43 = .
	sw	$2,16($16)
	move	$2,$16
$LVL44 = .
$L27:
	.loc 1 473 0
	lw	$31,20($sp)
	lw	$16,16($sp)
$LVL45 = .
	j	$31
	addiu	$sp,$sp,24

	.cfi_def_cfa_offset 0
	.cfi_restore 16
	.cfi_restore 31
	.set	macro
	.set	reorder
	.end	find_fragEntry
	.cfi_endproc
$LFE77:
	.size	find_fragEntry, .-find_fragEntry
	.section	.text.udp_fragCache_init,"ax",@progbits
	.align	2
	.globl	udp_fragCache_init
$LFB76 = .
	.loc 1 412 0
	.cfi_startproc
	.set	nomips16
	.set	nomicromips
	.ent	udp_fragCache_init
	.type	udp_fragCache_init, @function
udp_fragCache_init:
	.frame	$sp,40,$31		# vars= 0, regs= 5/0, args= 16, gp= 0
	.mask	0x800f0000,-4
	.fmask	0x00000000,0
	.set	noreorder
	.set	nomacro
$LVL46 = .
	addiu	$sp,$sp,-40
	.cfi_def_cfa_offset 40
	sw	$31,36($sp)
	sw	$19,32($sp)
	sw	$18,28($sp)
	sw	$17,24($sp)
	sw	$16,20($sp)
	.cfi_offset 31, -4
	.cfi_offset 19, -8
	.cfi_offset 18, -12
	.cfi_offset 17, -16
	.cfi_offset 16, -20
	.loc 1 414 0
	li	$6,1			# 0x1
	.loc 1 412 0
	move	$17,$4
	.loc 1 414 0
	li	$5,3			# 0x3
	li	$4,4			# 0x4
$LVL47 = .
	jal	cyg_net_malloc
	lui	$19,%hi(udp_cache_table)

$LVL48 = .
	move	$18,$2
	.loc 1 415 0
	bne	$2,$0,$L29
	sw	$2,%lo(udp_cache_table)($19)

$L34:
	.loc 1 417 0
	j	$L30
	move	$2,$0

$L29:
	.loc 1 422 0
	li	$4,12			# 0xc
	.loc 1 419 0
	lui	$24,%hi(udp_cache_list_free)
	.loc 1 422 0
	mul	$4,$17,$4
	.loc 1 419 0
	addiu	$16,$24,%lo(udp_cache_list_free)
	sw	$0,%lo(udp_cache_list_free)($24)
	.loc 1 422 0
	li	$6,1			# 0x1
	.loc 1 421 0
	lui	$24,%hi(max_udp_frag_entry)
	.loc 1 419 0
	sw	$0,8($16)
	.loc 1 422 0
	li	$5,3			# 0x3
	.loc 1 419 0
	sw	$16,4($16)
	.loc 1 422 0
	jal	cyg_net_malloc
	sw	$17,%lo(max_udp_frag_entry)($24)

$LVL49 = .
	sw	$2,0($18)
	.loc 1 423 0
	lw	$24,%lo(udp_cache_table)($19)
	lw	$24,0($24)
	beq	$24,$0,$L30
	li	$2,-1			# 0xffffffffffffffff

	move	$2,$0
$L31:
$LVL50 = .
	.loc 1 427 0 discriminator 1
	slt	$3,$2,$17
	beq	$3,$0,$L41
	addiu	$2,$2,1

	.loc 1 428 0 discriminator 3
	sw	$0,8($24)
$LVL51 = .
	sw	$0,0($24)
	sw	$24,4($24)
	j	$L31
	addiu	$24,$24,12

$L41:
	move	$18,$0
$LVL52 = .
$L33:
	.loc 1 430 0 discriminator 1
	slt	$24,$18,$17
	beq	$24,$0,$L42
	li	$6,1			# 0x1

$LBB76 = .
	.loc 1 431 0
	li	$5,3			# 0x3
	jal	cyg_net_malloc
	li	$4,36			# 0x24

$LVL53 = .
	.loc 1 432 0
	beq	$2,$0,$L34
	addiu	$18,$18,1

	.loc 1 443 0 discriminator 2
	lw	$24,4($16)
$LVL54 = .
	sw	$0,28($2)
	sw	$24,32($2)
	sw	$2,0($24)
	addiu	$2,$2,28
$LVL55 = .
	lw	$24,8($16)
$LVL56 = .
	sw	$2,4($16)
	addiu	$24,$24,1
$LBE76 = .
	j	$L33
	sw	$24,8($16)

$LVL57 = .
$L42:
	.loc 1 447 0
	lui	$16,%hi(udp_frag_cache_timer)
	jal	cyg_callout_init
	addiu	$4,$16,%lo(udp_frag_cache_timer)

$LVL58 = .
	.loc 1 448 0
	lui	$24,%hi(cyg_hz)
	lui	$6,%hi(cache_timeout)
	move	$7,$0
	lw	$24,%lo(cyg_hz)($24)
	addiu	$6,$6,%lo(cache_timeout)
	addiu	$4,$16,%lo(udp_frag_cache_timer)
	sll	$5,$24,2
	jal	cyg_callout_reset
	addu	$5,$5,$24

$LVL59 = .
	.loc 1 450 0
	li	$2,1			# 0x1
$LVL60 = .
$L30:
	.loc 1 451 0
	lw	$31,36($sp)
	lw	$19,32($sp)
	lw	$18,28($sp)
	lw	$17,24($sp)
$LVL61 = .
	lw	$16,20($sp)
	j	$31
	addiu	$sp,$sp,40

	.cfi_def_cfa_offset 0
	.cfi_restore 16
	.cfi_restore 17
	.cfi_restore 18
	.cfi_restore 19
	.cfi_restore 31
	.set	macro
	.set	reorder
	.end	udp_fragCache_init
	.cfi_endproc
$LFE76:
	.size	udp_fragCache_init, .-udp_fragCache_init
	.section	.text.rtk_addArp,"ax",@progbits
	.align	2
	.globl	rtk_addArp
$LFB80 = .
	.loc 1 638 0
	.cfi_startproc
	.set	nomips16
	.set	nomicromips
	.ent	rtk_addArp
	.type	rtk_addArp, @function
rtk_addArp:
	.frame	$sp,0,$31		# vars= 0, regs= 0/0, args= 0, gp= 0
	.mask	0x00000000,0
	.fmask	0x00000000,0
	.set	noreorder
	.set	nomacro
$LVL62 = .
	.loc 1 669 0
	j	$31
	move	$2,$0

	.set	macro
	.set	reorder
	.end	rtk_addArp
	.cfi_endproc
$LFE80:
	.size	rtk_addArp, .-rtk_addArp
	.section	.text.rtk_modifyArp,"ax",@progbits
	.align	2
	.globl	rtk_modifyArp
$LFB81 = .
	.loc 1 675 0
	.cfi_startproc
	.set	nomips16
	.set	nomicromips
	.ent	rtk_modifyArp
	.type	rtk_modifyArp, @function
rtk_modifyArp:
	.frame	$sp,0,$31		# vars= 0, regs= 0/0, args= 0, gp= 0
	.mask	0x00000000,0
	.fmask	0x00000000,0
	.set	noreorder
	.set	nomacro
$LVL63 = .
	.loc 1 691 0
	j	$31
	move	$2,$0

	.set	macro
	.set	reorder
	.end	rtk_modifyArp
	.cfi_endproc
$LFE81:
	.size	rtk_modifyArp, .-rtk_modifyArp
	.section	.text.rtk_delArp,"ax",@progbits
	.align	2
	.globl	rtk_delArp
$LFB82 = .
	.loc 1 698 0
	.cfi_startproc
	.set	nomips16
	.set	nomicromips
	.ent	rtk_delArp
	.type	rtk_delArp, @function
rtk_delArp:
	.frame	$sp,0,$31		# vars= 0, regs= 0/0, args= 0, gp= 0
	.mask	0x00000000,0
	.fmask	0x00000000,0
	.set	noreorder
	.set	nomacro
$LVL64 = .
	.loc 1 716 0
	j	$31
	li	$2,-4			# 0xfffffffffffffffc

	.set	macro
	.set	reorder
	.end	rtk_delArp
	.cfi_endproc
$LFE82:
	.size	rtk_delArp, .-rtk_delArp
	.section	.text.rtk_addRoute,"ax",@progbits
	.align	2
	.globl	rtk_addRoute
$LFB83 = .
	.loc 1 724 0
	.cfi_startproc
	.set	nomips16
	.set	nomicromips
	.ent	rtk_addRoute
	.type	rtk_addRoute, @function
rtk_addRoute:
	.frame	$sp,0,$31		# vars= 0, regs= 0/0, args= 0, gp= 0
	.mask	0x00000000,0
	.fmask	0x00000000,0
	.set	noreorder
	.set	nomacro
$LVL65 = .
	.loc 1 749 0
	j	$31
	move	$2,$0

	.set	macro
	.set	reorder
	.end	rtk_addRoute
	.cfi_endproc
$LFE83:
	.size	rtk_addRoute, .-rtk_addRoute
	.section	.text.rtk_modifyRoute,"ax",@progbits
	.align	2
	.globl	rtk_modifyRoute
$LFB84 = .
	.loc 1 757 0
	.cfi_startproc
	.set	nomips16
	.set	nomicromips
	.ent	rtk_modifyRoute
	.type	rtk_modifyRoute, @function
rtk_modifyRoute:
	.frame	$sp,0,$31		# vars= 0, regs= 0/0, args= 0, gp= 0
	.mask	0x00000000,0
	.fmask	0x00000000,0
	.set	noreorder
	.set	nomacro
$LVL66 = .
	.loc 1 780 0
	j	$31
	move	$2,$0

	.set	macro
	.set	reorder
	.end	rtk_modifyRoute
	.cfi_endproc
$LFE84:
	.size	rtk_modifyRoute, .-rtk_modifyRoute
	.section	.text.rtk_delRoute,"ax",@progbits
	.align	2
	.globl	rtk_delRoute
$LFB85 = .
	.loc 1 784 0
	.cfi_startproc
	.set	nomips16
	.set	nomicromips
	.ent	rtk_delRoute
	.type	rtk_delRoute, @function
rtk_delRoute:
	.frame	$sp,0,$31		# vars= 0, regs= 0/0, args= 0, gp= 0
	.mask	0x00000000,0
	.fmask	0x00000000,0
	.set	noreorder
	.set	nomacro
$LVL67 = .
	.loc 1 804 0
	j	$31
	li	$2,-4			# 0xfffffffffffffffc

	.set	macro
	.set	reorder
	.end	rtk_delRoute
	.cfi_endproc
$LFE85:
	.size	rtk_delRoute, .-rtk_delRoute
	.section	.text.rtk_addSession,"ax",@progbits
	.align	2
	.globl	rtk_addSession
$LFB86 = .
	.loc 1 811 0
	.cfi_startproc
	.set	nomips16
	.set	nomicromips
	.ent	rtk_addSession
	.type	rtk_addSession, @function
rtk_addSession:
	.frame	$sp,0,$31		# vars= 0, regs= 0/0, args= 0, gp= 0
	.mask	0x00000000,0
	.fmask	0x00000000,0
	.set	noreorder
	.set	nomacro
$LVL68 = .
	.loc 1 813 0
	j	$31
	move	$2,$0

	.set	macro
	.set	reorder
	.end	rtk_addSession
	.cfi_endproc
$LFE86:
	.size	rtk_addSession, .-rtk_addSession
	.section	.text.rtk_delSession,"ax",@progbits
	.align	2
	.globl	rtk_delSession
$LFB87 = .
	.loc 1 817 0
	.cfi_startproc
	.set	nomips16
	.set	nomicromips
	.ent	rtk_delSession
	.type	rtk_delSession, @function
rtk_delSession:
	.frame	$sp,0,$31		# vars= 0, regs= 0/0, args= 0, gp= 0
	.mask	0x00000000,0
	.fmask	0x00000000,0
	.set	noreorder
	.set	nomacro
$LVL69 = .
	.loc 1 819 0
	j	$31
	move	$2,$0

	.set	macro
	.set	reorder
	.end	rtk_delSession
	.cfi_endproc
$LFE87:
	.size	rtk_delSession, .-rtk_delSession
	.section	.text.rtk_delNaptConnection,"ax",@progbits
	.align	2
	.globl	rtk_delNaptConnection
$LFB89 = .
	.loc 1 1304 0
	.cfi_startproc
	.set	nomips16
	.set	nomicromips
	.ent	rtk_delNaptConnection
	.type	rtk_delNaptConnection, @function
rtk_delNaptConnection:
	.frame	$sp,72,$31		# vars= 8, regs= 10/0, args= 24, gp= 0
	.mask	0xc0ff0000,-4
	.fmask	0x00000000,0
	.set	noreorder
	.set	nomacro
$LVL70 = .
	addiu	$sp,$sp,-72
	.cfi_def_cfa_offset 72
	sw	$31,68($sp)
	sw	$fp,64($sp)
	sw	$23,60($sp)
	sw	$22,56($sp)
	sw	$21,52($sp)
	sw	$20,48($sp)
	sw	$19,44($sp)
	sw	$18,40($sp)
	sw	$17,36($sp)
	sw	$16,32($sp)
	.cfi_offset 31, -4
	.cfi_offset 30, -8
	.cfi_offset 23, -12
	.cfi_offset 22, -16
	.cfi_offset 21, -20
	.cfi_offset 20, -24
	.cfi_offset 19, -28
	.cfi_offset 18, -32
	.cfi_offset 17, -36
	.cfi_offset 16, -40
	.loc 1 1327 0
	li	$2,17			# 0x11
	.loc 1 1324 0
	lw	$19,0($4)
	.loc 1 1304 0
	move	$17,$4
	.loc 1 1359 0
	lui	$18,%hi(table_path)
	li	$21,12			# 0xc
	.loc 1 1327 0
	xori	$24,$19,0x2
	li	$19,6			# 0x6
$LVL71 = .
	.loc 1 1330 0
	jal	cyg_splimp
	movn	$19,$2,$24

$LVL72 = .
	.loc 1 1335 0
	lw	$4,20($17)
$LVL73 = .
	jal	filter_delconnect
	move	$20,$2

$LVL74 = .
	.loc 1 1358 0
	lw	$3,24($17)
	lw	$22,4($17)
	lw	$23,8($17)
	lw	$fp,20($17)
	move	$7,$3
	sw	$19,16($sp)
	move	$4,$22
	move	$5,$23
	sw	$3,24($sp)
	jal	FastPath_Hash_PATH_Entry
	move	$6,$fp

$LVL75 = .
	.loc 1 1359 0
	mul	$21,$2,$21
	lw	$24,%lo(table_path)($18)
	lw	$3,24($sp)
	lw	$24,0($24)
	addu	$24,$24,$21
	lw	$16,0($24)
$LVL76 = .
	.loc 1 1363 0
	li	$24,1			# 0x1
$LVL77 = .
$L53:
	.loc 1 1359 0 discriminator 1
	beql	$16,$0,$L71
	lw	$21,20($17)

	.loc 1 1363 0
	lw	$4,4($16)
	lw	$2,0($17)
	bnel	$4,$2,$L53
	lw	$16,60($16)

	.loc 1 1363 0 is_stmt 0 discriminator 1
	lbu	$2,2($16)
	bnel	$2,$24,$L53
	lw	$16,60($16)

	.loc 1 1364 0 is_stmt 1
	lw	$2,16($16)
	bnel	$2,$22,$L53
	lw	$16,60($16)

	.loc 1 1365 0
	lw	$2,12($16)
	bnel	$2,$23,$L53
	lw	$16,60($16)

	.loc 1 1366 0
	lw	$4,24($16)
	lw	$2,12($17)
	bnel	$4,$2,$L53
	lw	$16,60($16)

	.loc 1 1367 0
	lw	$4,28($16)
	lw	$2,16($17)
	bnel	$4,$2,$L53
	lw	$16,60($16)

	.loc 1 1368 0
	lw	$2,20($16)
	bnel	$2,$fp,$L53
	lw	$16,60($16)

	.loc 1 1369 0
	lw	$2,8($16)
	bnel	$2,$3,$L53
	lw	$16,60($16)

$LBB77 = .
	.loc 1 1379 0
	sb	$0,0($16)
	.loc 1 1394 0
	jal	rtk_delNaptQosRuleEntry
	move	$4,$16

$LVL78 = .
	.loc 1 1397 0
	lw	$24,60($16)
	beq	$24,$0,$L55
	lw	$3,64($16)

	j	$L56
	sw	$3,64($24)

$L55:
	.loc 1 1397 0 is_stmt 0 discriminator 2
	lw	$2,%lo(table_path)($18)
	lw	$2,0($2)
	addu	$2,$2,$21
	sw	$3,4($2)
$L56:
	.loc 1 1397 0 discriminator 4
	lw	$2,64($16)
	sw	$24,0($2)
	lw	$24,%lo(table_path)($18)
	.loc 1 1398 0 is_stmt 1 discriminator 4
	lw	$2,68($16)
	lw	$3,72($16)
	.loc 1 1397 0 discriminator 4
	lw	$24,0($24)
	addu	$21,$24,$21
	lw	$24,8($21)
	addiu	$24,$24,-1
	sw	$24,8($21)
	lui	$24,%hi(path_list_inuse)
	.loc 1 1398 0 discriminator 4
	beq	$2,$0,$L57
	addiu	$24,$24,%lo(path_list_inuse)

	j	$L58
	sw	$3,72($2)

$L57:
	.loc 1 1398 0 is_stmt 0 discriminator 2
	sw	$3,4($24)
$L58:
	.loc 1 1398 0 discriminator 4
	lw	$3,72($16)
	sw	$2,0($3)
	lw	$2,8($24)
	.loc 1 1399 0 is_stmt 1 discriminator 4
	sw	$0,68($16)
	.loc 1 1398 0 discriminator 4
	addiu	$2,$2,-1
	sw	$2,8($24)
	.loc 1 1399 0 discriminator 4
	lui	$24,%hi(path_list_free)
	addiu	$24,$24,%lo(path_list_free)
	lw	$2,4($24)
	sw	$2,72($16)
	sw	$16,0($2)
	addiu	$16,$16,68
$LVL79 = .
	lw	$2,8($24)
$LVL80 = .
	sw	$16,4($24)
	addiu	$2,$2,1
	sw	$2,8($24)
$LVL81 = .
$LBE77 = .
	.loc 1 1405 0
	lw	$21,20($17)
$L71:
	lw	$22,24($17)
	lw	$23,12($17)
	lw	$fp,16($17)
	move	$4,$21
	sw	$19,16($sp)
	move	$5,$22
	move	$6,$23
	move	$7,$fp
$LVL82 = .
	jal	FastPath_Hash_PATH_Entry
	li	$19,12			# 0xc

$LVL83 = .
	.loc 1 1406 0
	lw	$24,%lo(table_path)($18)
	mul	$19,$2,$19
	lw	$24,0($24)
	addu	$24,$24,$19
	lw	$16,0($24)
$LVL84 = .
	.loc 1 1410 0
	li	$24,2			# 0x2
$LVL85 = .
$L61:
	.loc 1 1406 0 discriminator 1
	beq	$16,$0,$L72
	lui	$2,%hi(fast_path_entry_count)

	.loc 1 1410 0
	lw	$3,4($16)
	lw	$2,0($17)
	bnel	$3,$2,$L61
	lw	$16,60($16)

	.loc 1 1410 0 is_stmt 0 discriminator 1
	lbu	$2,2($16)
	bnel	$2,$24,$L61
	lw	$16,60($16)

	.loc 1 1411 0 is_stmt 1
	lw	$2,20($16)
	bnel	$2,$23,$L61
	lw	$16,60($16)

	.loc 1 1412 0
	lw	$2,8($16)
	bnel	$2,$fp,$L61
	lw	$16,60($16)

	.loc 1 1413 0
	lw	$2,24($16)
	bnel	$2,$21,$L61
	lw	$16,60($16)

	.loc 1 1414 0
	lw	$2,28($16)
	bnel	$2,$22,$L61
	lw	$16,60($16)

	.loc 1 1415 0
	lw	$3,32($16)
	lw	$2,4($17)
	bnel	$3,$2,$L61
	lw	$16,60($16)

	.loc 1 1416 0
	lw	$3,36($16)
	lw	$2,8($17)
	bnel	$3,$2,$L61
	lw	$16,60($16)

$LBB78 = .
	.loc 1 1425 0
	sb	$0,0($16)
	.loc 1 1442 0
	jal	rtk_delNaptQosRuleEntry
	move	$4,$16

$LVL86 = .
	.loc 1 1444 0
	lw	$24,60($16)
	beq	$24,$0,$L63
	lw	$3,64($16)

	j	$L64
	sw	$3,64($24)

$L63:
	.loc 1 1444 0 is_stmt 0 discriminator 2
	lw	$2,%lo(table_path)($18)
	lw	$2,0($2)
	addu	$2,$2,$19
	sw	$3,4($2)
$L64:
	.loc 1 1444 0 discriminator 4
	lw	$2,64($16)
	sw	$24,0($2)
	lw	$24,%lo(table_path)($18)
	.loc 1 1445 0 is_stmt 1 discriminator 4
	lw	$2,68($16)
	lw	$3,72($16)
	.loc 1 1444 0 discriminator 4
	lw	$24,0($24)
	addu	$19,$24,$19
	lw	$24,8($19)
	addiu	$24,$24,-1
	sw	$24,8($19)
	lui	$24,%hi(path_list_inuse)
	.loc 1 1445 0 discriminator 4
	beq	$2,$0,$L65
	addiu	$24,$24,%lo(path_list_inuse)

	j	$L66
	sw	$3,72($2)

$L65:
	.loc 1 1445 0 is_stmt 0 discriminator 2
	sw	$3,4($24)
$L66:
	.loc 1 1445 0 discriminator 4
	lw	$3,72($16)
	sw	$2,0($3)
	lw	$2,8($24)
	.loc 1 1446 0 is_stmt 1 discriminator 4
	sw	$0,68($16)
	.loc 1 1445 0 discriminator 4
	addiu	$2,$2,-1
	sw	$2,8($24)
	.loc 1 1446 0 discriminator 4
	lui	$24,%hi(path_list_free)
	addiu	$24,$24,%lo(path_list_free)
	lw	$2,4($24)
	sw	$2,72($16)
	sw	$16,0($2)
	addiu	$16,$16,68
$LVL87 = .
	lw	$2,8($24)
$LVL88 = .
	sw	$16,4($24)
	addiu	$2,$2,1
	sw	$2,8($24)
$LVL89 = .
$LBE78 = .
	.loc 1 1450 0
	lui	$2,%hi(fast_path_entry_count)
$L72:
	.loc 1 1452 0
	move	$4,$20
	.loc 1 1450 0
	lw	$24,%lo(fast_path_entry_count)($2)
	addiu	$24,$24,-1
	.loc 1 1452 0
	jal	cyg_splx
	sw	$24,%lo(fast_path_entry_count)($2)

$LVL90 = .
	.loc 1 1467 0
	move	$2,$0
	lw	$31,68($sp)
	lw	$fp,64($sp)
	lw	$23,60($sp)
	lw	$22,56($sp)
	lw	$21,52($sp)
	lw	$20,48($sp)
$LVL91 = .
	lw	$19,44($sp)
	lw	$18,40($sp)
	lw	$17,36($sp)
$LVL92 = .
	lw	$16,32($sp)
	j	$31
	addiu	$sp,$sp,72

	.cfi_def_cfa_offset 0
	.cfi_restore 16
	.cfi_restore 17
	.cfi_restore 18
	.cfi_restore 19
	.cfi_restore 20
	.cfi_restore 21
	.cfi_restore 22
	.cfi_restore 23
	.cfi_restore 30
	.cfi_restore 31
	.set	macro
	.set	reorder
	.end	rtk_delNaptConnection
	.cfi_endproc
$LFE89:
	.size	rtk_delNaptConnection, .-rtk_delNaptConnection
	.section	.text.rtk_delNaptQosRule,"ax",@progbits
	.align	2
	.globl	rtk_delNaptQosRule
$LFB90 = .
	.loc 1 1495 0
	.cfi_startproc
	.set	nomips16
	.set	nomicromips
	.ent	rtk_delNaptQosRule
	.type	rtk_delNaptQosRule, @function
rtk_delNaptQosRule:
	.frame	$sp,24,$31		# vars= 0, regs= 2/0, args= 16, gp= 0
	.mask	0x80010000,-4
	.fmask	0x00000000,0
	.set	noreorder
	.set	nomacro
	addiu	$sp,$sp,-24
	.cfi_def_cfa_offset 24
	sw	$31,20($sp)
	sw	$16,16($sp)
	.cfi_offset 31, -4
	.cfi_offset 16, -8
	.loc 1 1498 0
	lui	$24,%hi(path_list_inuse)
	lw	$16,%lo(path_list_inuse)($24)
$LVL93 = .
$L74:
	.loc 1 1498 0 is_stmt 0 discriminator 1
	beq	$16,$0,$L77
	lw	$31,20($sp)

$LBB79 = .
	.loc 1 1500 0 is_stmt 1 discriminator 3
	jal	rtk_delNaptQosRuleEntry
	move	$4,$16

$LVL94 = .
$LBE79 = .
	.loc 1 1498 0 discriminator 3
	j	$L74
	lw	$16,68($16)

$L77:
	.loc 1 1503 0
	move	$2,$0
	lw	$16,16($sp)
$LVL95 = .
	j	$31
	addiu	$sp,$sp,24

	.cfi_def_cfa_offset 0
	.cfi_restore 16
	.cfi_restore 31
	.set	macro
	.set	reorder
	.end	rtk_delNaptQosRule
	.cfi_endproc
$LFE90:
	.size	rtk_delNaptQosRule, .-rtk_delNaptQosRule
	.section	.text.rtk_idleNaptConnection,"ax",@progbits
	.align	2
	.globl	rtk_idleNaptConnection
$LFB91 = .
	.loc 1 1512 0
	.cfi_startproc
	.set	nomips16
	.set	nomicromips
	.ent	rtk_idleNaptConnection
	.type	rtk_idleNaptConnection, @function
rtk_idleNaptConnection:
	.frame	$sp,72,$31		# vars= 8, regs= 10/0, args= 24, gp= 0
	.mask	0xc0ff0000,-4
	.fmask	0x00000000,0
	.set	noreorder
	.set	nomacro
$LVL96 = .
	addiu	$sp,$sp,-72
	.cfi_def_cfa_offset 72
	sw	$31,68($sp)
	sw	$fp,64($sp)
	sw	$23,60($sp)
	sw	$22,56($sp)
	sw	$21,52($sp)
	sw	$20,48($sp)
	sw	$19,44($sp)
	sw	$18,40($sp)
	sw	$17,36($sp)
	sw	$16,32($sp)
	.cfi_offset 31, -4
	.cfi_offset 30, -8
	.cfi_offset 23, -12
	.cfi_offset 22, -16
	.cfi_offset 21, -20
	.cfi_offset 20, -24
	.cfi_offset 19, -28
	.cfi_offset 18, -32
	.cfi_offset 17, -36
	.cfi_offset 16, -40
	.loc 1 1512 0
	move	$16,$4
	sw	$5,76($sp)
	.loc 1 1518 0
	jal	rtl_getTimeStamp
	move	$21,$6

$LVL97 = .
	.loc 1 1525 0
	li	$24,17			# 0x11
	.loc 1 1522 0
	lw	$23,0($16)
	.loc 1 1518 0
	move	$22,$2
$LVL98 = .
	.loc 1 1525 0
	li	$2,6			# 0x6
$LVL99 = .
	.loc 1 1528 0
	lw	$fp,4($16)
	lw	$17,8($16)
	.loc 1 1525 0
	xori	$20,$23,0x2
	.loc 1 1528 0
	lw	$18,20($16)
	.loc 1 1525 0
	movz	$24,$2,$20
	.loc 1 1528 0
	move	$4,$fp
	move	$5,$17
	lw	$19,24($16)
	move	$6,$18
	.loc 1 1525 0
	move	$20,$24
$LVL100 = .
	.loc 1 1528 0
	sw	$24,16($sp)
	jal	FastPath_Hash_PATH_Entry
	move	$7,$19

$LVL101 = .
	.loc 1 1529 0
	lui	$24,%hi(table_path)
	.loc 1 1531 0
	li	$4,65536			# 0x10000
	.loc 1 1529 0
	lw	$24,%lo(table_path)($24)
	.loc 1 1531 0
	addiu	$4,$4,255
	.loc 1 1529 0
	lw	$9,0($24)
	li	$24,12			# 0xc
	mul	$3,$2,$24
	addu	$2,$3,$9
$LVL102 = .
	lw	$24,0($2)
$LVL103 = .
	.loc 1 1531 0
	li	$2,16711680			# 0xff0000
	addiu	$2,$2,255
$L80:
	.loc 1 1529 0 discriminator 1
	beql	$24,$0,$L94
	lw	$8,12($16)

	.loc 1 1530 0
	lw	$5,4($24)
	bnel	$5,$23,$L80
	lw	$24,60($24)

	.loc 1 1531 0
	lw	$5,0($24)
	and	$5,$5,$2
	bnel	$5,$4,$L80
	lw	$24,60($24)

	.loc 1 1532 0
	lw	$5,16($24)
	bnel	$5,$fp,$L80
	lw	$24,60($24)

	.loc 1 1533 0
	lw	$5,12($24)
	bnel	$5,$17,$L80
	lw	$24,60($24)

	.loc 1 1534 0
	lw	$6,24($24)
	lw	$5,12($16)
	bnel	$6,$5,$L80
	lw	$24,60($24)

	.loc 1 1535 0
	lw	$6,28($24)
	lw	$5,16($16)
	bnel	$6,$5,$L80
	lw	$24,60($24)

	.loc 1 1536 0
	lw	$5,20($24)
	bnel	$5,$18,$L80
	lw	$24,60($24)

	.loc 1 1537 0
	lw	$5,8($24)
	bnel	$5,$19,$L80
	lw	$24,60($24)

	.loc 1 1539 0
	lw	$24,40($24)
$LVL104 = .
	.loc 1 1540 0
	lw	$3,76($sp)
	addu	$2,$3,$24
	sltu	$2,$22,$2
	beql	$2,$0,$L82
	lw	$8,12($16)

	j	$L93
	sw	$24,0($21)

$LVL105 = .
$L82:
$L94:
	.loc 1 1555 0
	move	$4,$18
	lw	$16,16($16)
$LVL106 = .
	move	$5,$19
	sw	$20,16($sp)
	move	$6,$8
	sw	$9,24($sp)
	move	$7,$16
	jal	FastPath_Hash_PATH_Entry
	sw	$8,28($sp)

$LVL107 = .
	.loc 1 1556 0
	li	$24,12			# 0xc
	lw	$9,24($sp)
	.loc 1 1558 0
	li	$4,131072			# 0x20000
	.loc 1 1556 0
	mul	$3,$2,$24
	lw	$8,28($sp)
	.loc 1 1558 0
	addiu	$4,$4,255
	.loc 1 1556 0
	addu	$2,$3,$9
$LVL108 = .
	lw	$24,0($2)
$LVL109 = .
	.loc 1 1558 0
	li	$2,16711680			# 0xff0000
	addiu	$2,$2,255
$L86:
$LVL110 = .
$L85:
	.loc 1 1556 0 discriminator 1
	beql	$24,$0,$L92
	move	$2,$0

	.loc 1 1557 0
	lw	$5,4($24)
	bnel	$5,$23,$L85
	lw	$24,60($24)

	.loc 1 1558 0
	lw	$5,0($24)
	and	$5,$5,$2
	bnel	$5,$4,$L85
	lw	$24,60($24)

	.loc 1 1559 0
	lw	$5,20($24)
	bnel	$5,$8,$L85
	lw	$24,60($24)

	.loc 1 1560 0
	lw	$5,8($24)
	bnel	$5,$16,$L85
	lw	$24,60($24)

	.loc 1 1561 0
	lw	$5,24($24)
	bnel	$5,$18,$L85
	lw	$24,60($24)

	.loc 1 1562 0
	lw	$5,28($24)
	bnel	$5,$19,$L85
	lw	$24,60($24)

	.loc 1 1563 0
	lw	$5,32($24)
	bnel	$5,$fp,$L85
	lw	$24,60($24)

	.loc 1 1564 0
	lw	$5,36($24)
	bnel	$5,$17,$L86
	lw	$24,60($24)

	.loc 1 1566 0
	lw	$24,40($24)
$LVL111 = .
	.loc 1 1567 0
	lw	$3,76($sp)
	addu	$17,$3,$24
	sltu	$22,$22,$17
$LVL112 = .
	beq	$22,$0,$L83
	move	$2,$0

	.loc 1 1573 0
	sw	$24,0($21)
$L93:
	li	$2,-1			# 0xffffffffffffffff
$LVL113 = .
$L92:
$L83:
	.loc 1 1581 0
	lw	$31,68($sp)
	lw	$fp,64($sp)
	lw	$23,60($sp)
	lw	$22,56($sp)
	lw	$21,52($sp)
$LVL114 = .
	lw	$20,48($sp)
$LVL115 = .
	lw	$19,44($sp)
	lw	$18,40($sp)
	lw	$17,36($sp)
	lw	$16,32($sp)
$LVL116 = .
	j	$31
	addiu	$sp,$sp,72

	.cfi_def_cfa_offset 0
	.cfi_restore 16
	.cfi_restore 17
	.cfi_restore 18
	.cfi_restore 19
	.cfi_restore 20
	.cfi_restore 21
	.cfi_restore 22
	.cfi_restore 23
	.cfi_restore 30
	.cfi_restore 31
	.set	macro
	.set	reorder
	.end	rtk_idleNaptConnection
	.cfi_endproc
$LFE91:
	.size	rtk_idleNaptConnection, .-rtk_idleNaptConnection
	.section	.text.rtl_getTcpExpireByState,"ax",@progbits
	.align	2
	.globl	rtl_getTcpExpireByState
$LFB92 = .
	.loc 1 1584 0
	.cfi_startproc
	.set	nomips16
	.set	nomicromips
	.ent	rtl_getTcpExpireByState
	.type	rtl_getTcpExpireByState, @function
rtl_getTcpExpireByState:
	.frame	$sp,0,$31		# vars= 0, regs= 0/0, args= 0, gp= 0
	.mask	0x00000000,0
	.fmask	0x00000000,0
	.set	noreorder
	.set	nomacro
$LVL117 = .
	.loc 1 1587 0
	li	$24,1			# 0x1
	bnel	$4,$24,$L96
	li	$24,2			# 0x2

	.loc 1 1587 0 is_stmt 0 discriminator 1
	bne	$5,$4,$L103
	li	$2,600			# 0x258

$L105:
	j	$31
	nop

$L96:
	.loc 1 1589 0 is_stmt 1
	bne	$4,$24,$L105
	li	$2,1			# 0x1

	.loc 1 1591 0 discriminator 1
	li	$24,5			# 0x5
	xori	$5,$5,0x1
$LVL118 = .
	j	$31
	movz	$2,$24,$5

$LVL119 = .
$L103:
	.loc 1 1591 0 is_stmt 0
	li	$24,5			# 0x5
	xori	$2,$5,0x2
	movn	$24,$4,$2
	move	$2,$24
$LVL120 = .
	.loc 1 1596 0 is_stmt 1
	j	$31
	nop

	.set	macro
	.set	reorder
	.end	rtl_getTcpExpireByState
	.cfi_endproc
$LFE92:
	.size	rtl_getTcpExpireByState, .-rtl_getTcpExpireByState
	.section	.text.rtl_fpTimer_update,"ax",@progbits
	.align	2
	.globl	rtl_fpTimer_update
$LFB93 = .
	.loc 1 1603 0
	.cfi_startproc
	.set	nomips16
	.set	nomicromips
	.ent	rtl_fpTimer_update
	.type	rtl_fpTimer_update, @function
rtl_fpTimer_update:
	.frame	$sp,64,$31		# vars= 32, regs= 3/0, args= 16, gp= 0
	.mask	0x80030000,-4
	.fmask	0x00000000,0
	.set	noreorder
	.set	nomacro
$LVL121 = .
	addiu	$sp,$sp,-64
	.cfi_def_cfa_offset 64
	sw	$31,60($sp)
	sw	$17,56($sp)
	sw	$16,52($sp)
	.cfi_offset 31, -4
	.cfi_offset 17, -8
	.cfi_offset 16, -12
	.loc 1 1611 0
	jal	rtl_getTimeStamp
	move	$16,$4

$LVL122 = .
	.loc 1 1613 0
	li	$2,17			# 0x11
	lw	$24,28($16)
	beq	$24,$2,$L111
	li	$2,6			# 0x6

	.loc 1 1617 0
	beql	$24,$2,$L108
	lw	$24,64($16)

	.loc 1 1623 0
	j	$L109
	li	$2,-1			# 0xffffffffffffffff

$L108:
$LVL123 = .
	.loc 1 1619 0
	lw	$5,4($24)
	jal	rtl_getTcpExpireByState
	lw	$4,0($24)

$LVL124 = .
	.loc 1 1618 0
	li	$24,2			# 0x2
$LVL125 = .
	j	$L107
	move	$17,$2

$LVL126 = .
$L111:
	.loc 1 1614 0
	li	$24,1			# 0x1
	.loc 1 1615 0
	li	$17,15			# 0xf
$L107:
$LVL127 = .
	.loc 1 1629 0
	sw	$24,16($sp)
	.loc 1 1643 0
	addiu	$6,$sp,44
	.loc 1 1630 0
	lw	$24,0($16)
$LVL128 = .
	.loc 1 1643 0
	addiu	$4,$sp,16
$LVL129 = .
	move	$5,$17
	.loc 1 1630 0
	sw	$24,20($sp)
	.loc 1 1631 0
	lhu	$24,16($16)
	sw	$24,24($sp)
	.loc 1 1632 0
	lw	$24,8($16)
	sw	$24,28($sp)
	.loc 1 1633 0
	lhu	$24,20($16)
	sw	$24,32($sp)
	.loc 1 1634 0
	lw	$24,4($16)
	sw	$24,36($sp)
	.loc 1 1635 0
	lhu	$24,18($16)
	.loc 1 1643 0
	jal	rtk_idleNaptConnection
	sw	$24,40($sp)

$LVL130 = .
	beq	$2,$0,$L109
	li	$2,-1			# 0xffffffffffffffff

	.loc 1 1646 0
	lw	$24,44($sp)
	.loc 1 1656 0
	move	$2,$0
	.loc 1 1645 0
	sw	$17,40($16)
	.loc 1 1646 0
	sw	$24,36($16)
$LVL131 = .
$L109:
	.loc 1 1661 0
	lw	$31,60($sp)
	lw	$17,56($sp)
	lw	$16,52($sp)
$LVL132 = .
	j	$31
	addiu	$sp,$sp,64

	.cfi_def_cfa_offset 0
	.cfi_restore 16
	.cfi_restore 17
	.cfi_restore 31
	.set	macro
	.set	reorder
	.end	rtl_fpTimer_update
	.cfi_endproc
$LFE93:
	.size	rtl_fpTimer_update, .-rtl_fpTimer_update
	.section	.text.FastPath_Route,"ax",@progbits
	.align	2
	.globl	FastPath_Route
$LFB94 = .
	.loc 1 1719 0
	.cfi_startproc
	.set	nomips16
	.set	nomicromips
	.ent	FastPath_Route
	.type	FastPath_Route, @function
FastPath_Route:
	.frame	$sp,0,$31		# vars= 0, regs= 0/0, args= 0, gp= 0
	.mask	0x00000000,0
	.fmask	0x00000000,0
	.set	noreorder
	.set	nomacro
$LVL133 = .
	.loc 1 1724 0
	lui	$24,%hi(route_list_inuse)
	.loc 1 1721 0
	move	$5,$0
	.loc 1 1720 0
	move	$2,$0
	.loc 1 1724 0
	lw	$24,%lo(route_list_inuse)($24)
$LVL134 = .
$L117:
	.loc 1 1724 0 is_stmt 0 discriminator 1
	beq	$24,$0,$L121
	nop

	.loc 1 1725 0 is_stmt 1
	lw	$3,8($24)
	sltu	$6,$3,$5
	bnel	$6,$0,$L117
	lw	$24,44($24)

	.loc 1 1725 0 is_stmt 0 discriminator 1
	lw	$6,4($24)
	and	$7,$4,$3
	bnel	$7,$6,$L117
	lw	$24,44($24)

	.loc 1 1726 0 is_stmt 1
	addiu	$2,$24,16
$LVL135 = .
	move	$5,$3
$LVL136 = .
	.loc 1 1724 0 discriminator 2
	j	$L117
	lw	$24,44($24)

$L121:
	.loc 1 1732 0
	j	$31
	nop

	.set	macro
	.set	reorder
	.end	FastPath_Route
	.cfi_endproc
$LFE94:
	.size	FastPath_Route, .-FastPath_Route
	.section	.text.rtk_addNaptConnection,"ax",@progbits
	.align	2
	.globl	rtk_addNaptConnection
$LFB88 = .
	.loc 1 827 0
	.cfi_startproc
	.set	nomips16
	.set	nomicromips
	.ent	rtk_addNaptConnection
	.type	rtk_addNaptConnection, @function
rtk_addNaptConnection:
	.frame	$sp,80,$31		# vars= 16, regs= 10/0, args= 24, gp= 0
	.mask	0xc0ff0000,-4
	.fmask	0x00000000,0
	.set	noreorder
	.set	nomacro
$LVL137 = .
	addiu	$sp,$sp,-80
	.cfi_def_cfa_offset 80
	sw	$31,76($sp)
	sw	$fp,72($sp)
	sw	$23,68($sp)
	sw	$22,64($sp)
	sw	$21,60($sp)
	sw	$20,56($sp)
	sw	$19,52($sp)
	sw	$18,48($sp)
	sw	$17,44($sp)
	sw	$16,40($sp)
	.cfi_offset 31, -4
	.cfi_offset 30, -8
	.cfi_offset 23, -12
	.cfi_offset 22, -16
	.cfi_offset 21, -20
	.cfi_offset 20, -24
	.cfi_offset 19, -28
	.cfi_offset 18, -32
	.cfi_offset 17, -36
	.cfi_offset 16, -40
	.loc 1 865 0
	li	$2,17			# 0x11
	.loc 1 862 0
	lw	$20,0($4)
	.loc 1 827 0
	move	$17,$4
	.loc 1 872 0
	lw	$4,20($4)
$LVL138 = .
$LBB80 = .
	.loc 1 966 0
	lui	$18,%hi(table_path)
	li	$22,12			# 0xc
$LBE80 = .
	.loc 1 865 0
	xori	$24,$20,0x2
	li	$20,6			# 0x6
	movz	$2,$20,$24
$LVL139 = .
	.loc 1 872 0
	jal	filter_addconnect
	sw	$2,24($sp)

$LVL140 = .
	.loc 1 922 0
	jal	cyg_splimp
	nop

$LVL141 = .
	.loc 1 961 0
	lw	$24,24($sp)
	.loc 1 922 0
	move	$19,$2
$LVL142 = .
	.loc 1 961 0
	lw	$3,24($17)
	lw	$20,4($17)
	lw	$fp,8($17)
	lw	$23,20($17)
	move	$7,$3
	sw	$24,16($sp)
	move	$4,$20
	move	$5,$fp
	sw	$3,28($sp)
	jal	FastPath_Hash_PATH_Entry
	move	$6,$23

$LVL143 = .
$LBB81 = .
	.loc 1 966 0
	mul	$22,$2,$22
	lw	$2,%lo(table_path)($18)
$LVL144 = .
	lw	$3,28($sp)
	lw	$2,0($2)
	addu	$2,$2,$22
	lw	$16,0($2)
$LVL145 = .
	.loc 1 967 0
	li	$2,255			# 0xff
$L124:
	.loc 1 966 0 discriminator 1
	beq	$16,$0,$L153
	lui	$21,%hi(path_list_free)

	.loc 1 967 0
	lw	$5,4($16)
	lw	$4,0($17)
	bnel	$5,$4,$L124
	lw	$16,60($16)

	.loc 1 967 0 is_stmt 0 discriminator 1
	lbu	$4,0($16)
	bnel	$4,$2,$L124
	lw	$16,60($16)

	.loc 1 967 0 discriminator 2
	lw	$4,16($16)
	bnel	$4,$20,$L124
	lw	$16,60($16)

	.loc 1 968 0 is_stmt 1
	lw	$4,12($16)
	bnel	$4,$fp,$L124
	lw	$16,60($16)

	.loc 1 968 0 is_stmt 0 discriminator 1
	lw	$4,20($16)
	bnel	$4,$23,$L124
	lw	$16,60($16)

	.loc 1 969 0 is_stmt 1
	lw	$4,8($16)
	bnel	$4,$3,$L124
	lw	$16,60($16)

	.loc 1 969 0 is_stmt 0 discriminator 1
	lw	$5,24($16)
	lw	$4,12($17)
	bnel	$5,$4,$L124
	lw	$16,60($16)

	.loc 1 970 0 is_stmt 1
	lw	$5,28($16)
	lw	$4,16($17)
	beq	$5,$4,$L152
	nop

$LVL146 = .
$LBE81 = .
	.loc 1 966 0 discriminator 2
	j	$L124
	lw	$16,60($16)

$L153:
	.loc 1 978 0
	lw	$16,%lo(path_list_free)($21)
$LVL147 = .
	beq	$16,$0,$L128
	move	$4,$23

$LVL148 = .
	.loc 1 982 0
	lw	$2,0($17)
	.loc 1 987 0
	lw	$6,12($17)
	.loc 1 988 0
	lw	$5,16($17)
	.loc 1 986 0
	sw	$3,8($16)
	.loc 1 990 0
	sw	$3,36($16)
	.loc 1 987 0
	sw	$6,24($16)
	.loc 1 988 0
	sw	$5,28($16)
	.loc 1 982 0
	sw	$2,4($16)
	.loc 1 983 0
	sw	$20,16($16)
	.loc 1 984 0
	sw	$fp,12($16)
	.loc 1 985 0
	sw	$23,20($16)
	.loc 1 989 0
	sw	$23,32($16)
	.loc 1 992 0
	sw	$5,32($sp)
	jal	FastPath_Route
	sw	$6,28($sp)

$LVL149 = .
	.loc 1 997 0
	li	$3,-1			# 0xffffffffffffffff
	.loc 1 992 0
	sw	$2,44($16)
	.loc 1 996 0
	li	$2,1			# 0x1
	.loc 1 997 0
	sb	$3,0($16)
	.loc 1 996 0
	sb	$2,2($16)
	.loc 1 1000 0
	lw	$6,28($sp)
	bne	$20,$6,$L129
	lw	$5,32($sp)

	.loc 1 999 0
	j	$L130
	sb	$0,1($16)

$L129:
	.loc 1 1001 0
	sb	$2,1($16)
$L130:
	.loc 1 1003 0
	beq	$fp,$5,$L131
	nop

	.loc 1 1004 0
	lbu	$24,1($16)
	ori	$24,$24,0x2
	sb	$24,1($16)
$L131:
	.loc 1 1103 0
	jal	rtl_getTimeStamp
	nop

$LVL150 = .
	lui	$24,%hi(path_list_free)
	lw	$3,72($16)
	sw	$2,40($16)
	.loc 1 1107 0
	lw	$2,68($16)
	beq	$2,$0,$L132
	addiu	$24,$24,%lo(path_list_free)

	j	$L133
	sw	$3,72($2)

$L132:
	.loc 1 1107 0 is_stmt 0 discriminator 2
	sw	$3,4($24)
$L133:
	.loc 1 1107 0 discriminator 4
	lw	$3,72($16)
	sw	$2,0($3)
	lw	$2,8($24)
	.loc 1 1108 0 is_stmt 1 discriminator 4
	sw	$0,68($16)
	.loc 1 1107 0 discriminator 4
	addiu	$2,$2,-1
	sw	$2,8($24)
	.loc 1 1108 0 discriminator 4
	lui	$24,%hi(path_list_inuse)
	addiu	$24,$24,%lo(path_list_inuse)
	lw	$2,4($24)
	sw	$2,72($16)
	sw	$16,0($2)
	addiu	$2,$16,68
	.loc 1 1109 0 discriminator 4
	sw	$0,60($16)
	.loc 1 1108 0 discriminator 4
	sw	$2,4($24)
	lw	$2,8($24)
	addiu	$2,$2,1
	sw	$2,8($24)
	.loc 1 1109 0 discriminator 4
	lw	$24,%lo(table_path)($18)
	lw	$24,0($24)
	addu	$24,$24,$22
	lw	$24,4($24)
	sw	$24,64($16)
	sw	$16,0($24)
	addiu	$16,$16,60
$LVL151 = .
	lw	$24,%lo(table_path)($18)
$LVL152 = .
	lw	$2,0($24)
	addu	$2,$2,$22
	sw	$16,4($2)
	lw	$24,8($2)
	addiu	$24,$24,1
	sw	$24,8($2)
$LVL153 = .
$L128:
	.loc 1 1114 0
	lw	$2,24($sp)
$LBB82 = .
	.loc 1 1119 0
	li	$20,12			# 0xc
$LBE82 = .
	.loc 1 1114 0
	lw	$24,20($17)
	lw	$fp,24($17)
	lw	$23,12($17)
	lw	$22,16($17)
	move	$4,$24
	sw	$2,16($sp)
	move	$5,$fp
	move	$6,$23
	sw	$24,28($sp)
	jal	FastPath_Hash_PATH_Entry
	move	$7,$22

$LVL154 = .
$LBB83 = .
	.loc 1 1119 0
	mul	$20,$2,$20
	lw	$2,%lo(table_path)($18)
$LVL155 = .
	lw	$24,28($sp)
	lw	$2,0($2)
	addu	$2,$2,$20
	lw	$16,0($2)
$LVL156 = .
	li	$2,255			# 0xff
$L135:
$LVL157 = .
$L134:
	.loc 1 1119 0 is_stmt 0 discriminator 1
	beql	$16,$0,$L154
	lw	$16,%lo(path_list_free)($21)

	.loc 1 1120 0 is_stmt 1
	lw	$4,4($16)
	lw	$3,0($17)
	bnel	$4,$3,$L134
	lw	$16,60($16)

	.loc 1 1120 0 is_stmt 0 discriminator 1
	lbu	$3,0($16)
	bnel	$3,$2,$L134
	lw	$16,60($16)

	.loc 1 1120 0 discriminator 2
	lw	$4,32($16)
	lw	$3,4($17)
	bnel	$4,$3,$L134
	lw	$16,60($16)

	.loc 1 1121 0 is_stmt 1
	lw	$4,36($16)
	lw	$3,8($17)
	bnel	$4,$3,$L134
	lw	$16,60($16)

	.loc 1 1121 0 is_stmt 0 discriminator 1
	lw	$3,20($16)
	bnel	$3,$23,$L134
	lw	$16,60($16)

	.loc 1 1122 0 is_stmt 1
	lw	$3,8($16)
	bnel	$3,$22,$L134
	lw	$16,60($16)

	.loc 1 1122 0 is_stmt 0 discriminator 1
	lw	$3,24($16)
	bnel	$3,$24,$L134
	lw	$16,60($16)

	.loc 1 1123 0 is_stmt 1
	lw	$3,28($16)
	bnel	$3,$fp,$L135
	lw	$16,60($16)

$LVL158 = .
$L152:
	.loc 1 1124 0
	jal	rtl_getTimeStamp
	nop

$LVL159 = .
$LBE83 = .
	j	$L151
	sw	$2,40($16)

$LVL160 = .
$L154:
	.loc 1 1132 0
	beq	$16,$0,$L155
	lui	$2,%hi(fast_path_entry_count)

$LVL161 = .
	.loc 1 1134 0
	lw	$2,0($17)
	.loc 1 1141 0
	lw	$21,4($17)
	.loc 1 1142 0
	lw	$17,8($17)
$LVL162 = .
	.loc 1 1135 0
	sw	$24,16($16)
	.loc 1 1139 0
	sw	$24,24($16)
	.loc 1 1144 0
	move	$4,$21
	.loc 1 1134 0
	sw	$2,4($16)
	.loc 1 1136 0
	sw	$fp,12($16)
	.loc 1 1137 0
	sw	$23,20($16)
	.loc 1 1138 0
	sw	$22,8($16)
	.loc 1 1140 0
	sw	$fp,28($16)
	.loc 1 1141 0
	sw	$21,32($16)
	.loc 1 1144 0
	jal	FastPath_Route
	sw	$17,36($16)

$LVL163 = .
	.loc 1 1148 0
	li	$24,2			# 0x2
	.loc 1 1144 0
	sw	$2,44($16)
	.loc 1 1148 0
	sb	$24,2($16)
	.loc 1 1149 0
	li	$24,-1			# 0xffffffffffffffff
	.loc 1 1152 0
	bne	$23,$21,$L138
	sb	$24,0($16)

	.loc 1 1151 0
	j	$L139
	sb	$0,1($16)

$L138:
	.loc 1 1153 0
	li	$24,4			# 0x4
	sb	$24,1($16)
$L139:
	.loc 1 1155 0
	beq	$22,$17,$L140
	nop

	.loc 1 1156 0
	lbu	$24,1($16)
	ori	$24,$24,0x8
	sb	$24,1($16)
$L140:
	.loc 1 1245 0
	jal	rtl_getTimeStamp
	nop

$LVL164 = .
	lui	$24,%hi(path_list_free)
	lw	$3,72($16)
	sw	$2,40($16)
	.loc 1 1250 0
	lw	$2,68($16)
	beq	$2,$0,$L141
	addiu	$24,$24,%lo(path_list_free)

	j	$L142
	sw	$3,72($2)

$L141:
	.loc 1 1250 0 is_stmt 0 discriminator 2
	sw	$3,4($24)
$L142:
	.loc 1 1250 0 discriminator 4
	lw	$3,72($16)
	sw	$2,0($3)
	lw	$2,8($24)
	.loc 1 1251 0 is_stmt 1 discriminator 4
	sw	$0,68($16)
	.loc 1 1250 0 discriminator 4
	addiu	$2,$2,-1
	sw	$2,8($24)
	.loc 1 1251 0 discriminator 4
	lui	$24,%hi(path_list_inuse)
	addiu	$24,$24,%lo(path_list_inuse)
	lw	$2,4($24)
	sw	$2,72($16)
	sw	$16,0($2)
	addiu	$2,$16,68
	.loc 1 1252 0 discriminator 4
	sw	$0,60($16)
	.loc 1 1251 0 discriminator 4
	sw	$2,4($24)
	lw	$2,8($24)
	addiu	$2,$2,1
	sw	$2,8($24)
	.loc 1 1252 0 discriminator 4
	lw	$24,%lo(table_path)($18)
	lw	$24,0($24)
	addu	$24,$24,$20
	lw	$24,4($24)
	sw	$24,64($16)
	sw	$16,0($24)
	addiu	$16,$16,60
$LVL165 = .
	lw	$24,%lo(table_path)($18)
$LVL166 = .
	lw	$2,0($24)
	addu	$2,$2,$20
	sw	$16,4($2)
	lw	$24,8($2)
	addiu	$24,$24,1
	sw	$24,8($2)
$LVL167 = .
	.loc 1 1289 0
	lui	$2,%hi(fast_path_entry_count)
$L155:
	lw	$24,%lo(fast_path_entry_count)($2)
	addiu	$24,$24,1
	sw	$24,%lo(fast_path_entry_count)($2)
$L151:
	.loc 1 1291 0
	jal	cyg_splx
	move	$4,$19

$LVL168 = .
	.loc 1 1300 0
	move	$2,$0
	lw	$31,76($sp)
	lw	$fp,72($sp)
	lw	$23,68($sp)
	lw	$22,64($sp)
	lw	$21,60($sp)
	lw	$20,56($sp)
	lw	$19,52($sp)
$LVL169 = .
	lw	$18,48($sp)
	lw	$17,44($sp)
	lw	$16,40($sp)
$LVL170 = .
	j	$31
	addiu	$sp,$sp,80

	.cfi_def_cfa_offset 0
	.cfi_restore 16
	.cfi_restore 17
	.cfi_restore 18
	.cfi_restore 19
	.cfi_restore 20
	.cfi_restore 21
	.cfi_restore 22
	.cfi_restore 23
	.cfi_restore 30
	.cfi_restore 31
	.set	macro
	.set	reorder
	.end	rtk_addNaptConnection
	.cfi_endproc
$LFE88:
	.size	rtk_addNaptConnection, .-rtk_addNaptConnection
	.section	.text.skb_can_forward,"ax",@progbits
	.align	2
	.globl	skb_can_forward
$LFB95 = .
	.loc 1 1842 0
	.cfi_startproc
	.set	nomips16
	.set	nomicromips
	.ent	skb_can_forward
	.type	skb_can_forward, @function
skb_can_forward:
	.frame	$sp,40,$31		# vars= 8, regs= 2/0, args= 24, gp= 0
	.mask	0x80010000,-4
	.fmask	0x00000000,0
	.set	noreorder
	.set	nomacro
$LVL171 = .
	.loc 1 1846 0
	beq	$4,$0,$L169
	move	$2,$0

	.loc 1 1846 0 is_stmt 0 discriminator 1
	beq	$5,$0,$L169
	li	$5,23			# 0x17

	.loc 1 1848 0 is_stmt 1
	lbu	$8,72($4)
$LVL172 = .
	beq	$8,$5,$L169
	li	$2,1			# 0x1

	.loc 1 1850 0
	lbu	$5,1($6)
	li	$3,2			# 0x2
	bne	$5,$3,$L169
	nop

	.loc 1 1842 0
	addiu	$sp,$sp,-40
	.cfi_def_cfa_offset 40
	sw	$31,36($sp)
	sw	$16,32($sp)
	.cfi_offset 31, -4
	.cfi_offset 16, -8
	move	$5,$7
$LBB90 = .
$LBB91 = .
$LBB92 = .
	.loc 1 1851 0
	sw	$7,16($sp)
	addiu	$7,$sp,24
$LVL173 = .
	jal	arpget
	move	$16,$4

$LVL174 = .
	beq	$2,$0,$L170
	lw	$31,36($sp)

	.loc 1 1855 0
	lw	$24,48($16)
	beq	$24,$0,$L170
	li	$2,1			# 0x1

$LBB93 = .
	.loc 1 1861 0
	jal	getDevByMac
	addiu	$4,$sp,24

$LVL175 = .
	.loc 1 1862 0
	sltu	$2,$0,$2
$LVL176 = .
$LBE93 = .
$LBE92 = .
$LBE91 = .
$LBE90 = .
	.loc 1 1871 0
	lw	$31,36($sp)
$L170:
	lw	$16,32($sp)
$LVL177 = .
	addiu	$sp,$sp,40
	.cfi_restore 16
	.cfi_restore 31
	.cfi_def_cfa_offset 0
$LVL178 = .
$L169:
	j	$31
	nop

	.set	macro
	.set	reorder
	.end	skb_can_forward
	.cfi_endproc
$LFE95:
	.size	skb_can_forward, .-skb_can_forward
	.section	.rodata.str1.4,"aMS",@progbits,1
	.align	2
$LC0:
	.ascii	"lo\000"
	.section	.text.enter_fast_path_skb,"ax",@progbits
	.align	2
	.globl	enter_fast_path_skb
$LFB96 = .
	.loc 1 1873 0
	.cfi_startproc
	.set	nomips16
	.set	nomicromips
	.ent	enter_fast_path_skb
	.type	enter_fast_path_skb, @function
enter_fast_path_skb:
	.frame	$sp,104,$31		# vars= 40, regs= 10/0, args= 24, gp= 0
	.mask	0xc0ff0000,-4
	.fmask	0x00000000,0
	.set	noreorder
	.set	nomacro
$LVL179 = .
	addiu	$sp,$sp,-104
	.cfi_def_cfa_offset 104
	sw	$31,100($sp)
	sw	$fp,96($sp)
	sw	$23,92($sp)
	sw	$22,88($sp)
	sw	$21,84($sp)
	sw	$20,80($sp)
	sw	$19,76($sp)
	sw	$18,72($sp)
	sw	$17,68($sp)
	sw	$16,64($sp)
	.cfi_offset 31, -4
	.cfi_offset 30, -8
	.cfi_offset 23, -12
	.cfi_offset 22, -16
	.cfi_offset 21, -20
	.cfi_offset 20, -24
	.cfi_offset 19, -28
	.cfi_offset 18, -32
	.cfi_offset 17, -36
	.cfi_offset 16, -40
$LVL180 = .
	.loc 1 1916 0
	lw	$22,16($5)
$LVL181 = .
	.loc 1 1918 0
	lbu	$2,8($22)
	sltu	$2,$2,2
	bne	$2,$0,$L342
	move	$2,$0

	.loc 1 1922 0
	lbu	$18,9($22)
$LVL182 = .
	.loc 1 1925 0
	li	$2,6			# 0x6
	beq	$18,$2,$L174
	li	$2,17			# 0x11

	.loc 1 1925 0 is_stmt 0 discriminator 1
	bne	$18,$2,$L342
	move	$2,$0

$L174:
	.loc 1 1935 0 is_stmt 1
	lbu	$8,0($22)
$LBB94 = .
	.loc 1 1962 0
	lbu	$19,7($22)
	lbu	$2,6($22)
$LBE94 = .
	.loc 1 1935 0
	andi	$8,$8,0xf
	.loc 1 1963 0
	lwl	$16,15($22)
	.loc 1 1935 0
	sll	$8,$8,2
	.loc 1 1964 0
	lwl	$17,19($22)
$LBB95 = .
	.loc 1 1962 0
	sll	$19,$19,8
$LBE95 = .
	.loc 1 1935 0
	addu	$fp,$22,$8
$LVL183 = .
$LBB96 = .
	.loc 1 1962 0
	or	$19,$19,$2
$LBE96 = .
	.loc 1 1963 0
	lwr	$16,12($22)
	.loc 1 1964 0
	lwr	$17,16($22)
	wsbh	$19,$19
	.loc 1 1965 0
	lbu	$2,1($fp)
	lbu	$3,0($fp)
	andi	$19,$19,0xffff
$LVL184 = .
	sll	$2,$2,8
	or	$2,$2,$3
	sw	$2,36($sp)
$LVL185 = .
	.loc 1 1966 0
	lbu	$2,3($fp)
$LVL186 = .
	lbu	$3,2($fp)
	sll	$2,$2,8
	or	$2,$2,$3
	sw	$2,40($sp)
$LVL187 = .
	.loc 1 1969 0
	li	$2,6			# 0x6
$LVL188 = .
	bne	$18,$2,$L176
	andi	$3,$19,0x3fff

	.loc 1 1977 0
	beql	$3,$0,$L380
	lbu	$2,13($fp)

	.loc 1 1978 0
	li	$2,8192			# 0x2000
	beql	$19,$2,$L177
	lbu	$2,13($fp)

$LVL189 = .
$L176:
	.loc 1 2027 0
	beq	$3,$0,$L255
	sw	$5,48($sp)

	.loc 1 2032 0
	li	$2,8192			# 0x2000
	beq	$19,$2,$L256
	andi	$2,$19,0x2000

	.loc 1 2034 0
	bnel	$2,$0,$L257
	sw	$0,44($sp)

	.loc 1 2034 0 is_stmt 0 discriminator 1
	andi	$2,$19,0x1fff
	sltu	$2,$0,$2
	j	$L345
	sw	$2,44($sp)

$L256:
	.loc 1 2033 0 is_stmt 1
	li	$24,1			# 0x1
	.loc 1 1894 0
	sw	$0,44($sp)
	.loc 1 2033 0
	j	$L179
	sw	$24,28($sp)

$L257:
$L345:
	.loc 1 1894 0
	sw	$0,28($sp)
$L179:
$LVL190 = .
	.loc 1 2037 0
	lbu	$2,5($22)
	move	$7,$18
	lbu	$4,4($22)
$LVL191 = .
	move	$6,$17
$LVL192 = .
	move	$5,$16
$LVL193 = .
	sll	$2,$2,8
	jal	find_fragEntry
	or	$4,$2,$4

$LVL194 = .
	.loc 1 2038 0
	beq	$2,$0,$L180
	sw	$2,32($sp)

	.loc 1 2040 0
	lhu	$24,12($2)
	.loc 1 2043 0
	sw	$0,24($sp)
	.loc 1 2040 0
	sw	$24,36($sp)
$LVL195 = .
	.loc 1 2041 0
	lhu	$24,14($2)
$LVL196 = .
	sw	$24,40($sp)
$LVL197 = .
	.loc 1 2042 0
	lw	$24,28($sp)
$LVL198 = .
	beql	$24,$0,$L381
	lw	$7,40($sp)

	j	$L377
	li	$24,1			# 0x1

$L180:
	.loc 1 2047 0
	lw	$24,28($sp)
	beq	$24,$0,$L189
	li	$24,1			# 0x1

$L377:
$LVL199 = .
	j	$L346
	sw	$24,28($sp)

$LVL200 = .
$L255:
	.loc 1 1886 0
	li	$24,1			# 0x1
	.loc 1 1896 0
	sw	$0,32($sp)
	.loc 1 1894 0
	sw	$0,44($sp)
	sw	$0,28($sp)
$LVL201 = .
$L346:
	.loc 1 1886 0
	sw	$24,24($sp)
$LVL202 = .
	.loc 1 2057 0
	lw	$7,40($sp)
$L381:
	move	$6,$17
	lw	$5,36($sp)
	move	$4,$16
	jal	FastPath_Hash_PATH_Entry
	sw	$18,16($sp)

$LVL203 = .
	.loc 1 2058 0
	lui	$3,%hi(table_path)
	.loc 1 2067 0
	li	$5,1			# 0x1
	li	$6,17			# 0x11
	.loc 1 2058 0
	lw	$3,%lo(table_path)($3)
	.loc 1 2066 0
	li	$7,6			# 0x6
	.loc 1 2058 0
	lw	$4,0($3)
	li	$3,12			# 0xc
	mul	$24,$2,$3
	.loc 1 2064 0
	li	$3,255			# 0xff
	.loc 1 2058 0
	addu	$2,$24,$4
$LVL204 = .
	.loc 1 2065 0
	li	$4,2			# 0x2
$LVL205 = .
	.loc 1 2058 0
	j	$L181
	lw	$23,0($2)

$L183:
	.loc 1 2067 0
	beq	$2,$5,$L376
	nop

	.loc 1 2058 0 discriminator 2
	lw	$23,60($23)
$LVL206 = .
$L181:
	.loc 1 2058 0 is_stmt 0 discriminator 1
	beq	$23,$0,$L189
	lw	$24,36($sp)

	.loc 1 2060 0 is_stmt 1
	lw	$2,12($23)
	bnel	$2,$24,$L181
	lw	$23,60($23)

	.loc 1 2061 0
	lw	$2,8($23)
	lw	$24,40($sp)
	bnel	$2,$24,$L181
	lw	$23,60($23)

	.loc 1 2062 0
	lw	$2,16($23)
	bnel	$2,$16,$L181
	lw	$23,60($23)

	.loc 1 2063 0
	lw	$2,20($23)
	bnel	$2,$17,$L181
	lw	$23,60($23)

	.loc 1 2064 0
	lbu	$2,0($23)
	bnel	$2,$3,$L181
	lw	$23,60($23)

	.loc 1 2066 0
	lw	$2,4($23)
	.loc 1 2065 0
	bne	$2,$4,$L183
	nop

	.loc 1 2066 0
	bnel	$18,$7,$L181
	lw	$23,60($23)

$LBB97 = .
	.loc 1 2074 0
	lwl	$5,15($22)
$L378:
	.loc 1 2071 0
	lw	$21,32($23)
$LVL207 = .
	.loc 1 2074 0
	lbu	$6,1($22)
	lwr	$5,12($22)
$LVL208 = .
	jal	rtl_ipflow_lookup
	move	$4,$21

$LVL209 = .
	bne	$2,$0,$L343
	move	$20,$2

	.loc 1 2075 0
	jal	rtl_rtalloc
	move	$4,$21

$LVL210 = .
	.loc 1 2076 0
	bne	$2,$0,$L187
	sw	$2,52($sp)

$LVL211 = .
$L189:
$LBE97 = .
	.loc 1 2077 0
	j	$L342
	move	$2,$0

$LVL212 = .
$L376:
	.loc 1 2067 0 discriminator 1
	bnel	$18,$6,$L181
	lw	$23,60($23)

	.loc 1 2074 0
	j	$L378
	lwl	$5,15($22)

$LVL213 = .
$L187:
$LBB143 = .
	.loc 1 2076 0 discriminator 1
	lw	$24,52($sp)
	lw	$21,0($24)
$LVL214 = .
	bnel	$21,$0,$L382
	lw	$2,56($21)

	j	$L342
	move	$2,$0

$LVL215 = .
$L343:
	.loc 1 2079 0
	lw	$21,24($2)
$LVL216 = .
	.loc 1 2083 0
	lw	$2,56($21)
$L382:
	andi	$2,$2,0x1
	beq	$2,$0,$L342
	move	$2,$0

	.loc 1 2083 0 is_stmt 0 discriminator 1
	lw	$3,60($21)
	lhu	$2,58($3)
	andi	$2,$2,0x1
	beq	$2,$0,$L189
	lui	$5,%hi($LC0)

	.loc 1 2083 0 discriminator 2
	lw	$4,4($3)
	li	$6,2			# 0x2
	sw	$3,56($sp)
	jal	memcmp
	addiu	$5,$5,%lo($LC0)

$LVL217 = .
	beq	$2,$0,$L189
	lw	$3,56($sp)

	.loc 1 2088 0 is_stmt 1
	lw	$24,48($sp)
	move	$6,$19
	lw	$5,80($3)
	jal	rtl_mtu_check
	lw	$4,36($24)

$LVL218 = .
	bne	$2,$0,$L342
	move	$2,$0

	.loc 1 2091 0
	lw	$2,60($21)
	lbu	$3,72($2)
	li	$2,23			# 0x17
	beq	$3,$2,$L191
	nop

$L194:
	.loc 1 2115 0
	beql	$20,$0,$L383
	lw	$2,56($21)

	.loc 1 2116 0
	lw	$2,160($20)
	addiu	$2,$2,1
	sw	$2,160($20)
	.loc 1 2117 0
	li	$2,10			# 0xa
$LBE143 = .
	j	$L193
	sw	$2,164($20)

$L191:
$LBB144 = .
	.loc 1 2092 0
	jal	get_fast_pppoe_flag
	nop

$LVL219 = .
	bne	$2,$0,$L194
	nop

	.loc 1 2093 0
	jal	get_fast_l2tp_flag
	nop

$LVL220 = .
	bne	$2,$0,$L194
	nop

	.loc 1 2094 0
	jal	get_fast_pptp_flag
	nop

$LVL221 = .
	bne	$2,$0,$L194
	move	$2,$0

$LBE144 = .
	.loc 1 2432 0
	j	$L390
	lw	$31,100($sp)

$L193:
$LBB145 = .
	.loc 1 2121 0
	lw	$2,56($21)
$L383:
	andi	$2,$2,0x2
	beq	$2,$0,$L195
	lw	$24,52($sp)

$LVL222 = .
	j	$L196
	lw	$19,48($21)

$LVL223 = .
$L195:
	.loc 1 2127 0
	addiu	$19,$20,32
	addiu	$3,$24,8
	movz	$19,$3,$20
$L196:
$LVL224 = .
	.loc 1 2133 0
	move	$7,$21
	lw	$5,48($sp)
	move	$6,$19
	jal	skb_can_forward
	lw	$4,60($21)

$LVL225 = .
	beq	$2,$0,$L342
	move	$2,$0

	.loc 1 2136 0
	li	$2,6			# 0x6
	beq	$18,$2,$L199
	addiu	$3,$fp,16

	.loc 1 2145 0
	lbu	$3,7($fp)
	lbu	$2,6($fp)
	sll	$3,$3,8
	or	$2,$3,$2
	.loc 1 2146 0
	addiu	$3,$fp,6
	movz	$3,$0,$2
$L199:
$LVL226 = .
	.loc 1 2155 0
	lw	$24,28($sp)
	beq	$24,$0,$L200
	lw	$24,44($sp)

	.loc 1 2157 0
	lbu	$2,5($22)
	move	$7,$17
	lw	$24,40($sp)
	move	$5,$16
	lbu	$4,4($22)
	sll	$2,$2,8
	lw	$6,36($sp)
	sw	$18,20($sp)
	sw	$24,16($sp)
	or	$4,$2,$4
	jal	add_fragEntry
	sw	$3,56($sp)

$LVL227 = .
	bne	$2,$0,$L201
	lw	$3,56($sp)

	j	$L342
	move	$2,$0

$LVL228 = .
$L200:
	.loc 1 2165 0
	beql	$24,$0,$L384
	lbu	$4,1($23)

$LVL229 = .
$LBB98 = .
$LBB99 = .
	.loc 1 408 0
	lw	$4,32($sp)
	jal	free_fragEntry
	sw	$3,56($sp)

$LVL230 = .
	lw	$3,56($sp)
$LVL231 = .
$L201:
$LBE99 = .
$LBE98 = .
	.loc 1 2191 0
	lbu	$4,1($23)
$L384:
	lbu	$10,10($22)
	sltu	$5,$4,13
	beq	$5,$0,$L203
	lbu	$2,11($22)

	sll	$5,$4,2
	lui	$4,%hi($L205)
	addiu	$4,$4,%lo($L205)
	addu	$4,$4,$5
	lw	$4,0($4)
	j	$4
	nop

	.section	.rodata.enter_fast_path_skb,"a",@progbits
	.align	2
	.align	2
$L205:
	.word	$L204
	.word	$L206
	.word	$L207
	.word	$L207
	.word	$L208
	.word	$L203
	.word	$L203
	.word	$L203
	.word	$L209
	.word	$L203
	.word	$L203
	.word	$L203
	.word	$L209
	.section	.text.enter_fast_path_skb
$L206:
$LVL232 = .
$LBB100 = .
	.loc 1 2196 0
	lw	$6,24($23)
$LVL233 = .
	andi	$7,$16,0xffff
	srl	$5,$16,16
	srl	$11,$6,16
	andi	$4,$6,0xffff
	addu	$11,$11,$4
	subu	$7,$7,$11
	addu	$7,$7,$5
$LVL234 = .
	sll	$5,$2,8
	or	$5,$5,$10
	addu	$5,$7,$5
$LVL235 = .
	bgez	$5,$L210
	sra	$2,$5,16

	.loc 1 2196 0 is_stmt 0 discriminator 1
	subu	$5,$0,$5
$LVL236 = .
	sra	$2,$5,16
	andi	$5,$5,0xffff
$LVL237 = .
	addu	$5,$2,$5
$LVL238 = .
	sra	$2,$5,16
$LVL239 = .
	addu	$5,$5,$2
$LVL240 = .
$LBE100 = .
$LBE145 = .
	j	$L347
	nor	$5,$0,$5

$LVL241 = .
$L210:
$LBB146 = .
$LBB101 = .
	.loc 1 2196 0 discriminator 2
	andi	$5,$5,0xffff
$LVL242 = .
	addu	$5,$2,$5
$LVL243 = .
	sra	$2,$5,16
$LVL244 = .
	addu	$5,$5,$2
$LVL245 = .
$L347:
	andi	$5,$5,0xffff
$LBE101 = .
	.loc 1 2197 0 is_stmt 1 discriminator 2
	lw	$24,24($sp)
$LBB102 = .
	.loc 1 2196 0 discriminator 2
	sb	$5,10($22)
	srl	$5,$5,8
$LBE102 = .
	.loc 1 2197 0 discriminator 2
	beq	$24,$0,$L218
	sb	$5,11($22)

	.loc 1 2199 0
	li	$2,17			# 0x11
	bnel	$18,$2,$L213
	lwl	$2,15($22)

	.loc 1 2201 0
	beql	$3,$0,$L385
	swl	$6,15($22)

	.loc 1 2201 0 is_stmt 0 discriminator 1
	lhu	$10,0($3)
	beql	$10,$0,$L385
	swl	$6,15($22)

$LVL246 = .
$LBB103 = .
	.loc 1 2204 0 is_stmt 1
	lwl	$7,15($22)
	lwr	$7,12($22)
$LVL247 = .
	andi	$5,$7,0xffff
	subu	$4,$5,$11
$LVL248 = .
	srl	$2,$7,16
	addu	$2,$4,$2
$LVL249 = .
$LBE103 = .
$LBE146 = .
	j	$L369
	addu	$2,$2,$10

$LVL250 = .
$L213:
$LBB147 = .
$LBB104 = .
	.loc 1 2209 0
	lwr	$2,12($22)
$LVL251 = .
	andi	$4,$2,0xffff
$LVL252 = .
	subu	$4,$4,$11
	srl	$2,$2,16
$LVL253 = .
	addu	$2,$4,$2
$LVL254 = .
	lhu	$4,0($3)
	addu	$2,$2,$4
$LVL255 = .
$L369:
	bgez	$2,$L215
	sra	$4,$2,16

	.loc 1 2209 0 is_stmt 0 discriminator 1
	subu	$2,$0,$2
$LVL256 = .
	sra	$4,$2,16
	andi	$2,$2,0xffff
$LVL257 = .
	addu	$2,$4,$2
$LVL258 = .
	sra	$4,$2,16
$LVL259 = .
	addu	$2,$2,$4
$LVL260 = .
$LBE104 = .
$LBE147 = .
	j	$L348
	nor	$2,$0,$2

$LVL261 = .
$L215:
$LBB148 = .
$LBB105 = .
	.loc 1 2209 0 discriminator 2
	andi	$2,$2,0xffff
$LVL262 = .
	addu	$2,$4,$2
$LVL263 = .
	sra	$4,$2,16
$LVL264 = .
	addu	$2,$2,$4
$LVL265 = .
$L348:
$LBE105 = .
$LBE148 = .
	j	$L218
	sh	$2,0($3)

$L207:
$LVL266 = .
$LBB149 = .
$LBB106 = .
	.loc 1 2221 0 is_stmt 1
	lw	$6,24($23)
$LVL267 = .
	andi	$7,$16,0xffff
	srl	$16,$16,16
$LVL268 = .
	srl	$5,$6,16
	andi	$4,$6,0xffff
	addu	$4,$5,$4
	sll	$5,$2,8
	subu	$7,$7,$4
	or	$5,$5,$10
	addu	$7,$7,$16
$LVL269 = .
	addu	$16,$7,$5
$LVL270 = .
	bgez	$16,$L216
	sra	$2,$16,16

	.loc 1 2221 0 is_stmt 0 discriminator 1
	subu	$16,$0,$16
$LVL271 = .
	sra	$2,$16,16
	andi	$16,$16,0xffff
$LVL272 = .
	addu	$16,$2,$16
$LVL273 = .
	sra	$2,$16,16
$LVL274 = .
	addu	$16,$16,$2
$LVL275 = .
$LBE106 = .
$LBE149 = .
	j	$L349
	nor	$16,$0,$16

$LVL276 = .
$L216:
$LBB150 = .
$LBB107 = .
	.loc 1 2221 0 discriminator 2
	andi	$16,$16,0xffff
$LVL277 = .
	addu	$16,$2,$16
$LVL278 = .
	sra	$2,$16,16
$LVL279 = .
	addu	$16,$16,$2
$LVL280 = .
$L349:
	andi	$16,$16,0xffff
$LBE107 = .
	.loc 1 2222 0 is_stmt 1 discriminator 2
	lw	$24,24($sp)
$LBB108 = .
	.loc 1 2221 0 discriminator 2
	sb	$16,10($22)
	srl	$16,$16,8
$LBE108 = .
	.loc 1 2222 0 discriminator 2
	beq	$24,$0,$L218
	sb	$16,11($22)

	.loc 1 2224 0
	li	$2,17			# 0x11
	bne	$18,$2,$L219
	lw	$7,28($23)

	.loc 1 2227 0
	beql	$3,$0,$L386
	andi	$7,$7,0xffff

	.loc 1 2227 0 is_stmt 0 discriminator 1
	lhu	$12,0($3)
	beql	$12,$0,$L386
	andi	$7,$7,0xffff

$LVL281 = .
$LBB109 = .
	.loc 1 2230 0 is_stmt 1
	lwl	$11,15($22)
	lbu	$2,0($fp)
	lwr	$11,12($22)
$LVL282 = .
	andi	$10,$11,0xffff
	subu	$5,$10,$4
	srl	$4,$11,16
	addu	$4,$5,$4
$LVL283 = .
	lbu	$5,1($fp)
	sll	$5,$5,8
	or	$2,$5,$2
	addu	$2,$4,$2
	subu	$2,$2,$7
$LVL284 = .
$LBE109 = .
$LBE150 = .
	j	$L371
	addu	$2,$2,$12

$LVL285 = .
$L219:
$LBB151 = .
$LBB110 = .
	.loc 1 2235 0
	lwl	$2,15($22)
	lwr	$2,12($22)
$LVL286 = .
	andi	$5,$2,0xffff
	subu	$5,$5,$4
	srl	$2,$2,16
$LVL287 = .
	addu	$4,$5,$2
$LVL288 = .
	lbu	$2,1($fp)
	lbu	$5,0($fp)
	sll	$2,$2,8
	or	$2,$2,$5
	addu	$2,$4,$2
	lhu	$4,0($3)
$LVL289 = .
	subu	$2,$2,$7
$LVL290 = .
	addu	$2,$2,$4
$LVL291 = .
$L371:
	bgez	$2,$L222
	sra	$4,$2,16

	.loc 1 2235 0 is_stmt 0 discriminator 1
	subu	$2,$0,$2
$LVL292 = .
	sra	$4,$2,16
	andi	$2,$2,0xffff
$LVL293 = .
	addu	$2,$4,$2
$LVL294 = .
	sra	$4,$2,16
$LVL295 = .
	addu	$2,$2,$4
$LVL296 = .
$LBE110 = .
$LBE151 = .
	j	$L350
	nor	$2,$0,$2

$LVL297 = .
$L222:
$LBB152 = .
$LBB111 = .
	.loc 1 2235 0 discriminator 2
	andi	$2,$2,0xffff
$LVL298 = .
	addu	$2,$4,$2
$LVL299 = .
	sra	$4,$2,16
$LVL300 = .
	addu	$2,$2,$4
$LVL301 = .
$L350:
	sh	$2,0($3)
$LBE111 = .
	.loc 1 2241 0 is_stmt 1
	andi	$7,$7,0xffff
$L386:
	sb	$7,0($fp)
	srl	$7,$7,8
	sb	$7,1($fp)
$L218:
	.loc 1 2243 0
	swl	$6,15($22)
$L385:
	.loc 1 2244 0
	j	$L204
	swr	$6,12($22)

$LVL302 = .
$L208:
$LBB112 = .
	.loc 1 2251 0
	lw	$4,32($23)
$LVL303 = .
	srl	$6,$17,16
	sll	$2,$2,8
	andi	$17,$17,0xffff
$LVL304 = .
	srl	$7,$4,16
	andi	$5,$4,0xffff
	addu	$5,$5,$7
	or	$10,$2,$10
	subu	$5,$6,$5
	addu	$17,$5,$17
$LVL305 = .
	addu	$10,$17,$10
$LVL306 = .
	bgez	$10,$L223
	sra	$2,$10,16

	.loc 1 2251 0 is_stmt 0 discriminator 1
	subu	$10,$0,$10
$LVL307 = .
	sra	$2,$10,16
	andi	$10,$10,0xffff
$LVL308 = .
	addu	$10,$2,$10
$LVL309 = .
	sra	$2,$10,16
$LVL310 = .
	addu	$10,$10,$2
$LVL311 = .
$LBE112 = .
$LBE152 = .
	j	$L351
	nor	$10,$0,$10

$LVL312 = .
$L223:
$LBB153 = .
$LBB113 = .
	.loc 1 2251 0 discriminator 2
	andi	$10,$10,0xffff
$LVL313 = .
	addu	$10,$2,$10
$LVL314 = .
	sra	$2,$10,16
$LVL315 = .
	addu	$10,$10,$2
$LVL316 = .
$L351:
	andi	$10,$10,0xffff
$LBE113 = .
	.loc 1 2252 0 is_stmt 1 discriminator 2
	lw	$24,24($sp)
$LBB114 = .
	.loc 1 2251 0 discriminator 2
	sb	$10,10($22)
	srl	$10,$10,8
$LBE114 = .
	.loc 1 2252 0 discriminator 2
	beq	$24,$0,$L225
	sb	$10,11($22)

	.loc 1 2254 0
	li	$2,17			# 0x11
	bnel	$18,$2,$L226
	lhu	$2,0($3)

	.loc 1 2257 0
	beql	$3,$0,$L387
	swl	$4,19($22)

	.loc 1 2257 0 is_stmt 0 discriminator 1
	lhu	$2,0($3)
	beql	$2,$0,$L387
	swl	$4,19($22)

	j	$L379
	addu	$17,$17,$2

$L226:
$LVL317 = .
$LBB115 = .
	.loc 1 2265 0 is_stmt 1
	addu	$17,$17,$2
$LVL318 = .
$L379:
	bgez	$17,$L228
	sra	$2,$17,16

	.loc 1 2265 0 is_stmt 0 discriminator 1
	subu	$17,$0,$17
$LVL319 = .
	sra	$2,$17,16
	andi	$17,$17,0xffff
$LVL320 = .
	addu	$17,$2,$17
$LVL321 = .
	sra	$2,$17,16
$LVL322 = .
	addu	$17,$17,$2
$LVL323 = .
$LBE115 = .
$LBE153 = .
	j	$L352
	nor	$17,$0,$17

$LVL324 = .
$L228:
$LBB154 = .
$LBB116 = .
	.loc 1 2265 0 discriminator 2
	andi	$17,$17,0xffff
$LVL325 = .
	addu	$17,$2,$17
$LVL326 = .
	sra	$2,$17,16
$LVL327 = .
	addu	$17,$17,$2
$LVL328 = .
$L352:
	sh	$17,0($3)
$L225:
$LBE116 = .
	.loc 1 2268 0 is_stmt 1
	swl	$4,19($22)
$L387:
	.loc 1 2269 0
	j	$L204
	swr	$4,16($22)

$LVL329 = .
$L209:
$LBB117 = .
	.loc 1 2277 0
	lw	$6,32($23)
$LVL330 = .
	srl	$5,$17,16
	sll	$2,$2,8
	andi	$17,$17,0xffff
$LVL331 = .
	srl	$7,$6,16
	andi	$4,$6,0xffff
	addu	$4,$4,$7
	or	$10,$2,$10
	subu	$4,$5,$4
	addu	$17,$4,$17
$LVL332 = .
	addu	$10,$17,$10
$LVL333 = .
	bgez	$10,$L229
	sra	$2,$10,16

	.loc 1 2277 0 is_stmt 0 discriminator 1
	subu	$10,$0,$10
$LVL334 = .
	sra	$2,$10,16
	andi	$10,$10,0xffff
$LVL335 = .
	addu	$10,$2,$10
$LVL336 = .
	sra	$2,$10,16
$LVL337 = .
	addu	$10,$10,$2
$LVL338 = .
$LBE117 = .
$LBE154 = .
	j	$L353
	nor	$10,$0,$10

$LVL339 = .
$L229:
$LBB155 = .
$LBB118 = .
	.loc 1 2277 0 discriminator 2
	andi	$10,$10,0xffff
$LVL340 = .
	addu	$10,$2,$10
$LVL341 = .
	sra	$2,$10,16
$LVL342 = .
	addu	$10,$10,$2
$LVL343 = .
$L353:
	andi	$10,$10,0xffff
$LBE118 = .
	.loc 1 2278 0 is_stmt 1 discriminator 2
	lw	$24,24($sp)
$LBB119 = .
	.loc 1 2277 0 discriminator 2
	sb	$10,10($22)
	srl	$10,$10,8
$LBE119 = .
	.loc 1 2278 0 discriminator 2
	beq	$24,$0,$L231
	sb	$10,11($22)

	.loc 1 2280 0
	li	$2,17			# 0x11
	bne	$18,$2,$L232
	lw	$5,36($23)

	.loc 1 2283 0
	beql	$3,$0,$L388
	andi	$5,$5,0xffff

	.loc 1 2283 0 is_stmt 0 discriminator 1
	lhu	$2,0($3)
	beql	$2,$0,$L388
	andi	$5,$5,0xffff

$LVL344 = .
$LBB120 = .
	.loc 1 2286 0 is_stmt 1
	lbu	$4,3($fp)
	lbu	$7,2($fp)
	sll	$4,$4,8
	or	$4,$4,$7
	addu	$17,$17,$4
$LVL345 = .
	subu	$17,$17,$5
$LVL346 = .
	addu	$2,$17,$2
$LVL347 = .
	bgez	$2,$L234
	sra	$4,$2,16

	.loc 1 2286 0 is_stmt 0 discriminator 1
	subu	$2,$0,$2
$LVL348 = .
	sra	$4,$2,16
	andi	$2,$2,0xffff
$LVL349 = .
	addu	$2,$4,$2
$LVL350 = .
	sra	$4,$2,16
$LVL351 = .
	addu	$2,$2,$4
$LVL352 = .
$LBE120 = .
$LBE155 = .
	j	$L354
	nor	$2,$0,$2

$LVL353 = .
$L234:
$LBB156 = .
$LBB121 = .
	.loc 1 2286 0 discriminator 2
	andi	$2,$2,0xffff
$LVL354 = .
	addu	$2,$4,$2
$LVL355 = .
	sra	$4,$2,16
$LVL356 = .
	addu	$2,$2,$4
$LVL357 = .
$L354:
$LBE121 = .
$LBE156 = .
	j	$L233
	sh	$2,0($3)

$L232:
$LVL358 = .
$LBB157 = .
$LBB122 = .
	.loc 1 2291 0 is_stmt 1
	lbu	$2,3($fp)
	lbu	$4,2($fp)
	sll	$2,$2,8
	or	$2,$2,$4
	addu	$17,$17,$2
$LVL359 = .
	lhu	$2,0($3)
	subu	$17,$17,$5
$LVL360 = .
	addu	$17,$17,$2
$LVL361 = .
	bgez	$17,$L235
	sra	$2,$17,16

	.loc 1 2291 0 is_stmt 0 discriminator 1
	subu	$17,$0,$17
$LVL362 = .
	sra	$2,$17,16
	andi	$17,$17,0xffff
$LVL363 = .
	addu	$17,$2,$17
$LVL364 = .
	sra	$2,$17,16
$LVL365 = .
	addu	$17,$17,$2
$LVL366 = .
$LBE122 = .
$LBE157 = .
	j	$L355
	nor	$17,$0,$17

$LVL367 = .
$L235:
$LBB158 = .
$LBB123 = .
	.loc 1 2291 0 discriminator 2
	andi	$17,$17,0xffff
$LVL368 = .
	addu	$17,$2,$17
$LVL369 = .
	sra	$2,$17,16
$LVL370 = .
	addu	$17,$17,$2
$LVL371 = .
$L355:
	sh	$17,0($3)
$L233:
$LBE123 = .
	.loc 1 2293 0 is_stmt 1
	andi	$5,$5,0xffff
$L388:
	sb	$5,2($fp)
	srl	$5,$5,8
	sb	$5,3($fp)
$L231:
	.loc 1 2295 0
	swl	$6,19($22)
	.loc 1 2296 0
	j	$L204
	swr	$6,16($22)

$LVL372 = .
$L203:
$LBB124 = .
	.loc 1 2299 0
	lw	$4,24($23)
$LVL373 = .
	srl	$6,$16,16
	sll	$2,$2,8
	andi	$16,$16,0xffff
$LVL374 = .
	srl	$7,$4,16
	andi	$5,$4,0xffff
	addu	$5,$5,$7
	subu	$5,$6,$5
	addu	$16,$5,$16
$LVL375 = .
	or	$5,$2,$10
	addu	$5,$16,$5
$LVL376 = .
	bgez	$5,$L236
	sra	$2,$5,16

	.loc 1 2299 0 is_stmt 0 discriminator 1
	subu	$5,$0,$5
$LVL377 = .
	sra	$2,$5,16
	andi	$5,$5,0xffff
$LVL378 = .
	addu	$5,$2,$5
$LVL379 = .
	sra	$2,$5,16
$LVL380 = .
	addu	$5,$5,$2
$LVL381 = .
$LBE124 = .
$LBE158 = .
	j	$L356
	nor	$5,$0,$5

$LVL382 = .
$L236:
$LBB159 = .
$LBB125 = .
	.loc 1 2299 0 discriminator 2
	andi	$5,$5,0xffff
$LVL383 = .
	addu	$5,$2,$5
$LVL384 = .
	sra	$2,$5,16
$LVL385 = .
	addu	$5,$5,$2
$LVL386 = .
$L356:
	andi	$5,$5,0xffff
$LBE125 = .
$LBB126 = .
	.loc 1 2300 0 is_stmt 1 discriminator 2
	srl	$6,$17,16
$LBE126 = .
$LBB127 = .
	.loc 1 2299 0 discriminator 2
	sb	$5,10($22)
	srl	$5,$5,8
$LBE127 = .
$LBB128 = .
	.loc 1 2300 0 discriminator 2
	andi	$17,$17,0xffff
$LVL387 = .
$LBE128 = .
$LBB129 = .
	.loc 1 2299 0 discriminator 2
	sb	$5,11($22)
$LVL388 = .
$LBE129 = .
$LBB130 = .
	.loc 1 2300 0 discriminator 2
	lw	$5,32($23)
	srl	$7,$5,16
	andi	$2,$5,0xffff
	addu	$2,$2,$7
	subu	$2,$6,$2
	lbu	$6,10($22)
	addu	$17,$2,$17
$LVL389 = .
	lbu	$2,11($22)
	sll	$2,$2,8
	or	$2,$2,$6
	addu	$2,$17,$2
$LVL390 = .
	bgez	$2,$L238
	sra	$6,$2,16

	.loc 1 2300 0 is_stmt 0 discriminator 1
	subu	$2,$0,$2
$LVL391 = .
	sra	$6,$2,16
	andi	$2,$2,0xffff
$LVL392 = .
	addu	$2,$6,$2
$LVL393 = .
	sra	$6,$2,16
$LVL394 = .
	addu	$2,$2,$6
$LVL395 = .
$LBE130 = .
$LBE159 = .
	j	$L357
	nor	$2,$0,$2

$LVL396 = .
$L238:
$LBB160 = .
$LBB131 = .
	.loc 1 2300 0 discriminator 2
	andi	$2,$2,0xffff
$LVL397 = .
	addu	$2,$6,$2
$LVL398 = .
	sra	$6,$2,16
$LVL399 = .
	addu	$2,$2,$6
$LVL400 = .
$L357:
	andi	$2,$2,0xffff
$LBE131 = .
	.loc 1 2302 0 is_stmt 1 discriminator 2
	lw	$24,24($sp)
$LBB132 = .
	.loc 1 2300 0 discriminator 2
	sb	$2,10($22)
	srl	$2,$2,8
$LBE132 = .
	.loc 1 2302 0 discriminator 2
	beq	$24,$0,$L240
	sb	$2,11($22)

	.loc 1 2304 0
	li	$2,17			# 0x11
	lw	$7,28($23)
	bne	$18,$2,$L241
	lw	$6,36($23)

	.loc 1 2307 0
	beql	$3,$0,$L389
	andi	$7,$7,0xffff

	.loc 1 2307 0 is_stmt 0 discriminator 1
	lhu	$2,0($3)
	beql	$2,$0,$L389
	andi	$7,$7,0xffff

$LVL401 = .
$LBB133 = .
	.loc 1 2310 0 is_stmt 1
	lbu	$10,1($fp)
	lbu	$11,0($fp)
	sll	$10,$10,8
	or	$10,$10,$11
	addu	$16,$16,$10
$LVL402 = .
	subu	$16,$16,$7
$LVL403 = .
	addu	$2,$16,$2
$LVL404 = .
	bgez	$2,$L243
	sra	$10,$2,16

	.loc 1 2310 0 is_stmt 0 discriminator 1
	subu	$2,$0,$2
$LVL405 = .
	sra	$10,$2,16
	andi	$2,$2,0xffff
$LVL406 = .
	addu	$2,$10,$2
$LVL407 = .
	sra	$10,$2,16
$LVL408 = .
	addu	$2,$2,$10
$LVL409 = .
$LBE133 = .
$LBE160 = .
	j	$L358
	nor	$2,$0,$2

$LVL410 = .
$L243:
$LBB161 = .
$LBB134 = .
	.loc 1 2310 0 discriminator 2
	andi	$2,$2,0xffff
$LVL411 = .
	addu	$2,$10,$2
$LVL412 = .
	sra	$10,$2,16
$LVL413 = .
	addu	$2,$2,$10
$LVL414 = .
$L358:
$LBE134 = .
$LBE161 = .
	j	$L375
	sh	$2,0($3)

$LVL415 = .
$L241:
$LBB162 = .
$LBB135 = .
	.loc 1 2316 0 is_stmt 1
	lbu	$2,1($fp)
	lbu	$10,0($fp)
	sll	$2,$2,8
	or	$2,$2,$10
	addu	$16,$16,$2
$LVL416 = .
	lhu	$2,0($3)
	subu	$16,$16,$7
$LVL417 = .
	addu	$16,$16,$2
$LVL418 = .
	bgez	$16,$L246
	sra	$2,$16,16

	.loc 1 2316 0 is_stmt 0 discriminator 1
	subu	$16,$0,$16
$LVL419 = .
	sra	$2,$16,16
	andi	$16,$16,0xffff
$LVL420 = .
	addu	$16,$2,$16
$LVL421 = .
	sra	$2,$16,16
$LVL422 = .
	addu	$16,$16,$2
$LVL423 = .
$LBE135 = .
$LBE162 = .
	j	$L359
	nor	$16,$0,$16

$LVL424 = .
$L246:
$LBB163 = .
$LBB136 = .
	.loc 1 2316 0 discriminator 2
	andi	$16,$16,0xffff
$LVL425 = .
	addu	$16,$2,$16
$LVL426 = .
	sra	$2,$16,16
$LVL427 = .
	addu	$16,$16,$2
$LVL428 = .
$L359:
	sh	$16,0($3)
$L375:
$LVL429 = .
$LBE136 = .
$LBB137 = .
	.loc 1 2317 0 is_stmt 1 discriminator 2
	lbu	$2,3($fp)
	lbu	$10,2($fp)
	sll	$2,$2,8
	or	$2,$2,$10
	addu	$17,$17,$2
$LVL430 = .
	lhu	$2,0($3)
	subu	$17,$17,$6
$LVL431 = .
	addu	$17,$17,$2
$LVL432 = .
	bgez	$17,$L248
	sra	$2,$17,16

	.loc 1 2317 0 is_stmt 0 discriminator 1
	subu	$17,$0,$17
$LVL433 = .
	sra	$2,$17,16
	andi	$17,$17,0xffff
$LVL434 = .
	addu	$17,$2,$17
$LVL435 = .
	sra	$2,$17,16
$LVL436 = .
	addu	$17,$17,$2
$LVL437 = .
$LBE137 = .
$LBE163 = .
	j	$L360
	nor	$17,$0,$17

$LVL438 = .
$L248:
$LBB164 = .
$LBB138 = .
	.loc 1 2317 0 discriminator 2
	andi	$17,$17,0xffff
$LVL439 = .
	addu	$17,$2,$17
$LVL440 = .
	sra	$2,$17,16
$LVL441 = .
	addu	$17,$17,$2
$LVL442 = .
$L360:
	sh	$17,0($3)
$LBE138 = .
	.loc 1 2319 0 is_stmt 1
	andi	$7,$7,0xffff
$L389:
	.loc 1 2320 0
	andi	$6,$6,0xffff
	.loc 1 2319 0
	sb	$7,0($fp)
	srl	$7,$7,8
	.loc 1 2320 0
	sb	$6,2($fp)
	srl	$6,$6,8
	.loc 1 2319 0
	sb	$7,1($fp)
	.loc 1 2320 0
	sb	$6,3($fp)
$L240:
	.loc 1 2323 0
	swl	$4,15($22)
	swr	$4,12($22)
	.loc 1 2324 0
	swl	$5,19($22)
	swr	$5,16($22)
$L204:
	.loc 1 2342 0
	lbu	$3,8($22)
	.loc 1 2341 0
	lhu	$2,8($22)
$LVL443 = .
$LBB139 = .
	.loc 1 2344 0
	lbu	$4,10($22)
$LBE139 = .
	.loc 1 2342 0
	addiu	$3,$3,-1
	sb	$3,8($22)
$LVL444 = .
$LBB140 = .
	.loc 1 2344 0
	lhu	$3,8($22)
	subu	$3,$2,$3
$LVL445 = .
	lbu	$2,11($22)
$LVL446 = .
	sll	$2,$2,8
	or	$2,$2,$4
	addu	$2,$3,$2
$LVL447 = .
	bgez	$2,$L249
	sra	$3,$2,16

$LVL448 = .
$LBE140 = .
$LBE164 = .
	.loc 1 2344 0 is_stmt 0 discriminator 1
	j	$L361
	addiu	$2,$2,-1

$LVL449 = .
$L249:
$LBB165 = .
$LBB141 = .
	.loc 1 2344 0 discriminator 2
	andi	$2,$2,0xffff
$LVL450 = .
	addu	$2,$3,$2
$LVL451 = .
	sra	$3,$2,16
$LVL452 = .
	addu	$2,$2,$3
$LVL453 = .
$L361:
	andi	$2,$2,0xffff
	sb	$2,10($22)
	srl	$2,$2,8
$LBE141 = .
	.loc 1 2355 0 is_stmt 1 discriminator 2
	jal	rtl_getTimeStamp
	sb	$2,11($22)

$LVL454 = .
	.loc 1 2357 0 discriminator 2
	move	$5,$fp
	lw	$7,60($21)
	move	$4,$22
	lw	$6,48($sp)
	jal	fast_path_post_process_xmit_check
	sw	$2,40($23)

$LVL455 = .
	li	$24,1			# 0x1
	beq	$2,$24,$L362
	li	$24,6			# 0x6

	.loc 1 2359 0
	beq	$2,$24,$L189
	li	$24,23			# 0x17

$LBB142 = .
	.loc 1 2411 0
	lw	$4,60($21)
	lbu	$2,72($4)
$LVL456 = .
	beq	$2,$24,$L189
	lw	$5,48($sp)

	.loc 1 2413 0
	move	$7,$21
	jal	ip_finish_output3_skb
	move	$6,$19

$LVL457 = .
$LBE142 = .
	.loc 1 2416 0
	beql	$20,$0,$L342
	li	$2,1			# 0x1

	.loc 1 2416 0 is_stmt 0 discriminator 1
	beq	$2,$0,$L362
	li	$24,355			# 0x163

	.loc 1 2417 0 is_stmt 1
	bnel	$2,$24,$L253
	lw	$24,172($20)

	.loc 1 2418 0
	lw	$24,168($20)
	addiu	$24,$24,1
$LBE165 = .
	j	$L362
	sw	$24,168($20)

$L253:
$LBB166 = .
	.loc 1 2420 0
	addiu	$24,$24,1
	sw	$24,172($20)
$LVL458 = .
$L362:
$LBE166 = .
	.loc 1 2423 0
	j	$L342
	li	$2,1			# 0x1

$LVL459 = .
$L177:
$L380:
	.loc 1 1996 0
	andi	$2,$2,0x7
	beq	$2,$0,$L176
	move	$2,$0

$LVL460 = .
$L342:
	.loc 1 2432 0
	lw	$31,100($sp)
$L390:
	lw	$fp,96($sp)
	lw	$23,92($sp)
	lw	$22,88($sp)
$LVL461 = .
	lw	$21,84($sp)
$LVL462 = .
	lw	$20,80($sp)
	lw	$19,76($sp)
	lw	$18,72($sp)
	lw	$17,68($sp)
	lw	$16,64($sp)
	j	$31
	addiu	$sp,$sp,104

	.cfi_def_cfa_offset 0
	.cfi_restore 16
	.cfi_restore 17
	.cfi_restore 18
	.cfi_restore 19
	.cfi_restore 20
	.cfi_restore 21
	.cfi_restore 22
	.cfi_restore 23
	.cfi_restore 30
	.cfi_restore 31
	.set	macro
	.set	reorder
	.end	enter_fast_path_skb
	.cfi_endproc
$LFE96:
	.size	enter_fast_path_skb, .-enter_fast_path_skb
	.section	.text.enter_fast_path,"ax",@progbits
	.align	2
	.globl	enter_fast_path
$LFB97 = .
	.loc 1 2436 0
	.cfi_startproc
	.set	nomips16
	.set	nomicromips
	.ent	enter_fast_path
	.type	enter_fast_path, @function
enter_fast_path:
	.frame	$sp,136,$31		# vars= 72, regs= 10/0, args= 24, gp= 0
	.mask	0xc0ff0000,-4
	.fmask	0x00000000,0
	.set	noreorder
	.set	nomacro
$LVL463 = .
	addiu	$sp,$sp,-136
	.cfi_def_cfa_offset 136
	sw	$31,132($sp)
	sw	$fp,128($sp)
	sw	$23,124($sp)
	sw	$22,120($sp)
	sw	$21,116($sp)
	sw	$20,112($sp)
	sw	$19,108($sp)
	sw	$18,104($sp)
	sw	$17,100($sp)
	sw	$16,96($sp)
	.cfi_offset 31, -4
	.cfi_offset 30, -8
	.cfi_offset 23, -12
	.cfi_offset 22, -16
	.cfi_offset 21, -20
	.cfi_offset 20, -24
	.cfi_offset 19, -28
	.cfi_offset 18, -32
	.cfi_offset 17, -36
	.cfi_offset 16, -40
$LVL464 = .
	.loc 1 2475 0
	sw	$0,24($sp)
	sw	$0,28($sp)
	sw	$0,32($sp)
	sw	$0,36($sp)
	sw	$0,40($sp)
	sw	$0,44($sp)
	sw	$0,48($sp)
$LVL465 = .
	.loc 1 2480 0
	lw	$fp,8($5)
	.loc 1 2478 0
	lw	$24,4($4)
	.loc 1 2436 0
	sw	$5,140($sp)
	.loc 1 2482 0
	lbu	$2,8($fp)
$LVL466 = .
	sltu	$2,$2,2
	bne	$2,$0,$L410
	sw	$24,80($sp)

	.loc 1 2486 0
	lbu	$19,9($fp)
$LVL467 = .
	.loc 1 2489 0
	li	$2,6			# 0x6
	beq	$19,$2,$L394
	li	$2,17			# 0x11

	.loc 1 2489 0 is_stmt 0 discriminator 1
	bne	$19,$2,$L536
	move	$2,$0

$L394:
	.loc 1 2499 0 is_stmt 1
	lbu	$8,0($fp)
	sw	$6,84($sp)
	.loc 1 2501 0
	move	$6,$5
$LVL468 = .
	sw	$4,88($sp)
	move	$4,$fp
$LVL469 = .
	.loc 1 2499 0
	andi	$8,$8,0xf
	sll	$8,$8,2
	addu	$23,$fp,$8
$LVL470 = .
	.loc 1 2501 0
	jal	fast_path_pre_process_check
	move	$5,$23

$LVL471 = .
	.loc 1 2502 0
	li	$3,6			# 0x6
	.loc 1 2501 0
	move	$21,$2
$LVL472 = .
	.loc 1 2502 0
	bne	$21,$3,$L601
	lw	$31,132($sp)

	.loc 1 2506 0
	lui	$16,%hi($LC0)
	lw	$4,80($sp)
	jal	strcmp
	addiu	$5,$16,%lo($LC0)

$LVL473 = .
	beq	$2,$0,$L536
	move	$2,$0

$LVL474 = .
$LBB167 = .
	.loc 1 2522 0
	lbu	$16,7($fp)
	lbu	$2,6($fp)
$LBE167 = .
	.loc 1 2525 0
	lbu	$20,0($23)
$LBB168 = .
	.loc 1 2522 0
	sll	$16,$16,8
$LBE168 = .
	.loc 1 2523 0
	lwl	$17,15($fp)
	.loc 1 2524 0
	lwl	$18,19($fp)
$LBB169 = .
	.loc 1 2522 0
	or	$16,$16,$2
$LBE169 = .
	.loc 1 2525 0
	lbu	$2,1($23)
	wsbh	$16,$16
	.loc 1 2523 0
	lwr	$17,12($fp)
	.loc 1 2525 0
	sll	$2,$2,8
	.loc 1 2524 0
	lwr	$18,16($fp)
	andi	$16,$16,0xffff
$LVL475 = .
	.loc 1 2525 0
	or	$2,$2,$20
	sw	$2,60($sp)
$LVL476 = .
	.loc 1 2526 0
	lbu	$2,3($23)
$LVL477 = .
	lbu	$3,2($23)
	sll	$2,$2,8
	or	$2,$2,$3
	andi	$3,$16,0x3fff
$LVL478 = .
	.loc 1 2529 0
	bne	$19,$21,$L396
	sw	$2,72($sp)

	.loc 1 2537 0
	beql	$3,$0,$L602
	lbu	$2,13($23)

	.loc 1 2538 0
	li	$2,8192			# 0x2000
$LVL479 = .
	beql	$16,$2,$L397
	lbu	$2,13($23)

$LVL480 = .
$L396:
	.loc 1 2586 0
	beq	$3,$0,$L477
	move	$22,$0

	.loc 1 2591 0
	li	$2,8192			# 0x2000
	beq	$16,$2,$L478
	andi	$2,$16,0x2000

	.loc 1 2593 0
	bnel	$2,$0,$L479
	sw	$0,76($sp)

	.loc 1 2593 0 is_stmt 0 discriminator 1
	andi	$16,$16,0x1fff
$LVL481 = .
	sltu	$16,$0,$16
	j	$L399
	sw	$16,76($sp)

$LVL482 = .
$L478:
	.loc 1 2457 0 is_stmt 1
	sw	$0,76($sp)
	.loc 1 2592 0
	j	$L399
	li	$22,1			# 0x1

$L479:
$LVL483 = .
	.loc 1 2457 0
	move	$22,$0
$L399:
$LVL484 = .
	.loc 1 2596 0
	lbu	$2,5($fp)
	move	$7,$19
	lbu	$4,4($fp)
	move	$6,$18
	move	$5,$17
	sll	$2,$2,8
	jal	find_fragEntry
	or	$4,$2,$4

$LVL485 = .
	.loc 1 2597 0
	beq	$2,$0,$L400
	sw	$2,64($sp)

	.loc 1 2599 0
	lhu	$24,12($2)
	.loc 1 2602 0
	sw	$0,56($sp)
	.loc 1 2599 0
	sw	$24,60($sp)
$LVL486 = .
	.loc 1 2600 0
	lhu	$24,14($2)
$LVL487 = .
	.loc 1 2601 0
	beq	$22,$0,$L398
	sw	$24,72($sp)

	j	$L567
	li	$22,1			# 0x1

$LVL488 = .
$L400:
	.loc 1 2606 0
	beq	$22,$0,$L410
	li	$22,1			# 0x1

$LVL489 = .
	.loc 1 2449 0
	j	$L611
	li	$24,1			# 0x1

$LVL490 = .
$L477:
	.loc 1 2459 0
	sw	$0,64($sp)
	.loc 1 2457 0
	sw	$0,76($sp)
$LVL491 = .
$L567:
	.loc 1 2449 0
	li	$24,1			# 0x1
$L611:
	sw	$24,56($sp)
$L398:
$LVL492 = .
	.loc 1 2616 0
	lw	$7,72($sp)
	move	$6,$18
	lw	$5,60($sp)
	move	$4,$17
	jal	FastPath_Hash_PATH_Entry
	sw	$19,16($sp)

$LVL493 = .
	.loc 1 2617 0
	lui	$3,%hi(table_path)
	.loc 1 2626 0
	li	$5,1			# 0x1
	li	$6,17			# 0x11
	.loc 1 2617 0
	lw	$3,%lo(table_path)($3)
	.loc 1 2625 0
	li	$7,6			# 0x6
	.loc 1 2617 0
	lw	$4,0($3)
	li	$3,12			# 0xc
	mul	$24,$2,$3
	.loc 1 2623 0
	li	$3,255			# 0xff
	.loc 1 2617 0
	addu	$2,$24,$4
$LVL494 = .
	.loc 1 2624 0
	li	$4,2			# 0x2
$LVL495 = .
	.loc 1 2617 0
	j	$L401
	lw	$16,0($2)

$L403:
	.loc 1 2626 0
	beq	$2,$5,$L597
	nop

	.loc 1 2617 0 discriminator 2
	lw	$16,60($16)
$LVL496 = .
$L401:
	.loc 1 2617 0 is_stmt 0 discriminator 1
	beq	$16,$0,$L598
	lw	$24,60($sp)

	.loc 1 2619 0 is_stmt 1
	lw	$2,12($16)
	bnel	$2,$24,$L401
	lw	$16,60($16)

	.loc 1 2620 0
	lw	$2,8($16)
	lw	$24,72($sp)
	bnel	$2,$24,$L401
	lw	$16,60($16)

	.loc 1 2621 0
	lw	$2,16($16)
	bnel	$2,$17,$L401
	lw	$16,60($16)

	.loc 1 2622 0
	lw	$2,20($16)
	bnel	$2,$18,$L401
	lw	$16,60($16)

	.loc 1 2623 0
	lbu	$2,0($16)
	bnel	$2,$3,$L401
	lw	$16,60($16)

	.loc 1 2625 0
	lw	$2,4($16)
	.loc 1 2624 0
	bne	$2,$4,$L403
	nop

	.loc 1 2625 0
	bnel	$19,$7,$L401
	lw	$16,60($16)

$LBB170 = .
	.loc 1 2677 0
	lbu	$2,9($fp)
$L599:
	.loc 1 2678 0
	lw	$24,84($sp)
	beq	$24,$0,$L405
	sh	$2,24($sp)

	.loc 1 2679 0
	lw	$24,84($sp)
	addiu	$6,$24,6
	sw	$6,40($sp)
$L405:
	.loc 1 2680 0
	lw	$2,32($16)
	.loc 1 2685 0
	addiu	$5,$sp,24
	.loc 1 2683 0
	lw	$24,60($sp)
	.loc 1 2685 0
	move	$6,$19
	lw	$7,80($sp)
	move	$4,$16
	.loc 1 2682 0
	sw	$17,32($sp)
	.loc 1 2680 0
	sw	$2,36($sp)
	.loc 1 2683 0
	sh	$24,26($sp)
	.loc 1 2681 0
	lw	$2,36($16)
	.loc 1 2685 0
	lw	$24,88($sp)
	.loc 1 2681 0
	sh	$2,28($sp)
	.loc 1 2685 0
	lh	$2,54($24)
	jal	rtk_addNaptQosRuleEntry
	sw	$2,16($sp)

$LVL497 = .
	.loc 1 2686 0
	beql	$2,$0,$L407
	lwl	$5,15($fp)

$LVL498 = .
$L410:
$LBE170 = .
	.loc 1 2687 0
	j	$L536
	move	$2,$0

$LVL499 = .
$L597:
	.loc 1 2626 0 discriminator 1
	bnel	$19,$6,$L401
	lw	$16,60($16)

	.loc 1 2677 0
	j	$L599
	lbu	$2,9($fp)

$LVL500 = .
$L407:
$LBB219 = .
	.loc 1 2689 0
	lw	$21,32($16)
$LVL501 = .
	.loc 1 2692 0
	lbu	$6,1($fp)
	lwr	$5,12($fp)
$LVL502 = .
	jal	rtl_ipflow_lookup
	move	$4,$21

$LVL503 = .
	bne	$2,$0,$L409
	move	$20,$2

	.loc 1 2693 0
	jal	rtl_rtalloc
	move	$4,$21

$LVL504 = .
	.loc 1 2694 0
	beq	$2,$0,$L410
	sw	$2,68($sp)

	.loc 1 2694 0 is_stmt 0 discriminator 1
	lw	$21,0($2)
$LVL505 = .
	bnel	$21,$0,$L603
	lw	$2,56($21)

	j	$L536
	move	$2,$0

$LVL506 = .
$L409:
	.loc 1 2697 0 is_stmt 1
	lw	$21,24($2)
$LVL507 = .
	.loc 1 2701 0
	lw	$2,56($21)
$L603:
	andi	$2,$2,0x1
	beq	$2,$0,$L536
	move	$2,$0

	.loc 1 2701 0 is_stmt 0 discriminator 1
	lw	$3,60($21)
	lhu	$2,58($3)
	andi	$2,$2,0x1
	beq	$2,$0,$L410
	lui	$24,%hi($LC0)

	.loc 1 2701 0 discriminator 2
	lw	$4,4($3)
	li	$6,2			# 0x2
	sw	$3,92($sp)
	jal	memcmp
	addiu	$5,$24,%lo($LC0)

$LVL508 = .
	beq	$2,$0,$L410
	lw	$3,92($sp)

	.loc 1 2702 0 is_stmt 1 discriminator 3
	lw	$2,140($sp)
	.loc 1 2701 0 discriminator 3
	lw	$3,80($3)
	lw	$2,12($2)
	sltu	$2,$3,$2
	bne	$2,$0,$L536
	move	$2,$0

	.loc 1 2705 0
	li	$2,6			# 0x6
	beq	$19,$2,$L413
	addiu	$3,$23,16

	.loc 1 2714 0
	lbu	$3,7($23)
	lbu	$2,6($23)
	sll	$3,$3,8
	or	$2,$3,$2
	.loc 1 2715 0
	addiu	$3,$23,6
	movz	$3,$0,$2
$L413:
$LVL509 = .
	.loc 1 2724 0
	beq	$22,$0,$L414
	lw	$24,76($sp)

	.loc 1 2726 0
	lbu	$2,5($fp)
	move	$7,$18
	lw	$24,72($sp)
	move	$5,$17
	lbu	$4,4($fp)
	sll	$2,$2,8
	lw	$6,60($sp)
	sw	$19,20($sp)
	sw	$24,16($sp)
	or	$4,$2,$4
	jal	add_fragEntry
	sw	$3,92($sp)

$LVL510 = .
	bne	$2,$0,$L415
	lw	$3,92($sp)

	j	$L536
	move	$2,$0

$LVL511 = .
$L414:
	.loc 1 2734 0
	beql	$24,$0,$L604
	lbu	$4,1($16)

$LVL512 = .
$LBB171 = .
$LBB172 = .
	.loc 1 408 0
	lw	$4,64($sp)
	jal	free_fragEntry
	sw	$3,92($sp)

$LVL513 = .
	lw	$3,92($sp)
$LVL514 = .
$L415:
$LBE172 = .
$LBE171 = .
	.loc 1 2759 0
	lbu	$4,1($16)
$L604:
	lbu	$12,10($fp)
	sltu	$5,$4,13
	beq	$5,$0,$L417
	lbu	$2,11($fp)

	sll	$5,$4,2
	lui	$4,%hi($L419)
	addiu	$4,$4,%lo($L419)
	addu	$4,$4,$5
	lw	$4,0($4)
	j	$4
	nop

	.section	.rodata.enter_fast_path,"a",@progbits
	.align	2
	.align	2
$L419:
	.word	$L418
	.word	$L420
	.word	$L421
	.word	$L421
	.word	$L422
	.word	$L417
	.word	$L417
	.word	$L417
	.word	$L423
	.word	$L417
	.word	$L417
	.word	$L417
	.word	$L423
	.section	.text.enter_fast_path
$L420:
$LVL515 = .
$LBB173 = .
	.loc 1 2764 0
	lw	$6,24($16)
$LVL516 = .
	andi	$5,$17,0xffff
	srl	$17,$17,16
$LVL517 = .
	sll	$2,$2,8
	srl	$7,$6,16
	andi	$4,$6,0xffff
	addu	$7,$7,$4
	or	$2,$2,$12
	subu	$5,$5,$7
	addu	$5,$5,$17
$LVL518 = .
	addu	$17,$5,$2
$LVL519 = .
	bgez	$17,$L424
	sra	$2,$17,16

	.loc 1 2764 0 is_stmt 0 discriminator 1
	subu	$17,$0,$17
$LVL520 = .
	sra	$2,$17,16
	andi	$17,$17,0xffff
$LVL521 = .
	addu	$17,$2,$17
$LVL522 = .
	sra	$2,$17,16
$LVL523 = .
	addu	$17,$17,$2
$LVL524 = .
$LBE173 = .
$LBE219 = .
	j	$L568
	nor	$17,$0,$17

$LVL525 = .
$L424:
$LBB220 = .
$LBB174 = .
	.loc 1 2764 0 discriminator 2
	andi	$17,$17,0xffff
$LVL526 = .
	addu	$17,$2,$17
$LVL527 = .
	sra	$2,$17,16
$LVL528 = .
	addu	$17,$17,$2
$LVL529 = .
$L568:
	andi	$17,$17,0xffff
$LBE174 = .
	.loc 1 2765 0 is_stmt 1 discriminator 2
	lw	$24,56($sp)
$LBB175 = .
	.loc 1 2764 0 discriminator 2
	sb	$17,10($fp)
	srl	$17,$17,8
$LBE175 = .
	.loc 1 2765 0 discriminator 2
	beq	$24,$0,$L432
	sb	$17,11($fp)

	.loc 1 2767 0
	li	$2,17			# 0x11
	bnel	$19,$2,$L427
	lwl	$2,15($fp)

	.loc 1 2769 0
	beql	$3,$0,$L605
	swl	$6,15($fp)

	.loc 1 2769 0 is_stmt 0 discriminator 1
	lhu	$12,0($3)
	beql	$12,$0,$L605
	swl	$6,15($fp)

$LVL530 = .
$LBB176 = .
	.loc 1 2772 0 is_stmt 1
	lwl	$8,15($fp)
	lwr	$8,12($fp)
$LVL531 = .
	andi	$5,$8,0xffff
	subu	$4,$5,$7
$LVL532 = .
	srl	$2,$8,16
	addu	$2,$4,$2
$LVL533 = .
$LBE176 = .
$LBE220 = .
	j	$L590
	addu	$2,$2,$12

$LVL534 = .
$L427:
$LBB221 = .
$LBB177 = .
	.loc 1 2777 0
	lwr	$2,12($fp)
$LVL535 = .
	andi	$4,$2,0xffff
$LVL536 = .
	subu	$4,$4,$7
	srl	$2,$2,16
$LVL537 = .
	addu	$2,$4,$2
$LVL538 = .
	lhu	$4,0($3)
	addu	$2,$2,$4
$LVL539 = .
$L590:
	bgez	$2,$L429
	sra	$4,$2,16

	.loc 1 2777 0 is_stmt 0 discriminator 1
	subu	$2,$0,$2
$LVL540 = .
	sra	$4,$2,16
	andi	$2,$2,0xffff
$LVL541 = .
	addu	$2,$4,$2
$LVL542 = .
	sra	$4,$2,16
$LVL543 = .
	addu	$2,$2,$4
$LVL544 = .
$LBE177 = .
$LBE221 = .
	j	$L569
	nor	$2,$0,$2

$LVL545 = .
$L429:
$LBB222 = .
$LBB178 = .
	.loc 1 2777 0 discriminator 2
	andi	$2,$2,0xffff
$LVL546 = .
	addu	$2,$4,$2
$LVL547 = .
	sra	$4,$2,16
$LVL548 = .
	addu	$2,$2,$4
$LVL549 = .
$L569:
$LBE178 = .
$LBE222 = .
	j	$L432
	sh	$2,0($3)

$LVL550 = .
$L421:
$LBB223 = .
$LBB179 = .
	.loc 1 2789 0 is_stmt 1
	lw	$6,24($16)
$LVL551 = .
	andi	$7,$17,0xffff
	srl	$17,$17,16
$LVL552 = .
	sll	$2,$2,8
	srl	$5,$6,16
	andi	$4,$6,0xffff
	addu	$4,$5,$4
	or	$2,$2,$12
	subu	$7,$7,$4
	addu	$7,$7,$17
$LVL553 = .
	addu	$17,$7,$2
$LVL554 = .
	bgez	$17,$L430
	sra	$2,$17,16

	.loc 1 2789 0 is_stmt 0 discriminator 1
	subu	$17,$0,$17
$LVL555 = .
	sra	$2,$17,16
	andi	$17,$17,0xffff
$LVL556 = .
	addu	$17,$2,$17
$LVL557 = .
	sra	$2,$17,16
$LVL558 = .
	addu	$17,$17,$2
$LVL559 = .
$LBE179 = .
$LBE223 = .
	j	$L570
	nor	$17,$0,$17

$LVL560 = .
$L430:
$LBB224 = .
$LBB180 = .
	.loc 1 2789 0 discriminator 2
	andi	$17,$17,0xffff
$LVL561 = .
	addu	$17,$2,$17
$LVL562 = .
	sra	$2,$17,16
$LVL563 = .
	addu	$17,$17,$2
$LVL564 = .
$L570:
	andi	$17,$17,0xffff
$LBE180 = .
	.loc 1 2790 0 is_stmt 1 discriminator 2
	lw	$24,56($sp)
$LBB181 = .
	.loc 1 2789 0 discriminator 2
	sb	$17,10($fp)
	srl	$17,$17,8
$LBE181 = .
	.loc 1 2790 0 discriminator 2
	beq	$24,$0,$L432
	sb	$17,11($fp)

	.loc 1 2792 0
	li	$2,17			# 0x11
	bne	$19,$2,$L433
	lw	$7,28($16)

	.loc 1 2795 0
	beql	$3,$0,$L606
	andi	$7,$7,0xffff

	.loc 1 2795 0 is_stmt 0 discriminator 1
	lhu	$14,0($3)
	beql	$14,$0,$L606
	andi	$7,$7,0xffff

$LVL565 = .
$LBB182 = .
	.loc 1 2798 0 is_stmt 1
	lwl	$13,15($fp)
	lbu	$2,0($23)
	lwr	$13,12($fp)
$LVL566 = .
	andi	$12,$13,0xffff
	subu	$5,$12,$4
	srl	$4,$13,16
	addu	$4,$5,$4
$LVL567 = .
	lbu	$5,1($23)
	sll	$5,$5,8
	or	$2,$5,$2
	addu	$2,$4,$2
	subu	$2,$2,$7
$LVL568 = .
$LBE182 = .
$LBE224 = .
	j	$L592
	addu	$2,$2,$14

$LVL569 = .
$L433:
$LBB225 = .
$LBB183 = .
	.loc 1 2803 0
	lwl	$2,15($fp)
	lwr	$2,12($fp)
$LVL570 = .
	andi	$5,$2,0xffff
	subu	$5,$5,$4
	srl	$2,$2,16
$LVL571 = .
	addu	$4,$5,$2
$LVL572 = .
	lbu	$2,1($23)
	lbu	$5,0($23)
	sll	$2,$2,8
	or	$2,$2,$5
	addu	$2,$4,$2
	lhu	$4,0($3)
$LVL573 = .
	subu	$2,$2,$7
$LVL574 = .
	addu	$2,$2,$4
$LVL575 = .
$L592:
	bgez	$2,$L436
	sra	$4,$2,16

	.loc 1 2803 0 is_stmt 0 discriminator 1
	subu	$2,$0,$2
$LVL576 = .
	sra	$4,$2,16
	andi	$2,$2,0xffff
$LVL577 = .
	addu	$2,$4,$2
$LVL578 = .
	sra	$4,$2,16
$LVL579 = .
	addu	$2,$2,$4
$LVL580 = .
$LBE183 = .
$LBE225 = .
	j	$L571
	nor	$2,$0,$2

$LVL581 = .
$L436:
$LBB226 = .
$LBB184 = .
	.loc 1 2803 0 discriminator 2
	andi	$2,$2,0xffff
$LVL582 = .
	addu	$2,$4,$2
$LVL583 = .
	sra	$4,$2,16
$LVL584 = .
	addu	$2,$2,$4
$LVL585 = .
$L571:
	sh	$2,0($3)
$LBE184 = .
	.loc 1 2809 0 is_stmt 1
	andi	$7,$7,0xffff
$L606:
	sb	$7,0($23)
	srl	$7,$7,8
	sb	$7,1($23)
$L432:
	.loc 1 2811 0
	swl	$6,15($fp)
$L605:
	.loc 1 2812 0
	j	$L418
	swr	$6,12($fp)

$LVL586 = .
$L422:
$LBB185 = .
	.loc 1 2819 0
	lw	$4,32($16)
$LVL587 = .
	srl	$6,$18,16
	sll	$2,$2,8
	andi	$18,$18,0xffff
$LVL588 = .
	srl	$7,$4,16
	andi	$5,$4,0xffff
	addu	$5,$5,$7
	or	$2,$2,$12
	subu	$5,$6,$5
	addu	$18,$5,$18
$LVL589 = .
	addu	$2,$18,$2
$LVL590 = .
	bgez	$2,$L437
	sra	$12,$2,16

	.loc 1 2819 0 is_stmt 0 discriminator 1
	subu	$2,$0,$2
$LVL591 = .
	sra	$5,$2,16
	andi	$2,$2,0xffff
$LVL592 = .
	addu	$2,$5,$2
$LVL593 = .
	sra	$5,$2,16
$LVL594 = .
	addu	$2,$2,$5
$LVL595 = .
$LBE185 = .
$LBE226 = .
	j	$L572
	nor	$2,$0,$2

$LVL596 = .
$L437:
$LBB227 = .
$LBB186 = .
	.loc 1 2819 0 discriminator 2
	andi	$2,$2,0xffff
$LVL597 = .
	addu	$2,$12,$2
$LVL598 = .
	sra	$5,$2,16
$LVL599 = .
	addu	$2,$2,$5
$LVL600 = .
$L572:
	andi	$2,$2,0xffff
$LBE186 = .
	.loc 1 2820 0 is_stmt 1 discriminator 2
	lw	$24,56($sp)
$LBB187 = .
	.loc 1 2819 0 discriminator 2
	sb	$2,10($fp)
	srl	$2,$2,8
$LBE187 = .
	.loc 1 2820 0 discriminator 2
	beq	$24,$0,$L439
	sb	$2,11($fp)

	.loc 1 2822 0
	li	$2,17			# 0x11
	bnel	$19,$2,$L440
	lhu	$2,0($3)

	.loc 1 2825 0
	beql	$3,$0,$L607
	swl	$4,19($fp)

	.loc 1 2825 0 is_stmt 0 discriminator 1
	lhu	$2,0($3)
	beql	$2,$0,$L607
	swl	$4,19($fp)

	j	$L600
	addu	$18,$18,$2

$L440:
$LVL601 = .
$LBB188 = .
	.loc 1 2833 0 is_stmt 1
	addu	$18,$18,$2
$LVL602 = .
$L600:
	bgez	$18,$L442
	sra	$2,$18,16

	.loc 1 2833 0 is_stmt 0 discriminator 1
	subu	$18,$0,$18
$LVL603 = .
	sra	$2,$18,16
	andi	$18,$18,0xffff
$LVL604 = .
	addu	$18,$2,$18
$LVL605 = .
	sra	$2,$18,16
$LVL606 = .
	addu	$18,$18,$2
$LVL607 = .
$LBE188 = .
$LBE227 = .
	j	$L573
	nor	$18,$0,$18

$LVL608 = .
$L442:
$LBB228 = .
$LBB189 = .
	.loc 1 2833 0 discriminator 2
	andi	$18,$18,0xffff
$LVL609 = .
	addu	$18,$2,$18
$LVL610 = .
	sra	$2,$18,16
$LVL611 = .
	addu	$18,$18,$2
$LVL612 = .
$L573:
	sh	$18,0($3)
$L439:
$LBE189 = .
	.loc 1 2836 0 is_stmt 1
	swl	$4,19($fp)
$L607:
	.loc 1 2837 0
	j	$L418
	swr	$4,16($fp)

$LVL613 = .
$L423:
$LBB190 = .
	.loc 1 2845 0
	lw	$5,32($16)
$LVL614 = .
	srl	$6,$18,16
	sll	$2,$2,8
	andi	$18,$18,0xffff
$LVL615 = .
	srl	$7,$5,16
	andi	$4,$5,0xffff
	addu	$4,$4,$7
	or	$2,$2,$12
	subu	$4,$6,$4
	addu	$18,$4,$18
$LVL616 = .
	addu	$2,$18,$2
$LVL617 = .
	bgez	$2,$L443
	sra	$4,$2,16

	.loc 1 2845 0 is_stmt 0 discriminator 1
	subu	$2,$0,$2
$LVL618 = .
	sra	$4,$2,16
	andi	$2,$2,0xffff
$LVL619 = .
	addu	$2,$4,$2
$LVL620 = .
	sra	$4,$2,16
$LVL621 = .
	addu	$2,$2,$4
$LVL622 = .
$LBE190 = .
$LBE228 = .
	j	$L574
	nor	$2,$0,$2

$LVL623 = .
$L443:
$LBB229 = .
$LBB191 = .
	.loc 1 2845 0 discriminator 2
	andi	$2,$2,0xffff
$LVL624 = .
	addu	$2,$4,$2
$LVL625 = .
	sra	$4,$2,16
$LVL626 = .
	addu	$2,$2,$4
$LVL627 = .
$L574:
	andi	$2,$2,0xffff
$LBE191 = .
	.loc 1 2846 0 is_stmt 1 discriminator 2
	lw	$24,56($sp)
$LBB192 = .
	.loc 1 2845 0 discriminator 2
	sb	$2,10($fp)
	srl	$2,$2,8
$LBE192 = .
	.loc 1 2846 0 discriminator 2
	beq	$24,$0,$L445
	sb	$2,11($fp)

	.loc 1 2848 0
	li	$2,17			# 0x11
	bne	$19,$2,$L446
	lw	$6,36($16)

	.loc 1 2851 0
	beql	$3,$0,$L608
	andi	$6,$6,0xffff

	.loc 1 2851 0 is_stmt 0 discriminator 1
	lhu	$2,0($3)
	beql	$2,$0,$L608
	andi	$6,$6,0xffff

$LVL628 = .
$LBB193 = .
	.loc 1 2854 0 is_stmt 1
	lbu	$4,3($23)
	lbu	$7,2($23)
	sll	$4,$4,8
	or	$4,$4,$7
	addu	$18,$18,$4
$LVL629 = .
	subu	$18,$18,$6
$LVL630 = .
	addu	$2,$18,$2
$LVL631 = .
	bgez	$2,$L448
	sra	$4,$2,16

	.loc 1 2854 0 is_stmt 0 discriminator 1
	subu	$2,$0,$2
$LVL632 = .
	sra	$4,$2,16
	andi	$2,$2,0xffff
$LVL633 = .
	addu	$2,$4,$2
$LVL634 = .
	sra	$4,$2,16
$LVL635 = .
	addu	$2,$2,$4
$LVL636 = .
$LBE193 = .
$LBE229 = .
	j	$L575
	nor	$2,$0,$2

$LVL637 = .
$L448:
$LBB230 = .
$LBB194 = .
	.loc 1 2854 0 discriminator 2
	andi	$2,$2,0xffff
$LVL638 = .
	addu	$2,$4,$2
$LVL639 = .
	sra	$4,$2,16
$LVL640 = .
	addu	$2,$2,$4
$LVL641 = .
$L575:
$LBE194 = .
$LBE230 = .
	j	$L447
	sh	$2,0($3)

$L446:
$LVL642 = .
$LBB231 = .
$LBB195 = .
	.loc 1 2859 0 is_stmt 1
	lbu	$2,3($23)
	lbu	$4,2($23)
	sll	$2,$2,8
	or	$2,$2,$4
	addu	$18,$18,$2
$LVL643 = .
	lhu	$2,0($3)
	subu	$18,$18,$6
$LVL644 = .
	addu	$18,$18,$2
$LVL645 = .
	bgez	$18,$L449
	sra	$2,$18,16

	.loc 1 2859 0 is_stmt 0 discriminator 1
	subu	$18,$0,$18
$LVL646 = .
	sra	$2,$18,16
	andi	$18,$18,0xffff
$LVL647 = .
	addu	$18,$2,$18
$LVL648 = .
	sra	$2,$18,16
$LVL649 = .
	addu	$18,$18,$2
$LVL650 = .
$LBE195 = .
$LBE231 = .
	j	$L576
	nor	$18,$0,$18

$LVL651 = .
$L449:
$LBB232 = .
$LBB196 = .
	.loc 1 2859 0 discriminator 2
	andi	$18,$18,0xffff
$LVL652 = .
	addu	$18,$2,$18
$LVL653 = .
	sra	$2,$18,16
$LVL654 = .
	addu	$18,$18,$2
$LVL655 = .
$L576:
	sh	$18,0($3)
$L447:
$LBE196 = .
	.loc 1 2861 0 is_stmt 1
	andi	$6,$6,0xffff
$L608:
	sb	$6,2($23)
	srl	$6,$6,8
	sb	$6,3($23)
$L445:
	.loc 1 2863 0
	swl	$5,19($fp)
	.loc 1 2864 0
	j	$L418
	swr	$5,16($fp)

$LVL656 = .
$L417:
$LBB197 = .
	.loc 1 2867 0
	lw	$5,24($16)
$LVL657 = .
	srl	$6,$17,16
	sll	$2,$2,8
	andi	$17,$17,0xffff
$LVL658 = .
	srl	$7,$5,16
	andi	$4,$5,0xffff
	addu	$4,$4,$7
	or	$2,$2,$12
	subu	$4,$6,$4
	addu	$17,$4,$17
$LVL659 = .
	addu	$2,$17,$2
$LVL660 = .
	bgez	$2,$L450
	sra	$4,$2,16

	.loc 1 2867 0 is_stmt 0 discriminator 1
	subu	$2,$0,$2
$LVL661 = .
	sra	$4,$2,16
	andi	$2,$2,0xffff
$LVL662 = .
	addu	$2,$4,$2
$LVL663 = .
	sra	$4,$2,16
$LVL664 = .
	addu	$2,$2,$4
$LVL665 = .
$LBE197 = .
$LBE232 = .
	j	$L577
	nor	$2,$0,$2

$LVL666 = .
$L450:
$LBB233 = .
$LBB198 = .
	.loc 1 2867 0 discriminator 2
	andi	$2,$2,0xffff
$LVL667 = .
	addu	$2,$4,$2
$LVL668 = .
	sra	$4,$2,16
$LVL669 = .
	addu	$2,$2,$4
$LVL670 = .
$L577:
	andi	$2,$2,0xffff
$LBE198 = .
$LBB199 = .
	.loc 1 2868 0 is_stmt 1 discriminator 2
	lw	$6,32($16)
	srl	$4,$18,16
$LBE199 = .
$LBB200 = .
	.loc 1 2867 0 discriminator 2
	sb	$2,10($fp)
	srl	$2,$2,8
$LBE200 = .
$LBB201 = .
	.loc 1 2868 0 discriminator 2
	srl	$7,$6,16
	andi	$18,$18,0xffff
$LVL671 = .
$LBE201 = .
$LBB202 = .
	.loc 1 2867 0 discriminator 2
	sb	$2,11($fp)
$LVL672 = .
$LBE202 = .
$LBB203 = .
	.loc 1 2868 0 discriminator 2
	andi	$2,$6,0xffff
	addu	$2,$2,$7
	subu	$2,$4,$2
	lbu	$4,10($fp)
	addu	$18,$2,$18
$LVL673 = .
	lbu	$2,11($fp)
	sll	$2,$2,8
	or	$2,$2,$4
	addu	$2,$18,$2
$LVL674 = .
	bgez	$2,$L452
	sra	$4,$2,16

	.loc 1 2868 0 is_stmt 0 discriminator 1
	subu	$2,$0,$2
$LVL675 = .
	sra	$4,$2,16
	andi	$2,$2,0xffff
$LVL676 = .
	addu	$2,$4,$2
$LVL677 = .
	sra	$4,$2,16
$LVL678 = .
	addu	$2,$2,$4
$LVL679 = .
$LBE203 = .
$LBE233 = .
	j	$L578
	nor	$2,$0,$2

$LVL680 = .
$L452:
$LBB234 = .
$LBB204 = .
	.loc 1 2868 0 discriminator 2
	andi	$2,$2,0xffff
$LVL681 = .
	addu	$2,$4,$2
$LVL682 = .
	sra	$4,$2,16
$LVL683 = .
	addu	$2,$2,$4
$LVL684 = .
$L578:
	andi	$2,$2,0xffff
$LBE204 = .
	.loc 1 2870 0 is_stmt 1 discriminator 2
	lw	$24,56($sp)
$LBB205 = .
	.loc 1 2868 0 discriminator 2
	sb	$2,10($fp)
	srl	$2,$2,8
$LBE205 = .
	.loc 1 2870 0 discriminator 2
	beq	$24,$0,$L454
	sb	$2,11($fp)

	.loc 1 2872 0
	li	$2,17			# 0x11
	lw	$7,36($16)
	bne	$19,$2,$L455
	lw	$12,28($16)

	.loc 1 2875 0
	beql	$3,$0,$L609
	andi	$12,$12,0xffff

	.loc 1 2875 0 is_stmt 0 discriminator 1
	lhu	$4,0($3)
	beql	$4,$0,$L609
	andi	$12,$12,0xffff

$LVL685 = .
$LBB206 = .
	.loc 1 2878 0 is_stmt 1
	lbu	$13,1($23)
	lbu	$2,0($23)
	sll	$13,$13,8
	or	$13,$13,$2
	addu	$17,$17,$13
$LVL686 = .
	subu	$17,$17,$12
$LVL687 = .
	addu	$4,$17,$4
$LVL688 = .
	bgez	$4,$L457
	sra	$2,$4,16

	.loc 1 2878 0 is_stmt 0 discriminator 1
	subu	$4,$0,$4
$LVL689 = .
	sra	$2,$4,16
	andi	$4,$4,0xffff
$LVL690 = .
	addu	$4,$2,$4
$LVL691 = .
	sra	$2,$4,16
$LVL692 = .
	addu	$4,$4,$2
$LVL693 = .
$LBE206 = .
$LBE234 = .
	j	$L579
	nor	$4,$0,$4

$LVL694 = .
$L457:
$LBB235 = .
$LBB207 = .
	.loc 1 2878 0 discriminator 2
	andi	$4,$4,0xffff
$LVL695 = .
	addu	$4,$2,$4
$LVL696 = .
	sra	$2,$4,16
$LVL697 = .
	addu	$4,$4,$2
$LVL698 = .
$L579:
	sh	$4,0($3)
$LVL699 = .
$LBE207 = .
$LBB208 = .
	.loc 1 2879 0 is_stmt 1 discriminator 2
	lbu	$4,3($23)
	lbu	$2,2($23)
	sll	$4,$4,8
	or	$4,$4,$2
	addu	$2,$18,$4
$LVL700 = .
$LBE208 = .
$LBE235 = .
	j	$L596
	subu	$18,$2,$7

$LVL701 = .
$L455:
$LBB236 = .
$LBB209 = .
	.loc 1 2884 0
	lbu	$2,1($23)
	lbu	$4,0($23)
	sll	$2,$2,8
	or	$4,$2,$4
	lhu	$2,0($3)
	addu	$17,$17,$4
$LVL702 = .
	subu	$17,$17,$12
$LVL703 = .
	addu	$17,$17,$2
$LVL704 = .
	bgez	$17,$L460
	sra	$2,$17,16

	.loc 1 2884 0 is_stmt 0 discriminator 1
	subu	$17,$0,$17
$LVL705 = .
	sra	$2,$17,16
	andi	$17,$17,0xffff
$LVL706 = .
	addu	$17,$2,$17
$LVL707 = .
	sra	$2,$17,16
$LVL708 = .
	addu	$17,$17,$2
$LVL709 = .
$LBE209 = .
$LBE236 = .
	j	$L580
	nor	$17,$0,$17

$LVL710 = .
$L460:
$LBB237 = .
$LBB210 = .
	.loc 1 2884 0 discriminator 2
	andi	$17,$17,0xffff
$LVL711 = .
	addu	$17,$2,$17
$LVL712 = .
	sra	$2,$17,16
$LVL713 = .
	addu	$17,$17,$2
$LVL714 = .
$L580:
	sh	$17,0($3)
$LVL715 = .
$LBE210 = .
$LBB211 = .
	.loc 1 2885 0 is_stmt 1 discriminator 2
	lbu	$2,3($23)
	lbu	$4,2($23)
	sll	$2,$2,8
	or	$2,$2,$4
	addu	$18,$18,$2
$LVL716 = .
	subu	$18,$18,$7
$L596:
$LVL717 = .
	lhu	$2,0($3)
	addu	$2,$18,$2
$LVL718 = .
	bgez	$2,$L462
	sra	$4,$2,16

	.loc 1 2885 0 is_stmt 0 discriminator 1
	subu	$2,$0,$2
$LVL719 = .
	sra	$4,$2,16
	andi	$2,$2,0xffff
$LVL720 = .
	addu	$2,$4,$2
$LVL721 = .
	sra	$4,$2,16
$LVL722 = .
	addu	$2,$2,$4
$LVL723 = .
$LBE211 = .
$LBE237 = .
	j	$L581
	nor	$2,$0,$2

$LVL724 = .
$L462:
$LBB238 = .
$LBB212 = .
	.loc 1 2885 0 discriminator 2
	andi	$2,$2,0xffff
$LVL725 = .
	addu	$2,$4,$2
$LVL726 = .
	sra	$4,$2,16
$LVL727 = .
	addu	$2,$2,$4
$LVL728 = .
$L581:
	sh	$2,0($3)
$LBE212 = .
	.loc 1 2887 0 is_stmt 1
	andi	$12,$12,0xffff
$L609:
	.loc 1 2888 0
	andi	$7,$7,0xffff
	.loc 1 2887 0
	sb	$12,0($23)
	srl	$12,$12,8
	.loc 1 2888 0
	sb	$7,2($23)
	srl	$7,$7,8
	.loc 1 2887 0
	sb	$12,1($23)
	.loc 1 2888 0
	sb	$7,3($23)
$L454:
	.loc 1 2891 0
	swl	$5,15($fp)
	swr	$5,12($fp)
	.loc 1 2892 0
	swl	$6,19($fp)
	swr	$6,16($fp)
$L418:
	.loc 1 2909 0
	lbu	$3,8($fp)
	.loc 1 2908 0
	lhu	$2,8($fp)
$LVL729 = .
$LBB213 = .
	.loc 1 2911 0
	lbu	$4,10($fp)
$LBE213 = .
	.loc 1 2909 0
	addiu	$3,$3,-1
	sb	$3,8($fp)
$LVL730 = .
$LBB214 = .
	.loc 1 2911 0
	lhu	$3,8($fp)
	subu	$3,$2,$3
$LVL731 = .
	lbu	$2,11($fp)
$LVL732 = .
	sll	$2,$2,8
	or	$2,$2,$4
	addu	$2,$3,$2
$LVL733 = .
	bgez	$2,$L463
	sra	$3,$2,16

$LVL734 = .
$LBE214 = .
$LBE238 = .
	.loc 1 2911 0 is_stmt 0 discriminator 1
	j	$L582
	addiu	$2,$2,-1

$LVL735 = .
$L463:
$LBB239 = .
$LBB215 = .
	.loc 1 2911 0 discriminator 2
	andi	$2,$2,0xffff
$LVL736 = .
	addu	$2,$3,$2
$LVL737 = .
	sra	$3,$2,16
$LVL738 = .
	addu	$2,$2,$3
$LVL739 = .
$L582:
	andi	$2,$2,0xffff
	sb	$2,10($fp)
	srl	$2,$2,8
$LBE215 = .
	.loc 1 2922 0 is_stmt 1 discriminator 2
	jal	rtl_getTimeStamp
	sb	$2,11($fp)

$LVL740 = .
	.loc 1 2925 0 discriminator 2
	beq	$20,$0,$L465
	sw	$2,40($16)

	.loc 1 2926 0
	lw	$24,160($20)
	addiu	$24,$24,1
	sw	$24,160($20)
	.loc 1 2927 0
	li	$24,10			# 0xa
	sw	$24,164($20)
$L465:
	.loc 1 2931 0
	lw	$24,56($21)
	andi	$24,$24,0x2
	beq	$24,$0,$L466
	lw	$24,68($sp)

$LVL741 = .
$LBB216 = .
	.loc 1 2964 0
	bne	$20,$0,$L467
	lw	$16,48($21)

	j	$L468
	nop

$LVL742 = .
$L466:
$LBE216 = .
	.loc 1 2936 0
	beq	$20,$0,$L468
	addiu	$16,$24,8

	.loc 1 2937 0
	addiu	$16,$20,32
$LVL743 = .
$L467:
$LBB217 = .
	.loc 1 2965 0
	addiu	$24,$20,24
	sw	$24,68($sp)
$LVL744 = .
$L468:
	.loc 1 2972 0
	jal	fastpath_get_QosEnabled
	nop

$LVL745 = .
	.loc 1 2970 0
	beql	$2,$0,$L470
	lw	$5,60($21)

	.loc 1 2978 0
	lw	$24,68($sp)
$L610:
	move	$7,$21
	lw	$4,60($21)
	move	$6,$16
	lw	$5,140($sp)
	sw	$24,20($sp)
	addiu	$24,$sp,24
	jal	ip_finish_output3
	sw	$24,16($sp)

$LVL746 = .
$LBE217 = .
	.loc 1 2985 0
	bne	$20,$0,$L471
	nop

$LBE239 = .
	.loc 1 2992 0
	j	$L536
	li	$2,1			# 0x1

$LVL747 = .
$L470:
$LBB240 = .
$LBB218 = .
	.loc 1 2974 0
	jal	fast_path_post_process_xmit_check_mbuf
	addiu	$4,$sp,140

$LVL748 = .
	.loc 1 2972 0
	li	$24,1			# 0x1
	bne	$2,$24,$L610
	lw	$24,68($sp)

	j	$L536
	li	$2,1			# 0x1

$LVL749 = .
$L471:
$LBE218 = .
	.loc 1 2985 0 discriminator 1
	beq	$2,$0,$L583
	li	$24,355			# 0x163

	.loc 1 2986 0
	bnel	$2,$24,$L474
	lw	$24,172($20)

	.loc 1 2987 0
	lw	$24,168($20)
	addiu	$24,$24,1
$LBE240 = .
	j	$L583
	sw	$24,168($20)

$L474:
$LBB241 = .
	.loc 1 2989 0
	addiu	$24,$24,1
	sw	$24,172($20)
$LVL750 = .
$L583:
$LBE241 = .
	.loc 1 2992 0
	j	$L536
	li	$2,1			# 0x1

$LVL751 = .
$L598:
	.loc 1 2999 0
	lw	$6,140($sp)
	move	$5,$23
	jal	fast_path_post_process_return_check
	move	$4,$fp

$LVL752 = .
	j	$L601
	lw	$31,132($sp)

$LVL753 = .
$L397:
$L602:
	.loc 1 2556 0
	andi	$2,$2,0x7
	beq	$2,$0,$L396
	move	$2,$0

$LVL754 = .
$L536:
	.loc 1 3000 0
	lw	$31,132($sp)
$L601:
	lw	$fp,128($sp)
$LVL755 = .
	lw	$23,124($sp)
	lw	$22,120($sp)
	lw	$21,116($sp)
$LVL756 = .
	lw	$20,112($sp)
	lw	$19,108($sp)
	lw	$18,104($sp)
	lw	$17,100($sp)
	lw	$16,96($sp)
$LVL757 = .
	j	$31
	addiu	$sp,$sp,136

	.cfi_def_cfa_offset 0
	.cfi_restore 16
	.cfi_restore 17
	.cfi_restore 18
	.cfi_restore 19
	.cfi_restore 20
	.cfi_restore 21
	.cfi_restore 22
	.cfi_restore 23
	.cfi_restore 30
	.cfi_restore 31
	.set	macro
	.set	reorder
	.end	enter_fast_path
	.cfi_endproc
$LFE97:
	.size	enter_fast_path, .-enter_fast_path
	.section	.rodata.str1.4
	.align	2
$LC1:
	.ascii	"path num: %d.\012\000"
	.section	.text.fastpath_dump_path_entry_num,"ax",@progbits
	.align	2
	.globl	fastpath_dump_path_entry_num
$LFB98 = .
	.loc 1 3108 0
	.cfi_startproc
	.set	nomips16
	.set	nomicromips
	.ent	fastpath_dump_path_entry_num
	.type	fastpath_dump_path_entry_num, @function
fastpath_dump_path_entry_num:
	.frame	$sp,24,$31		# vars= 0, regs= 1/0, args= 16, gp= 0
	.mask	0x80000000,-4
	.fmask	0x00000000,0
	.set	noreorder
	.set	nomacro
$LVL758 = .
	.loc 1 3117 0
	lui	$24,%hi(path_list_inuse)
	.loc 1 3116 0
	move	$5,$0
	.loc 1 3117 0
	lw	$24,%lo(path_list_inuse)($24)
$LVL759 = .
$L613:
	.loc 1 3117 0 is_stmt 0 discriminator 1
	beql	$24,$0,$L616
	addiu	$sp,$sp,-24

	.loc 1 3118 0 is_stmt 1 discriminator 3
	addiu	$5,$5,1
$LVL760 = .
	.loc 1 3117 0 discriminator 3
	j	$L613
	lw	$24,68($24)

$L616:
	.cfi_def_cfa_offset 24
	.loc 1 3108 0
	sw	$31,20($sp)
	.cfi_offset 31, -4
	.loc 1 3129 0
	lui	$4,%hi($LC1)
	jal	diag_printf
	addiu	$4,$4,%lo($LC1)

$LVL761 = .
	.loc 1 3131 0
	lw	$31,20($sp)
	j	$31
	addiu	$sp,$sp,24

	.cfi_def_cfa_offset 0
	.cfi_restore 31
	.set	macro
	.set	reorder
	.end	fastpath_dump_path_entry_num
	.cfi_endproc
$LFE98:
	.size	fastpath_dump_path_entry_num, .-fastpath_dump_path_entry_num
	.section	.rodata.str1.4
	.align	2
$LC2:
	.ascii	"TCP\000"
	.align	2
$LC3:
	.ascii	"UDP\000"
	.align	2
$LC4:
	.ascii	"entrys:\012\000"
	.align	2
$LC5:
	.ascii	"~Path: Valid: %d [%s] in-S=0x%08X:%-5u in-D=0x%08X:%-5u "
	.ascii	"out-S=0x%08X:%-5u out-D=0x%08X:%-5u <%u> {%d}\012\000"
	.section	.text.rtl_readFastpathNaptEntry,"ax",@progbits
	.align	2
	.globl	rtl_readFastpathNaptEntry
$LFB99 = .
	.loc 1 3134 0
	.cfi_startproc
	.set	nomips16
	.set	nomicromips
	.ent	rtl_readFastpathNaptEntry
	.type	rtl_readFastpathNaptEntry, @function
rtl_readFastpathNaptEntry:
	.frame	$sp,80,$31		# vars= 0, regs= 6/0, args= 56, gp= 0
	.mask	0x801f0000,-4
	.fmask	0x00000000,0
	.set	noreorder
	.set	nomacro
	addiu	$sp,$sp,-80
	.cfi_def_cfa_offset 80
	sw	$31,76($sp)
	sw	$20,72($sp)
	sw	$19,68($sp)
	sw	$18,64($sp)
	sw	$17,60($sp)
	sw	$16,56($sp)
	.cfi_offset 31, -4
	.cfi_offset 20, -8
	.cfi_offset 19, -12
	.cfi_offset 18, -16
	.cfi_offset 17, -20
	.cfi_offset 16, -24
	.loc 1 3141 0
	jal	rtl_showfastpathOnOff
	lui	$17,%hi($LC5)

$LVL762 = .
	.loc 1 3142 0
	jal	fastpath_dump_path_entry_num
	li	$18,2			# 0x2

$LVL763 = .
	.loc 1 3143 0
	lui	$4,%hi($LC4)
$LBB242 = .
	.loc 1 3146 0
	lui	$19,%hi($LC2)
$LBE242 = .
	.loc 1 3143 0
	addiu	$4,$4,%lo($LC4)
	jal	diag_printf
	lui	$20,%hi($LC3)

$LVL764 = .
	.loc 1 3145 0
	lui	$24,%hi(path_list_inuse)
$LBB243 = .
	.loc 1 3146 0
	addiu	$17,$17,%lo($LC5)
$LBE243 = .
	.loc 1 3145 0
	lw	$16,%lo(path_list_inuse)($24)
$LVL765 = .
$L618:
	.loc 1 3145 0 is_stmt 0 discriminator 2
	beq	$16,$0,$L623
	addiu	$3,$19,%lo($LC2)

$LBB244 = .
	.loc 1 3146 0 is_stmt 1
	lw	$24,4($16)
	addiu	$6,$20,%lo($LC3)
	lbu	$5,0($16)
	lw	$7,16($16)
	move	$4,$17
	move	$2,$6
	xor	$24,$24,$18
	move	$6,$3
	movn	$6,$2,$24
	lbu	$24,1($16)
	sw	$24,48($sp)
	lbu	$24,2($16)
	sw	$24,44($sp)
	lw	$24,36($16)
	sw	$24,40($sp)
	lw	$24,32($16)
	sw	$24,36($sp)
	lw	$24,28($16)
	sw	$24,32($sp)
	lw	$24,24($16)
	sw	$24,28($sp)
	lw	$24,8($16)
	sw	$24,24($sp)
	lw	$24,20($16)
	sw	$24,20($sp)
	lw	$24,12($16)
	jal	diag_printf
	sw	$24,16($sp)

$LVL766 = .
	.loc 1 3163 0
	jal	fastpath_dump_qos_rule
	move	$4,$16

$LVL767 = .
$LBE244 = .
	.loc 1 3145 0
	j	$L618
	lw	$16,68($16)

$L623:
	.loc 1 3166 0
	lw	$31,76($sp)
	lw	$20,72($sp)
	lw	$19,68($sp)
	lw	$18,64($sp)
	lw	$17,60($sp)
	lw	$16,56($sp)
$LVL768 = .
	j	$31
	addiu	$sp,$sp,80

	.cfi_def_cfa_offset 0
	.cfi_restore 16
	.cfi_restore 17
	.cfi_restore 18
	.cfi_restore 19
	.cfi_restore 20
	.cfi_restore 31
	.set	macro
	.set	reorder
	.end	rtl_readFastpathNaptEntry
	.cfi_endproc
$LFE99:
	.size	rtl_readFastpathNaptEntry, .-rtl_readFastpathNaptEntry
	.section	.text.init_table_path,"ax",@progbits
	.align	2
	.globl	init_table_path
$LFB100 = .
	.loc 1 3413 0
	.cfi_startproc
	.set	nomips16
	.set	nomicromips
	.ent	init_table_path
	.type	init_table_path, @function
init_table_path:
	.frame	$sp,40,$31		# vars= 0, regs= 6/0, args= 16, gp= 0
	.mask	0x801f0000,-4
	.fmask	0x00000000,0
	.set	noreorder
	.set	nomacro
$LVL769 = .
	addiu	$sp,$sp,-40
	.cfi_def_cfa_offset 40
	sw	$31,36($sp)
	sw	$20,32($sp)
	sw	$19,28($sp)
	sw	$18,24($sp)
	sw	$17,20($sp)
	sw	$16,16($sp)
	.cfi_offset 31, -4
	.cfi_offset 20, -8
	.cfi_offset 19, -12
	.cfi_offset 18, -16
	.cfi_offset 17, -20
	.cfi_offset 16, -24
	.loc 1 3416 0
	li	$6,1			# 0x1
	.loc 1 3413 0
	move	$17,$4
	move	$18,$5
	.loc 1 3416 0
	li	$4,4			# 0x4
$LVL770 = .
	li	$5,3			# 0x3
$LVL771 = .
	jal	cyg_net_malloc
	lui	$20,%hi(table_path)

$LVL772 = .
	move	$19,$2
	.loc 1 3417 0
	bne	$2,$0,$L625
	sw	$2,%lo(table_path)($20)

$L627:
	.loc 1 3419 0
	j	$L626
	li	$2,-1			# 0xffffffffffffffff

$L625:
	.loc 1 3425 0
	li	$4,12			# 0xc
	.loc 1 3421 0
	lui	$2,%hi(path_list_inuse)
	.loc 1 3425 0
	mul	$4,$17,$4
	.loc 1 3421 0
	addiu	$24,$2,%lo(path_list_inuse)
	sw	$0,%lo(path_list_inuse)($2)
	.loc 1 3425 0
	li	$6,1			# 0x1
	.loc 1 3421 0
	sw	$0,8($24)
	.loc 1 3425 0
	li	$5,3			# 0x3
	.loc 1 3421 0
	sw	$24,4($24)
	.loc 1 3422 0
	lui	$24,%hi(path_list_free)
	addiu	$16,$24,%lo(path_list_free)
	sw	$0,%lo(path_list_free)($24)
	.loc 1 3424 0
	lui	$24,%hi(path_table_list_max)
	.loc 1 3422 0
	sw	$0,8($16)
	.loc 1 3424 0
	sw	$17,%lo(path_table_list_max)($24)
	.loc 1 3425 0
	jal	cyg_net_malloc
	sw	$16,4($16)

$LVL773 = .
	sw	$2,0($19)
	.loc 1 3426 0
	lw	$24,%lo(table_path)($20)
	lw	$24,0($24)
	beq	$24,$0,$L627
	move	$2,$0

$L628:
$LVL774 = .
	.loc 1 3430 0 discriminator 1
	slt	$3,$2,$17
	beq	$3,$0,$L637
	addiu	$2,$2,1

	.loc 1 3431 0 discriminator 3
	sw	$0,8($24)
$LVL775 = .
	sw	$0,0($24)
	sw	$24,4($24)
	j	$L628
	addiu	$24,$24,12

$L637:
	move	$17,$0
$LVL776 = .
$L630:
	.loc 1 3435 0 discriminator 1
	slt	$24,$17,$18
	beq	$24,$0,$L638
	li	$6,1			# 0x1

$LBB245 = .
	.loc 1 3436 0
	li	$5,3			# 0x3
	jal	cyg_net_malloc
	li	$4,76			# 0x4c

$LVL777 = .
	.loc 1 3437 0
	beq	$2,$0,$L632
	addiu	$17,$17,1

	.loc 1 3441 0 discriminator 2
	lw	$24,4($16)
$LVL778 = .
	sw	$0,68($2)
	sw	$24,72($2)
	sw	$2,0($24)
	addiu	$2,$2,68
$LVL779 = .
	lw	$24,8($16)
$LVL780 = .
	sw	$2,4($16)
	addiu	$24,$24,1
$LBE245 = .
	j	$L630
	sw	$24,8($16)

$LVL781 = .
$L638:
	j	$L626
	move	$2,$0

$LVL782 = .
$L632:
$LBB246 = .
	.loc 1 3439 0
	li	$2,-2			# 0xfffffffffffffffe
$LVL783 = .
$L626:
$LBE246 = .
	.loc 1 3445 0
	lw	$31,36($sp)
	lw	$20,32($sp)
	lw	$19,28($sp)
	lw	$18,24($sp)
$LVL784 = .
	lw	$17,20($sp)
	lw	$16,16($sp)
	j	$31
	addiu	$sp,$sp,40

	.cfi_def_cfa_offset 0
	.cfi_restore 16
	.cfi_restore 17
	.cfi_restore 18
	.cfi_restore 19
	.cfi_restore 20
	.cfi_restore 31
	.set	macro
	.set	reorder
	.end	init_table_path
	.cfi_endproc
$LFE100:
	.size	init_table_path, .-init_table_path
	.section	.rodata.str1.4
	.align	2
$LC6:
	.ascii	"v1.03\000"
	.align	2
$LC7:
	.ascii	"Realtek FastPath\000"
	.align	2
$LC8:
	.ascii	"%s:%s\012\000"
	.section	.text.get_fastpath_module_info,"ax",@progbits
	.align	2
	.globl	get_fastpath_module_info
$LFB101 = .
	.loc 1 3448 0
	.cfi_startproc
	.set	nomips16
	.set	nomicromips
	.ent	get_fastpath_module_info
	.type	get_fastpath_module_info, @function
get_fastpath_module_info:
	.frame	$sp,24,$31		# vars= 0, regs= 1/0, args= 16, gp= 0
	.mask	0x80000000,-4
	.fmask	0x00000000,0
	.set	noreorder
	.set	nomacro
$LVL785 = .
	.loc 1 3449 0
	beq	$4,$0,$L646
	nop

	.loc 1 3448 0
	addiu	$sp,$sp,-24
	.cfi_def_cfa_offset 24
	sw	$31,20($sp)
	.cfi_offset 31, -4
	.loc 1 3453 0
	lui	$7,%hi($LC6)
	lui	$6,%hi($LC7)
	lui	$5,%hi($LC8)
	addiu	$7,$7,%lo($LC6)
	addiu	$6,$6,%lo($LC7)
	jal	diag_sprintf
	addiu	$5,$5,%lo($LC8)

$LVL786 = .
	.loc 1 3454 0
	lw	$31,20($sp)
	addiu	$sp,$sp,24
	.cfi_restore 31
	.cfi_def_cfa_offset 0
$L646:
	j	$31
	nop

	.set	macro
	.set	reorder
	.end	get_fastpath_module_info
	.cfi_endproc
$LFE101:
	.size	get_fastpath_module_info, .-get_fastpath_module_info
	.globl	fast_path_entry_count
	.section	.bss.fast_path_entry_count,"aw",@nobits
	.align	2
	.type	fast_path_entry_count, @object
	.size	fast_path_entry_count, 4
fast_path_entry_count:
	.space	4

	.comm	udp_frag_cache_timer,24,4
	.section	.bss.max_udp_frag_entry,"aw",@nobits
	.align	2
	.type	max_udp_frag_entry, @object
	.size	max_udp_frag_entry, 4
max_udp_frag_entry:
	.space	4

	.comm	udp_cache_table,4,4

	.comm	udp_cache_list_free,12,4
	.section	.bss.path_table_list_max,"aw",@nobits
	.align	2
	.type	path_table_list_max, @object
	.size	path_table_list_max, 4
path_table_list_max:
	.space	4

	.comm	table_path,4,4

	.comm	path_list_free,12,4

	.comm	path_list_inuse,12,4

	.comm	route_list_free,12,4

	.comm	route_list_inuse,12,4
	.text
$Letext0:
	.file 2 "/home/dingbin_lu/ecos_v1.5.1_20160706/gnutools/msdk-4.9.4/linux/newlib/lib/gcc/mips-elf/4.9.4/include/stddef.h"
	.file 3 "/home/dingbin_lu/ecos_v1.5.1_20160706/ecos-work/97f-8812br-gw_install/include/cyg/infra/cyg_type.h"
	.file 4 "/home/dingbin_lu/ecos_v1.5.1_20160706/ecos-work/97f-8812br-gw_install/include/sys/bsdtypes.h"
	.file 5 "/home/dingbin_lu/ecos_v1.5.1_20160706/ecos-work/97f-8812br-gw_install/include/time.h"
	.file 6 "/home/dingbin_lu/ecos_v1.5.1_20160706/ecos-work/97f-8812br-gw_install/include/cyg/libc/time/time.h"
	.file 7 "/home/dingbin_lu/ecos_v1.5.1_20160706/ecos-work/97f-8812br-gw_install/include/sys/param.h"
	.file 8 "/home/dingbin_lu/ecos_v1.5.1_20160706/ecos-work/97f-8812br-gw_install/include/cyg/io/eth/rltk/819x/wrapper/sys_support.h"
	.file 9 "/home/dingbin_lu/ecos_v1.5.1_20160706/ecos-work/97f-8812br-gw_install/include/sys/socket.h"
	.file 10 "/home/dingbin_lu/ecos_v1.5.1_20160706/ecos-work/97f-8812br-gw_install/include/cyg/posix/sys/time.h"
	.file 11 "/home/dingbin_lu/ecos_v1.5.1_20160706/ecos-work/97f-8812br-gw_install/include/net/if_var.h"
	.file 12 "/home/dingbin_lu/ecos_v1.5.1_20160706/ecos-work/97f-8812br-gw_install/include/net/if.h"
	.file 13 "/home/dingbin_lu/ecos_v1.5.1_20160706/ecos-work/97f-8812br-gw_install/include/sys/mbuf.h"
	.file 14 "/home/dingbin_lu/ecos_v1.5.1_20160706/ecos-work/97f-8812br-gw_install/include/net/route.h"
	.file 15 "/home/dingbin_lu/ecos_v1.5.1_20160706/ecos-work/97f-8812br-gw_install/include/netinet/rtl_vlan.h"
	.file 16 "/home/dingbin_lu/ecos_v1.5.1_20160706/ecos-work/97f-8812br-gw_install/include/cyg/io/eth/rltk/819x/wrapper/wireless.h"
	.file 17 "/home/dingbin_lu/ecos_v1.5.1_20160706/ecos-work/97f-8812br-gw_install/include/cyg/io/eth/rltk/819x/wrapper/skbuff.h"
	.file 18 "/home/dingbin_lu/ecos_v1.5.1_20160706/ecos-work/97f-8812br-gw_install/include/rtl/rtl_types.h"
	.file 19 "/home/dingbin_lu/ecos_v1.5.1_20160706/ecos-work/97f-8812br-gw_install/include/netinet/ip.h"
	.file 20 "/home/dingbin_lu/ecos_v1.5.1_20160706/ecos-work/97f-8812br-gw_install/include/netinet/udp.h"
	.file 21 "/home/dingbin_lu/ecos_v1.5.1_20160706/ecos-work/97f-8812br-gw_install/include/netinet/tcp.h"
	.file 22 "/home/dingbin_lu/ecos_v1.5.1_20160706/ecos-work/97f-8812br-gw_install/include/net/radix.h"
	.file 23 "/home/dingbin_lu/ecos_v1.5.1_20160706/ecos-work/97f-8812br-gw_install/include/net/ethernet.h"
	.file 24 "/home/dingbin_lu/ecos_v1.5.1_20160706/ecos-work/97f-8812br-gw_install/include/rtl/rtl_alias.h"
	.file 25 "/home/dingbin_lu/ecos_v1.5.1_20160706/ecos-work/97f-8812br-gw_install/include/netinet/ip_flow.h"
	.file 26 "/home/dingbin_lu/ecos_v1.5.1_20160706/ecos-work/97f-8812br-gw_install/include/net/if_arp.h"
	.file 27 "/home/dingbin_lu/ecos_v1.5.1_20160706/ecos-work/97f-8812br-gw_install/include/netinet/fastpath/fastpath_core.h"
	.file 28 "/home/dingbin_lu/ecos_v1.5.1_20160706/ecos-work/../ecos-3.0/packages/net/bsd_tcpip/v3_0/src/sys/netinet/fastpath/../libalias/alias_local.h"
	.file 29 "/home/dingbin_lu/ecos_v1.5.1_20160706/ecos-work/97f-8812br-gw_install/include/cyg/libc/time/time.inl"
	.file 30 "/home/dingbin_lu/ecos_v1.5.1_20160706/ecos-work/97f-8812br-gw_install/include/cyg/libc/time/timeutil.h"
	.file 31 "/home/dingbin_lu/ecos_v1.5.1_20160706/ecos-work/97f-8812br-gw_install/include/sys/malloc.h"
	.file 32 "/home/dingbin_lu/ecos_v1.5.1_20160706/ecos-work/97f-8812br-gw_install/include/cyg/libc/string/string.h"
	.file 33 "/home/dingbin_lu/ecos_v1.5.1_20160706/ecos-work/97f-8812br-gw_install/include/cyg/infra/diag.h"