	.section .mdebug.abi32
	.previous
	.nan	legacy
	.gnu_attribute 4, 3
	.text
$Ltext0:
	.cfi_sections	.debug_frame
	.section	.text.set_fast_pptp_fw,"ax",@progbits
	.align	2
	.globl	set_fast_pptp_fw
$LFB72 = .
	.file 1 "/home/kai_wang/release-ecos1.5.1/release_tool_v15/ecos_v1.5.1_20160706/ecos-work/../ecos-3.0/packages/net/bsd_tcpip/v3_0/src/sys/netinet/fastpath/fast_pptp_core.c"
	.loc 1 47 0
	.cfi_startproc
	.set	mips16
	.set	nomicromips
	.ent	set_fast_pptp_fw
	.type	set_fast_pptp_fw, @function
set_fast_pptp_fw:
	.frame	$sp,0,$31		# vars= 0, regs= 0/0, args= 0, gp= 0
	.mask	0x00000000,0
	.fmask	0x00000000,0
$LVL0 = .
	.loc 1 48 0
	lw	$2,$L2
	.set	noreorder
	.set	nomacro
	j	$31
	sw	$4,0($2)
	.set	macro
	.set	reorder

	.align	2
$L2:
	.word	fast_pptp_fw
	.end	set_fast_pptp_fw
	.cfi_endproc
$LFE72:
	.size	set_fast_pptp_fw, .-set_fast_pptp_fw
	.section	.text.get_fast_pptp_fw,"ax",@progbits
	.align	2
	.globl	get_fast_pptp_fw
$LFB73 = .
	.loc 1 51 0
	.cfi_startproc
	.set	mips16
	.set	nomicromips
	.ent	get_fast_pptp_fw
	.type	get_fast_pptp_fw, @function
get_fast_pptp_fw:
	.frame	$sp,0,$31		# vars= 0, regs= 0/0, args= 0, gp= 0
	.mask	0x00000000,0
	.fmask	0x00000000,0
	.loc 1 53 0
	lw	$2,$L4
	.set	noreorder
	.set	nomacro
	j	$31
	lw	$2,0($2)
	.set	macro
	.set	reorder

	.align	2
$L4:
	.word	fast_pptp_fw
	.end	get_fast_pptp_fw
	.cfi_endproc
$LFE73:
	.size	get_fast_pptp_fw, .-get_fast_pptp_fw
	.section	.text.set_pptp_wan_dev,"ax",@progbits
	.align	2
	.globl	set_pptp_wan_dev
$LFB74 = .
	.loc 1 56 0
	.cfi_startproc
	.set	mips16
	.set	nomicromips
	.ent	set_pptp_wan_dev
	.type	set_pptp_wan_dev, @function
set_pptp_wan_dev:
	.frame	$sp,0,$31		# vars= 0, regs= 0/0, args= 0, gp= 0
	.mask	0x00000000,0
	.fmask	0x00000000,0
$LVL1 = .
	.loc 1 57 0
	lw	$2,$L6
	sw	$4,44($2)
	.loc 1 58 0
	.set	noreorder
	.set	nomacro
	j	$31
	sw	$5,8($2)
	.set	macro
	.set	reorder

	.align	2
$L6:
	.word	pptpAccInfo
	.end	set_pptp_wan_dev
	.cfi_endproc
$LFE74:
	.size	set_pptp_wan_dev, .-set_pptp_wan_dev
	.section	.text.clean_fastforward_info,"ax",@progbits
	.align	2
	.globl	clean_fastforward_info
$LFB75 = .
	.loc 1 61 0
	.cfi_startproc
	.set	mips16
	.set	nomicromips
	.ent	clean_fastforward_info
	.type	clean_fastforward_info, @function
clean_fastforward_info:
	.frame	$sp,24,$31		# vars= 0, regs= 2/0, args= 16, gp= 0
	.mask	0x80010000,-4
	.fmask	0x00000000,0
	save	24,$16,$31
	.cfi_def_cfa_offset 24
	.cfi_offset 31, -4
	.cfi_offset 16, -8
	.loc 1 63 0
	li	$16,0
	lw	$2,$L9
	.loc 1 64 0
	li	$6,72
	li	$5,0
	lw	$4,$L10
	.set	noreorder
	.set	nomacro
	jal	memset
	sw	$16,0($2)
	.set	macro
	.set	reorder

$LVL2 = .
	.loc 1 65 0
	lw	$2,$L11
	sw	$16,0($2)
	.loc 1 66 0
	restore	24,$16,$31
	.cfi_restore 16
	.cfi_restore 31
	.cfi_def_cfa_offset 0
	j	$31
	.align	2
$L9:
	.word	fast_pptp_fw
$L10:
	.word	pptpAccInfo
$L11:
	.word	ppp_comp_flag
	.end	clean_fastforward_info
	.cfi_endproc
$LFE75:
	.size	clean_fastforward_info, .-clean_fastforward_info
	.section	.text.set_mppc_mppe_flag,"ax",@progbits
	.align	2
	.globl	set_mppc_mppe_flag
$LFB76 = .
	.loc 1 68 0
	.cfi_startproc
	.set	mips16
	.set	nomicromips
	.ent	set_mppc_mppe_flag
	.type	set_mppc_mppe_flag, @function
set_mppc_mppe_flag:
	.frame	$sp,0,$31		# vars= 0, regs= 0/0, args= 0, gp= 0
	.mask	0x00000000,0
	.fmask	0x00000000,0
$LVL3 = .
	.loc 1 69 0
	lw	$2,$L13
	.set	noreorder
	.set	nomacro
	j	$31
	sw	$4,0($2)
	.set	macro
	.set	reorder

	.align	2
$L13:
	.word	ppp_comp_flag
	.end	set_mppc_mppe_flag
	.cfi_endproc
$LFE76:
	.size	set_mppc_mppe_flag, .-set_mppc_mppe_flag
	.section	.text.sync_gre_rx_2_fastpptp,"ax",@progbits
	.align	2
	.globl	sync_gre_rx_2_fastpptp
$LFB77 = .
	.loc 1 87 0
	.cfi_startproc
	.set	mips16
	.set	nomicromips
	.ent	sync_gre_rx_2_fastpptp
	.type	sync_gre_rx_2_fastpptp, @function
sync_gre_rx_2_fastpptp:
	.frame	$sp,0,$31		# vars= 0, regs= 0/0, args= 0, gp= 0
	.mask	0x00000000,0
	.fmask	0x00000000,0
$LVL4 = .
	.loc 1 88 0
	lw	$2,$L15
	.set	noreorder
	.set	nomacro
	j	$31
	sw	$4,40($2)
	.set	macro
	.set	reorder

	.align	2
$L15:
	.word	pptpAccInfo
	.end	sync_gre_rx_2_fastpptp
	.cfi_endproc
$LFE77:
	.size	sync_gre_rx_2_fastpptp, .-sync_gre_rx_2_fastpptp
	.section	.text.sync_gre_tx_2_fastpptp,"ax",@progbits
	.align	2
	.globl	sync_gre_tx_2_fastpptp
$LFB78 = .
	.loc 1 92 0
	.cfi_startproc
	.set	mips16
	.set	nomicromips
	.ent	sync_gre_tx_2_fastpptp
	.type	sync_gre_tx_2_fastpptp, @function
sync_gre_tx_2_fastpptp:
	.frame	$sp,0,$31		# vars= 0, regs= 0/0, args= 0, gp= 0
	.mask	0x00000000,0
	.fmask	0x00000000,0
$LVL5 = .
	.loc 1 93 0
	lw	$2,$L17
	.set	noreorder
	.set	nomacro
	j	$31
	sw	$4,36($2)
	.set	macro
	.set	reorder

	.align	2
$L17:
	.word	pptpAccInfo
	.end	sync_gre_tx_2_fastpptp
	.cfi_endproc
$LFE78:
	.size	sync_gre_tx_2_fastpptp, .-sync_gre_tx_2_fastpptp
	.section	.text.fast_pptp_filter,"ax",@progbits
	.align	2
	.globl	fast_pptp_filter
$LFB79 = .
	.loc 1 98 0
	.cfi_startproc
	.set	mips16
	.set	nomicromips
	.ent	fast_pptp_filter
	.type	fast_pptp_filter, @function
fast_pptp_filter:
	.frame	$sp,32,$31		# vars= 0, regs= 3/0, args= 16, gp= 0
	.mask	0x80030000,-4
	.fmask	0x00000000,0
$LVL6 = .
	.loc 1 109 0
	lw	$2,$L48
	lw	$2,0($2)
	beqz	$2,$L46
	.loc 1 113 0
	lw	$2,24($4)
	.loc 1 112 0
	lw	$6,8($4)
$LVL7 = .
	.loc 1 113 0
	sltu	$2,56
	btnez	$L46
$LBB2 = .
	.loc 1 118 0
	lbu	$3,9($6)
	.loc 1 115 0
	li	$2,15
	lbu	$7,0($6)
	.loc 1 118 0
	cmpi	$3,6
	.loc 1 115 0
	and	$2,$7
$LVL8 = .
	.loc 1 118 0
	btnez	$L46
	.loc 1 115 0 discriminator 1
	sll	$2,$2,2
$LVL9 = .
	addu	$7,$6,$2
$LVL10 = .
$LBB3 = .
	.loc 1 118 0 discriminator 1
	lbu	$3,1($7)
	lbu	$4,0($7)
$LVL11 = .
	sll	$3,$3,8
	or	$3,$4
$LVL12 = .
	sll	$2,$3,8
	srl	$3,$3,8
$LVL13 = .
	or	$2,$3
$LBE3 = .
	seh	$2
	cmpi	$2,1723
	btnez	$L46
	.loc 1 120 0
	lbu	$2,12($7)
	srl	$2,$2,4
	sll	$2,$2,2
	addu	$2,$7,$2
$LVL14 = .
$LBB4 = .
	.loc 1 124 0
	lhu	$3,2($2)
$LVL15 = .
	sll	$4,$3,8
$LVL16 = .
	srl	$3,$3,8
$LVL17 = .
	or	$3,$4
$LBE4 = .
	seh	$3
	cmpi	$3,1
	btnez	$L46
$LBB5 = .
	.loc 1 125 0 discriminator 1
	lhu	$4,8($2)
$LVL18 = .
	sll	$3,$4,8
	srl	$4,$4,8
$LVL19 = .
	or	$3,$4
	seh	$3
$LBE5 = .
	.loc 1 124 0 discriminator 1
	cmpi	$3,8
	btnez	$L20
	.loc 1 125 0
	lbu	$3,16($2)
	cmpi	$3,1
	btnez	$L46
$LBE2 = .
	.loc 1 98 0
	save	32,$16,$17,$31
	.cfi_def_cfa_offset 32
	.cfi_offset 31, -4
	.cfi_offset 17, -8
	.cfi_offset 16, -12
$LVL20 = .
$LBB6 = .
	.loc 1 132 0
	lw	$16,$L49
	lw	$3,36($16)
	beqz	$3,$L21
	.loc 1 132 0 is_stmt 0 discriminator 1
	lw	$3,20($16)
	beqz	$3,$L21
	.loc 1 132 0 discriminator 2
	lw	$4,32($16)
	beqz	$4,$L21
	.loc 1 134 0 is_stmt 1
	lhu	$4,18($16)
	lhu	$3,12($2)
	cmp	$4,$3
	btnez	$L18
	.loc 1 134 0 is_stmt 0 discriminator 1
	lhu	$4,30($16)
	lhu	$3,14($2)
	cmp	$4,$3
	btnez	$L18
$L21:
	.loc 1 141 0 is_stmt 1
	lhu	$3,12($2)
	move	$17,$5
	.loc 1 142 0
	lhu	$2,14($2)
$LVL21 = .
	.loc 1 141 0
	sh	$3,18($16)
	.loc 1 142 0
	sh	$2,30($16)
	.loc 1 143 0
	lbu	$2,18($6)
	lbu	$3,17($6)
	lbu	$5,16($6)
$LVL22 = .
	sll	$2,$2,8
	sll	$3,$3,8
	sll	$2,$2,8
	move	$4,$3
	move	$3,$2
	lbu	$2,19($6)
	or	$4,$5
	or	$3,$4
	sll	$2,$2,24
	or	$2,$3
	sw	$2,20($16)
	.loc 1 144 0
	lbu	$2,14($6)
	lbu	$3,13($6)
	lbu	$5,12($6)
	sll	$2,$2,8
	sll	$3,$3,8
	sll	$2,$2,8
	move	$4,$3
	move	$3,$2
	lbu	$2,15($6)
	or	$4,$5
	or	$3,$4
	sll	$2,$2,24
	.loc 1 145 0
	li	$6,6
$LVL23 = .
	.loc 1 144 0
	or	$2,$3
	.loc 1 145 0
	addiu	$5,$17,6
	lw	$4,$L50
	.set	noreorder
	.set	nomacro
	jal	memcpy
	sw	$2,32($16)
	.set	macro
	.set	reorder

$LVL24 = .
	.loc 1 146 0
	li	$6,6
	lw	$4,$L51
	.set	noreorder
	.set	nomacro
	jal	memcpy
	move	$5,$17
	.set	macro
	.set	reorder

$LVL25 = .
	.loc 1 147 0
	li	$2,1
	sw	$2,36($16)
	.loc 1 148 0
	sw	$2,4($16)
	b	$L18
$LVL26 = .
$L20:
	.cfi_def_cfa_offset 0
	.cfi_restore 16
	.cfi_restore 17
	.cfi_restore 31
	.loc 1 154 0 discriminator 1
	cmpi	$3,13
	btnez	$L46
$LVL27 = .
	.loc 1 161 0
	lw	$3,$L49
	lw	$4,36($3)
	beqz	$4,$L22
	.loc 1 161 0 is_stmt 0 discriminator 1
	lw	$4,20($3)
	beqz	$4,$L22
	.loc 1 161 0 discriminator 2
	lw	$4,32($3)
	beqz	$4,$L22
	.loc 1 163 0 is_stmt 1
	lhu	$4,18($3)
	lhu	$2,12($2)
$LVL28 = .
	cmp	$4,$2
	btnez	$L46
$L22:
	.loc 1 169 0
	li	$2,0
$LBE6 = .
	.set	noreorder
	.set	nomacro
	j	$31
	sw	$2,4($3)
	.set	macro
	.set	reorder

$LVL29 = .
$L18:
	.cfi_def_cfa_offset 32
	.cfi_offset 16, -12
	.cfi_offset 17, -8
	.cfi_offset 31, -4
	.loc 1 265 0
	restore	32,$16,$17,$31
	.cfi_restore 16
	.cfi_restore 17
	.cfi_restore 31
	.cfi_def_cfa_offset 0
$LVL30 = .
$L46:
	j	$31
	.align	2
$L48:
	.word	fast_pptp_fw
$L49:
	.word	pptpAccInfo
$L50:
	.word	pptpAccInfo+24
$L51:
	.word	pptpAccInfo+12
	.end	fast_pptp_filter
	.cfi_endproc
$LFE79:
	.size	fast_pptp_filter, .-fast_pptp_filter
	.section	.text.check_and_restore_pptp_hdr,"ax",@progbits
	.align	2
	.globl	check_and_restore_pptp_hdr
$LFB80 = .
	.loc 1 268 0
	.cfi_startproc
	.set	mips16
	.set	nomicromips
	.ent	check_and_restore_pptp_hdr
	.type	check_and_restore_pptp_hdr, @function
check_and_restore_pptp_hdr:
	.frame	$sp,24,$31		# vars= 0, regs= 2/0, args= 16, gp= 0
	.mask	0x80010000,-4
	.fmask	0x00000000,0
$LVL31 = .
	.loc 1 270 0
	lw	$2,$L63
	lw	$2,0($2)
	beqz	$2,$L62
	.loc 1 273 0
	lbu	$2,73($4)
	beqz	$2,$L62
$LBB7 = .
	.loc 1 275 0
	lbu	$5,74($4)
$LBE7 = .
	.loc 1 268 0
	save	24,$16,$31
	.cfi_def_cfa_offset 24
	.cfi_offset 31, -4
	.cfi_offset 16, -8
$LBB8 = .
	.loc 1 275 0
	.set	noreorder
	.set	nomacro
	jal	rtl_skb_push
	move	$16,$4
	.set	macro
	.set	reorder

$LVL32 = .
	.loc 1 276 0
	li	$2,0
	sb	$2,73($16)
$LBE8 = .
	.loc 1 278 0
	restore	24,$16,$31
	.cfi_restore 16
	.cfi_restore 31
	.cfi_def_cfa_offset 0
$LVL33 = .
$L62:
	j	$31
	.align	2
$L63:
	.word	fast_pptp_fw
	.end	check_and_restore_pptp_hdr
	.cfi_endproc
$LFE80:
	.size	check_and_restore_pptp_hdr, .-check_and_restore_pptp_hdr
	.section	.text.fast_pptp_to_lan,"ax",@progbits
	.align	2
	.globl	fast_pptp_to_lan
$LFB81 = .
	.loc 1 283 0
	.cfi_startproc
	.set	mips16
	.set	nomicromips
	.ent	fast_pptp_to_lan
	.type	fast_pptp_to_lan, @function
fast_pptp_to_lan:
	.frame	$sp,72,$31		# vars= 40, regs= 3/0, args= 16, gp= 0
	.mask	0x80030000,-4
	.fmask	0x00000000,0
$LVL34 = .
	.loc 1 294 0
	li	$2,0
	.loc 1 283 0
	save	72,$16,$17,$31
	.cfi_def_cfa_offset 72
	.cfi_offset 31, -4
	.cfi_offset 17, -8
	.cfi_offset 16, -12
	.loc 1 295 0
	lw	$17,0($4)
$LVL35 = .
	.loc 1 294 0
	sw	$2,16($sp)
	.loc 1 297 0
	lw	$2,$L103
	lw	$2,0($2)
	beqz	$2,$L64
	.loc 1 300 0
	lw	$2,$L104
	lw	$2,0($2)
	beqz	$2,$L79
	.loc 1 303 0
	lw	$16,8($17)
$LVL36 = .
	.loc 1 306 0
	lbu	$2,9($16)
	cmpi	$2,47
	btnez	$L79
	.loc 1 309 0
	lbu	$2,8($16)
	sltu	$2,2
	btnez	$L79
	.loc 1 319 0
	lbu	$7,0($16)
	li	$2,15
	and	$7,$2
	sll	$7,$7,2
	.loc 1 321 0
	li	$2,7
	.loc 1 319 0
	addu	$7,$16,$7
$LVL37 = .
	.loc 1 321 0
	lbu	$3,1($7)
	and	$2,$3
	cmpi	$2,1
	btnez	$L79
$LBB9 = .
	.loc 1 322 0 discriminator 1
	lhu	$2,2($7)
$LVL38 = .
	sll	$3,$2,8
	srl	$2,$2,8
	or	$2,$3
$LBE9 = .
	.loc 1 321 0 discriminator 1
	seh	$2
	addiu	$2,30709
	bnez	$2,$L79
$LVL39 = .
$LBB10 = .
	.loc 1 330 0
	lw	$3,$L105
	lhu	$5,6($7)
	lhu	$2,30($3)
	cmp	$5,$2
	btnez	$L79
	.loc 1 336 0
	lw	$2,68($3)
	sw	$4,40($sp)
	bnez	$2,$L67
	.loc 1 340 0
	li	$6,20
	sw	$3,52($sp)
	lw	$4,$L106
$LVL40 = .
	sw	$7,44($sp)
	.set	noreorder
	.set	nomacro
	jal	memcpy
	move	$5,$16
	.set	macro
	.set	reorder

$LVL41 = .
$LBB11 = .
	.loc 1 341 0
	lbu	$6,17($16)
	lbu	$5,16($16)
	lw	$3,52($sp)
	sll	$6,$6,8
	lw	$7,44($sp)
	move	$2,$6
	or	$2,$5
	lbu	$5,18($16)
	lw	$4,60($3)
	sll	$5,$5,8
	sll	$5,$5,8
	move	$6,$5
	lbu	$5,19($16)
	or	$6,$2
	srl	$2,$4,8
	sll	$5,$5,24
	srl	$2,$2,8
	or	$5,$6
$LVL42 = .
	move	$4,$5
	srl	$5,$5,8
$LVL43 = .
	li	$6,65535
	srl	$5,$5,8
	and	$4,$6
$LVL44 = .
	addu	$5,$4,$5
	lw	$4,60($3)
	subu	$5,$2,$5
	lhu	$2,58($3)
	and	$4,$6
	addu	$4,$5,$4
$LVL45 = .
	addu	$2,$4,$2
$LVL46 = .
	slt	$2,0
	bteqz	$L68
	.loc 1 341 0 is_stmt 0 discriminator 1
	neg	$2,$2
$LVL47 = .
	sra	$4,$2,8
	and	$2,$6
$LVL48 = .
	sra	$4,$4,8
	addu	$2,$4,$2
$LVL49 = .
	sra	$4,$2,8
	sra	$4,$4,8
$LVL50 = .
	addu	$2,$2,$4
$LVL51 = .
	not	$2,$2
$LVL52 = .
	b	$L101
$LVL53 = .
$L68:
	.loc 1 341 0 discriminator 2
	sra	$4,$2,8
	and	$2,$6
$LVL54 = .
	sra	$4,$4,8
	addu	$2,$4,$2
$LVL55 = .
	sra	$6,$2,8
	sra	$6,$6,8
$LVL56 = .
	addu	$2,$2,$6
$LVL57 = .
$L101:
	sh	$2,58($3)
$LBE11 = .
	.loc 1 342 0 is_stmt 1 discriminator 2
	lw	$5,$L105
	lbu	$4,17($16)
	lbu	$2,16($16)
	sll	$4,$4,8
	move	$6,$4
	or	$6,$2
	lbu	$2,18($16)
	sll	$2,$2,8
	sll	$2,$2,8
	move	$4,$2
	lbu	$2,19($16)
	or	$4,$6
	sll	$2,$2,24
	or	$2,$4
	sw	$2,60($3)
$LVL58 = .
$LBB12 = .
	.loc 1 343 0 discriminator 2
	lbu	$6,13($16)
	lbu	$4,12($16)
	sll	$6,$6,8
	or	$4,$6
	lbu	$6,14($16)
	sll	$6,$6,8
	sll	$6,$6,8
	or	$6,$4
	lbu	$4,15($16)
	sll	$4,$4,24
	move	$2,$4
	or	$2,$6
$LVL59 = .
	lw	$6,64($3)
	move	$4,$2
	srl	$2,$2,8
$LVL60 = .
	srl	$6,$6,8
	srl	$2,$2,8
	srl	$6,$6,8
	move	$24,$6
	li	$6,65535
	and	$4,$6
$LVL61 = .
	addu	$4,$4,$2
	move	$2,$24
	subu	$2,$2,$4
	lw	$4,64($3)
	and	$4,$6
	addu	$4,$2,$4
$LVL62 = .
	lhu	$2,58($3)
	addu	$2,$4,$2
$LVL63 = .
	slt	$2,0
	bteqz	$L70
	.loc 1 343 0 is_stmt 0 discriminator 1
	neg	$2,$2
$LVL64 = .
	sra	$4,$2,8
	and	$2,$6
$LVL65 = .
	sra	$4,$4,8
	addu	$2,$4,$2
$LVL66 = .
	sra	$4,$2,8
	sra	$4,$4,8
$LVL67 = .
	addu	$2,$2,$4
$LVL68 = .
	not	$2,$2
$LVL69 = .
	b	$L102
$LVL70 = .
$L70:
	.loc 1 343 0 discriminator 2
	sra	$4,$2,8
	and	$2,$6
$LVL71 = .
	sra	$4,$4,8
	addu	$2,$4,$2
$LVL72 = .
	sra	$6,$2,8
	sra	$6,$6,8
$LVL73 = .
	addu	$2,$2,$6
$LVL74 = .
$L102:
	sh	$2,58($5)
$LBE12 = .
	.loc 1 344 0 is_stmt 1 discriminator 2
	lbu	$2,14($16)
	lbu	$4,13($16)
	lbu	$6,12($16)
	sll	$2,$2,8
	sll	$4,$4,8
	sll	$2,$2,8
	move	$5,$4
	move	$4,$2
	lbu	$2,15($16)
	or	$5,$6
	or	$4,$5
	sll	$2,$2,24
	or	$2,$4
	sw	$2,64($3)
	.loc 1 345 0 discriminator 2
	li	$2,1
	sw	$2,68($3)
$L67:
	.loc 1 347 0
	lbu	$4,0($7)
	li	$2,16
	.loc 1 326 0
	li	$5,8
	.loc 1 347 0
	and	$2,$4
	beqz	$2,$L72
$LBB13 = .
	.loc 1 349 0
	lw	$6,8($7)
$LVL75 = .
	li	$5,65280
	srl	$4,$6,24
	sll	$2,$6,24
	and	$5,$6
	or	$2,$4
	lw	$4,$L107
	sll	$5,$5,8
	and	$4,$6
	srl	$4,$4,8
	or	$2,$5
	or	$2,$4
$LBE13 = .
	.loc 1 350 0
	li	$5,12
	.loc 1 349 0
	sw	$2,40($3)
$LVL76 = .
$L72:
	.loc 1 353 0
	lb	$2,1($7)
	slt	$2,0
	bteqz	$L73
	.loc 1 354 0
	addiu	$5,4
$LVL77 = .
$L73:
	.loc 1 359 0
	lhu	$2,4($7)
	beqz	$2,$L79
	.loc 1 356 0
	addu	$2,$7,$5
	.loc 1 362 0
	lbu	$3,0($2)
	bnez	$3,$L74
$LVL78 = .
	.loc 1 365 0
	addiu	$2,1
$LVL79 = .
	.loc 1 364 0
	li	$3,1
	b	$L75
$LVL80 = .
$L74:
	.loc 1 367 0
	cmpi	$3,255
	.loc 1 358 0
	li	$3,0
	.loc 1 367 0
	btnez	$L75
	.loc 1 367 0 is_stmt 0 discriminator 1
	lbu	$4,1($2)
	cmpi	$4,3
	btnez	$L75
$LVL81 = .
	.loc 1 371 0 is_stmt 1
	lbu	$4,2($2)
	.loc 1 370 0
	addiu	$3,$2,2
$LVL82 = .
	.loc 1 371 0
	bnez	$4,$L83
$LVL83 = .
	.loc 1 374 0
	addiu	$2,3
$LVL84 = .
	.loc 1 373 0
	li	$3,3
	b	$L75
$LVL85 = .
$L83:
	.loc 1 370 0
	move	$2,$3
	.loc 1 369 0
	li	$3,2
$LVL86 = .
$L75:
	.loc 1 379 0
	lbu	$6,0($2)
	li	$4,253
	cmpi	$6,33
	xor	$6,$4
	bteqz	$L76
	.loc 1 379 0 is_stmt 0 discriminator 1
	bnez	$6,$L79
$L76:
$LVL87 = .
	.loc 1 391 0 is_stmt 1
	lbu	$16,0($16)
$LVL88 = .
	li	$2,15
$LVL89 = .
	.loc 1 394 0
	move	$4,$7
	sw	$3,52($sp)
	sw	$5,44($sp)
	sw	$6,48($sp)
$LVL90 = .
	.set	noreorder
	.set	nomacro
	jal	sync_gre_rx_2_daemon
	and	$16,$2
	.set	macro
	.set	reorder

$LVL91 = .
	.loc 1 395 0
	lw	$6,48($sp)
	lw	$3,52($sp)
	lw	$5,44($sp)
	bnez	$6,$L77
$LVL92 = .
	.loc 1 391 0
	sll	$16,$16,2
$LVL93 = .
	.loc 1 381 0
	addiu	$3,1
$LVL94 = .
	.loc 1 391 0
	addu	$5,$16,$5
$LBB14 = .
	.loc 1 402 0
	move	$4,$17
$LBE14 = .
	.loc 1 391 0
	addu	$3,$5,$3
$LVL95 = .
$LBB15 = .
	.loc 1 402 0
	addiu	$7,$3,-4
	sw	$3,52($sp)
$LVL96 = .
	move	$5,$7
	.set	noreorder
	.set	nomacro
	jal	cyg_m_adj
	sw	$7,44($sp)
	.set	macro
	.set	reorder

$LVL97 = .
	.loc 1 413 0
	addiu	$5,$sp,16
	.loc 1 403 0
	lw	$16,8($17)
$LVL98 = .
	.loc 1 404 0
	lbu	$2,0($16)
	.loc 1 405 0
	lbu	$4,1($16)
	.loc 1 404 0
	sw	$2,24($sp)
$LVL99 = .
	.loc 1 406 0
	lbu	$2,2($16)
	.loc 1 405 0
	sw	$4,28($sp)
$LVL100 = .
	.loc 1 407 0
	lbu	$4,3($16)
	.loc 1 406 0
	sw	$2,32($sp)
$LVL101 = .
	.loc 1 408 0
	li	$2,1
	neg	$2,$2
	.loc 1 407 0
	sw	$4,36($sp)
$LVL102 = .
	.loc 1 413 0
	move	$4,$17
	.loc 1 408 0
	sb	$2,0($16)
	.loc 1 409 0
	li	$2,3
	sb	$2,1($16)
	.loc 1 411 0
	li	$2,3
	.loc 1 410 0
	lw	$6,48($sp)
	.loc 1 411 0
	neg	$2,$2
	.loc 1 410 0
	sb	$6,2($16)
	.loc 1 413 0
	.set	noreorder
	.set	nomacro
	jal	rtl_ppp_receive_nonmp_frame
	sb	$2,3($16)
	.set	macro
	.set	reorder

$LVL103 = .
	.loc 1 415 0
	lw	$3,52($sp)
	lw	$7,44($sp)
	beqz	$2,$L78
	.loc 1 420 0
	lw	$2,16($sp)
$LVL104 = .
	.loc 1 421 0
	lw	$3,40($sp)
	sw	$2,0($3)
	.loc 1 423 0
	lw	$3,24($2)
	addiu	$3,-4
	sw	$3,24($2)
	.loc 1 424 0
	lw	$3,8($2)
	addiu	$3,4
	sw	$3,8($2)
	.loc 1 425 0
	lw	$3,12($2)
	addiu	$3,-4
	sw	$3,12($2)
	b	$L77
$LVL105 = .
$L78:
	.loc 1 449 0
	lw	$6,24($sp)
	sb	$6,0($16)
	.loc 1 450 0
	lw	$6,28($sp)
	sb	$6,1($16)
	.loc 1 451 0
	lw	$6,32($sp)
	sb	$6,2($16)
	.loc 1 452 0
	lw	$6,36($sp)
	sb	$6,3($16)
	.loc 1 453 0
	lw	$4,12($17)
	.loc 1 454 0
	lw	$6,8($17)
	.loc 1 453 0
	addu	$2,$4,$7
$LVL106 = .
	sw	$2,12($17)
	.loc 1 454 0
	li	$2,4
	subu	$3,$2,$3
	.loc 1 455 0
	lw	$2,24($17)
	.loc 1 454 0
	addu	$3,$6,$3
	.loc 1 455 0
	addu	$7,$2,$7
	.loc 1 454 0
	sw	$3,8($17)
	.loc 1 455 0
	sw	$7,24($17)
$LVL107 = .
$L77:
$LBE15 = .
	.loc 1 460 0
	lw	$2,$L105
	lw	$2,44($2)
$LVL108 = .
	.loc 1 461 0
	beqz	$2,$L79
	.loc 1 461 0 is_stmt 0 discriminator 1
	lhu	$4,58($2)
	li	$3,1
	and	$3,$4
	beqz	$3,$L79
	.loc 1 463 0 is_stmt 1
	lw	$3,92($2)
	addiu	$3,1
	sw	$3,92($2)
$LVL109 = .
$L79:
	li	$2,0
$L64:
$LBE10 = .
	.loc 1 476 0
	restore	72,$16,$17,$31
	.cfi_restore 16
	.cfi_restore 17
	.cfi_restore 31
	.cfi_def_cfa_offset 0
	j	$31
	.align	2
$L103:
	.word	fast_pptp_fw
$L104:
	.word	ppp_comp_flag
$L105:
	.word	pptpAccInfo
$L106:
	.word	pptpAccInfo+48
$L107:
	.word	16711680
	.end	fast_pptp_to_lan
	.cfi_endproc
$LFE81:
	.size	fast_pptp_to_lan, .-fast_pptp_to_lan
	.section	.text.fast_pptp_to_lan_skb,"ax",@progbits
	.align	2
	.globl	fast_pptp_to_lan_skb
$LFB82 = .
	.loc 1 484 0
	.cfi_startproc
	.set	mips16
	.set	nomicromips
	.ent	fast_pptp_to_lan_skb
	.type	fast_pptp_to_lan_skb, @function
fast_pptp_to_lan_skb:
	.frame	$sp,48,$31		# vars= 16, regs= 3/0, args= 16, gp= 0
	.mask	0x80030000,-4
	.fmask	0x00000000,0
$LVL110 = .
	save	48,$16,$17,$31
	.cfi_def_cfa_offset 48
	.cfi_offset 31, -4
	.cfi_offset 17, -8
	.cfi_offset 16, -12
	.loc 1 495 0
	.set	noreorder
	.set	nomacro
	jal	rtl_ip_hdr
	move	$17,$4
	.set	macro
	.set	reorder

$LVL111 = .
	.loc 1 496 0
	move	$4,$17
$LVL112 = .
	.set	noreorder
	.set	nomacro
	jal	rtl_get_skb_data
	sw	$2,16($sp)
	.set	macro
	.set	reorder

$LVL113 = .
	.loc 1 497 0
	lw	$3,16($sp)
	.loc 1 496 0
	sw	$2,20($sp)
$LVL114 = .
	.loc 1 497 0
	li	$2,15
$LVL115 = .
	lbu	$16,0($3)
	and	$16,$2
$LVL116 = .
	.loc 1 499 0
	lw	$2,$L143
	lw	$2,0($2)
	beqz	$2,$L109
	.loc 1 502 0
	lw	$2,$L144
	lw	$2,0($2)
	bnez	$2,$L111
	.loc 1 505 0
	lbu	$2,9($3)
	cmpi	$2,47
	btnez	$L111
	.loc 1 508 0
	lbu	$2,8($3)
	sltu	$2,2
	btnez	$L111
	.loc 1 511 0 discriminator 1
	.set	noreorder
	.set	nomacro
	jal	rtl_get_skb_len
	move	$4,$17
	.set	macro
	.set	reorder

$LVL117 = .
	sltu	$2,20
	btnez	$L111
	.loc 1 497 0
	lw	$3,20($sp)
	sll	$16,$16,2
$LVL118 = .
	.loc 1 514 0
	li	$5,0
	move	$4,$17
	.set	noreorder
	.set	nomacro
	jal	rtl_set_skb_pptp_flag
	addu	$16,$3,$16
	.set	macro
	.set	reorder

$LVL119 = .
	.loc 1 516 0
	li	$2,7
	lbu	$3,1($16)
	and	$2,$3
	cmpi	$2,1
	btnez	$L111
$LBB16 = .
	.loc 1 517 0 discriminator 1
	lhu	$2,2($16)
$LVL120 = .
	sll	$3,$2,8
	srl	$2,$2,8
	or	$2,$3
$LBE16 = .
	.loc 1 516 0 discriminator 1
	seh	$2
	addiu	$2,30709
	bnez	$2,$L111
$LVL121 = .
$LBB17 = .
	.loc 1 522 0
	lw	$3,$L145
	lhu	$4,6($16)
	lhu	$2,30($3)
	cmp	$4,$2
	btnez	$L111
	.loc 1 527 0
	lw	$4,68($3)
	bnez	$4,$L113
	.loc 1 530 0
	lw	$5,16($sp)
	li	$6,20
	lw	$4,$L146
	.set	noreorder
	.set	nomacro
	jal	memcpy
	sw	$3,24($sp)
	.set	macro
	.set	reorder

$LVL122 = .
$LBB18 = .
	.loc 1 531 0
	lw	$5,16($sp)
	lw	$3,24($sp)
	lw	$4,16($5)
$LVL123 = .
	lw	$6,60($3)
	srl	$7,$4,8
	srl	$5,$6,8
	li	$6,65535
	move	$2,$4
	srl	$7,$7,8
	and	$2,$6
	addu	$7,$2,$7
	lw	$2,60($3)
	srl	$5,$5,8
	subu	$5,$5,$7
	and	$2,$6
	addu	$5,$5,$2
$LVL124 = .
	lhu	$2,58($3)
	addu	$2,$5,$2
$LVL125 = .
	slt	$2,0
	bteqz	$L114
	.loc 1 531 0 is_stmt 0 discriminator 1
	neg	$2,$2
$LVL126 = .
	sra	$5,$2,8
	and	$2,$6
$LVL127 = .
	sra	$5,$5,8
	addu	$2,$5,$2
$LVL128 = .
	sra	$5,$2,8
	sra	$5,$5,8
$LVL129 = .
	addu	$2,$2,$5
$LVL130 = .
	not	$2,$2
$LVL131 = .
	b	$L142
$LVL132 = .
$L114:
	.loc 1 531 0 discriminator 2
	sra	$5,$2,8
	and	$2,$6
$LVL133 = .
	sra	$5,$5,8
	addu	$2,$5,$2
$LVL134 = .
	sra	$5,$2,8
	sra	$5,$5,8
$LVL135 = .
	addu	$2,$2,$5
$LVL136 = .
$L142:
	sh	$2,58($3)
$LBE18 = .
	.loc 1 532 0 is_stmt 1 discriminator 2
	lw	$7,$L145
	sw	$4,60($3)
$LVL137 = .
$LBB19 = .
	.loc 1 533 0 discriminator 2
	lw	$2,16($sp)
	lw	$4,64($3)
	lw	$6,12($2)
$LVL138 = .
	srl	$4,$4,8
	srl	$4,$4,8
	srl	$5,$6,8
	move	$25,$4
	li	$4,65535
	srl	$5,$5,8
	move	$2,$6
	and	$2,$4
	addu	$2,$2,$5
	move	$5,$25
	subu	$2,$5,$2
	lw	$5,64($3)
	and	$5,$4
	addu	$2,$2,$5
$LVL139 = .
	lhu	$5,58($3)
	addu	$2,$2,$5
$LVL140 = .
	slt	$2,0
	bteqz	$L116
	.loc 1 533 0 is_stmt 0 discriminator 1
	neg	$2,$2
$LVL141 = .
	sra	$3,$2,8
	and	$4,$2
	sra	$3,$3,8
	addu	$4,$3,$4
$LVL142 = .
	sra	$2,$4,8
	sra	$2,$2,8
$LVL143 = .
	addu	$4,$4,$2
$LVL144 = .
	not	$4,$4
$LVL145 = .
	sh	$4,58($7)
	b	$L117
$LVL146 = .
$L116:
	.loc 1 533 0 discriminator 2
	sra	$3,$2,8
	and	$2,$4
$LVL147 = .
	sra	$3,$3,8
	addu	$2,$3,$2
$LVL148 = .
	sra	$4,$2,8
	sra	$4,$4,8
$LVL149 = .
	addu	$2,$2,$4
$LVL150 = .
	sh	$2,58($7)
$LVL151 = .
$L117:
$LBE19 = .
	.loc 1 535 0 is_stmt 1
	li	$3,1
	.loc 1 534 0
	lw	$2,$L145
	sw	$6,64($2)
	.loc 1 535 0
	sw	$3,68($2)
$L113:
	.loc 1 538 0
	lbu	$3,0($16)
	li	$2,16
	and	$2,$3
	.loc 1 519 0
	li	$3,8
	.loc 1 538 0
	beqz	$2,$L118
$LBB20 = .
	.loc 1 539 0
	lw	$5,8($16)
$LVL152 = .
	li	$4,65280
	srl	$3,$5,24
	sll	$2,$5,24
	and	$4,$5
	or	$2,$3
	lw	$3,$L147
	sll	$4,$4,8
	and	$3,$5
	srl	$3,$3,8
	or	$2,$4
	or	$2,$3
$LBE20 = .
	lw	$3,$L145
	sw	$2,40($3)
$LVL153 = .
	.loc 1 540 0
	li	$3,12
$LVL154 = .
$L118:
	.loc 1 543 0
	lb	$2,1($16)
	slt	$2,0
	bteqz	$L119
	.loc 1 544 0
	addiu	$3,4
$LVL155 = .
$L119:
	.loc 1 549 0
	lhu	$2,4($16)
	beqz	$2,$L111
	.loc 1 546 0
	addu	$4,$16,$3
	.loc 1 551 0
	lbu	$2,0($4)
	bnez	$2,$L120
$LVL156 = .
	.loc 1 553 0
	addiu	$4,1
$LVL157 = .
	.loc 1 552 0
	li	$2,1
	b	$L121
$LVL158 = .
$L120:
	.loc 1 555 0
	cmpi	$2,255
	.loc 1 548 0
	li	$2,0
	.loc 1 555 0
	btnez	$L121
	.loc 1 555 0 is_stmt 0 discriminator 1
	lbu	$5,1($4)
	cmpi	$5,3
	btnez	$L121
$LVL159 = .
	.loc 1 558 0 is_stmt 1
	lbu	$5,2($4)
	.loc 1 557 0
	addiu	$2,$4,2
$LVL160 = .
	.loc 1 558 0
	bnez	$5,$L127
$LVL161 = .
	.loc 1 560 0
	addiu	$4,3
$LVL162 = .
	.loc 1 559 0
	li	$2,3
	b	$L121
$LVL163 = .
$L127:
	.loc 1 557 0
	move	$4,$2
	.loc 1 556 0
	li	$2,2
$LVL164 = .
$L121:
	.loc 1 563 0
	lbu	$4,0($4)
$LVL165 = .
	cmpi	$4,33
	bteqz	$L122
	.loc 1 563 0 is_stmt 0 discriminator 1
	cmpi	$4,253
	btnez	$L111
$L122:
$LVL166 = .
	.loc 1 574 0 is_stmt 1
	lw	$6,16($sp)
	li	$5,15
	lbu	$4,0($6)
	and	$4,$5
	sll	$4,$4,2
	addu	$4,$4,$3
	.loc 1 564 0
	addiu	$3,$2,1
$LVL167 = .
	.loc 1 574 0
	addu	$3,$4,$3
$LVL168 = .
	.loc 1 575 0
	lw	$4,20($sp)
	addu	$2,$4,$3
$LVL169 = .
	.loc 1 576 0
	lbu	$4,9($2)
	cmpi	$4,6
	btnez	$L123
$LVL170 = .
	.loc 1 578 0
	lbu	$4,0($2)
	and	$5,$4
	.loc 1 579 0
	sll	$5,$5,2
	addu	$2,$2,$5
$LVL171 = .
	lbu	$4,13($2)
	li	$2,7
	and	$2,$4
	bnez	$2,$L111
$LVL172 = .
$L123:
	.loc 1 583 0
	move	$4,$16
	.set	noreorder
	.set	nomacro
	jal	sync_gre_rx_2_daemon
	sw	$3,24($sp)
	.set	macro
	.set	reorder

$LVL173 = .
	.loc 1 584 0
	move	$4,$17
	lw	$3,24($sp)
	.set	noreorder
	.set	nomacro
	jal	skb_pull
	move	$5,$3
	.set	macro
	.set	reorder

$LVL174 = .
	.loc 1 585 0
	li	$5,1
	.set	noreorder
	.set	nomacro
	jal	rtl_set_skb_pptp_flag
	move	$4,$17
	.set	macro
	.set	reorder

$LVL175 = .
	.loc 1 586 0
	move	$4,$17
	lw	$3,24($sp)
	.set	noreorder
	.set	nomacro
	jal	rtl_set_skb_pptp_offset
	move	$5,$3
	.set	macro
	.set	reorder

$LVL176 = .
	.loc 1 589 0
	lw	$2,$L145
	lw	$2,44($2)
$LVL177 = .
	.loc 1 590 0
	beqz	$2,$L111
	.loc 1 590 0 is_stmt 0 discriminator 1
	lhu	$4,58($2)
	li	$3,1
	and	$3,$4
	beqz	$3,$L111
	.loc 1 592 0 is_stmt 1
	lw	$3,92($2)
	addiu	$3,1
	sw	$3,92($2)
$LVL178 = .
$L111:
	li	$2,0
$LVL179 = .
$L109:
$LVL180 = .
$LBE17 = .
	.loc 1 598 0
	restore	48,$16,$17,$31
	.cfi_restore 16
	.cfi_restore 17
	.cfi_restore 31
	.cfi_def_cfa_offset 0
$LVL181 = .
	j	$31
	.align	2
$L143:
	.word	fast_pptp_fw
$L144:
	.word	ppp_comp_flag
$L145:
	.word	pptpAccInfo
$L146:
	.word	pptpAccInfo+48
$L147:
	.word	16711680
	.end	fast_pptp_to_lan_skb
	.cfi_endproc
$LFE82:
	.size	fast_pptp_to_lan_skb, .-fast_pptp_to_lan_skb
	.section	.rodata.str1.4,"aMS",@progbits,1
	.align	2
$LC25:
	.ascii	"%s,%d,prepend error!\012\000"
	.section	.text.fast_pptp_to_wan,"ax",@progbits
	.align	2
	.globl	fast_pptp_to_wan
$LFB83 = .
	.loc 1 603 0
	.cfi_startproc
	.set	mips16
	.set	nomicromips
	.ent	fast_pptp_to_wan
	.type	fast_pptp_to_wan, @function
fast_pptp_to_wan:
	.frame	$sp,72,$31		# vars= 40, regs= 3/0, args= 16, gp= 0
	.mask	0x80030000,-4
	.fmask	0x00000000,0
$LVL182 = .
	.loc 1 617 0
	lw	$3,$L185
	.loc 1 613 0
	li	$2,0
	.loc 1 603 0
	save	72,$16,$17,$31
	.cfi_def_cfa_offset 72
	.cfi_offset 31, -4
	.cfi_offset 17, -8
	.cfi_offset 16, -12
	.loc 1 617 0
	lw	$3,0($3)
	.loc 1 613 0
	sw	$2,32($sp)
	.loc 1 614 0
	lw	$2,0($4)
$LVL183 = .
	.loc 1 617 0
	bnez	$3,$L149
$LVL184 = .
$L151:
	.loc 1 618 0
	li	$2,0
	b	$L181
$LVL185 = .
$L149:
	.loc 1 620 0
	lw	$3,$L186
	lw	$3,0($3)
	beqz	$3,$L151
	.loc 1 623 0
	beqz	$5,$L151
	.loc 1 626 0
	lw	$3,$L187
	move	$17,$3
	lw	$6,44($3)
	xor	$5,$6
$LVL186 = .
	sw	$6,40($sp)
	bnez	$5,$L151
$LVL187 = .
	.loc 1 630 0
	lw	$3,4($3)
	beqz	$3,$L151
	move	$6,$4
$LVL188 = .
$LBB21 = .
	.loc 1 633 0
	addiu	$5,$sp,32
	move	$4,$2
$LVL189 = .
	.set	noreorder
	.set	nomacro
	jal	rtl_ppp_receive_mp_frame
	sw	$6,48($sp)
	.set	macro
	.set	reorder

$LVL190 = .
	.loc 1 634 0
	cmpi	$2,1
	lw	$6,48($sp)
	btnez	$L151
	.loc 1 639 0
	lw	$16,32($sp)
$LBB22 = .
	.loc 1 674 0
	li	$5,1
$LBE22 = .
	.loc 1 639 0
	sw	$16,0($6)
$LVL191 = .
$LBB23 = .
	.loc 1 674 0
	lhu	$6,18($16)
	lw	$4,8($16)
	and	$5,$6
	beqz	$5,$L152
	.loc 1 674 0 is_stmt 0 discriminator 1
	lw	$6,96($16)
	subu	$2,$4,$6
$LVL192 = .
	b	$L153
$LVL193 = .
$L152:
	.loc 1 674 0 discriminator 2
	li	$2,2
$LVL194 = .
	and	$2,$6
	beqz	$2,$L154
	.loc 1 674 0 discriminator 4
	addiu	$2,$16,7
	addiu	$2,89
	b	$L184
$L154:
	.loc 1 674 0 discriminator 5
	addiu	$2,$16,7
	addiu	$2,13
$L184:
	subu	$2,$4,$2
$L153:
	.loc 1 674 0 discriminator 8
	slt	$2,50
$LVL195 = .
	btnez	$L155
	.loc 1 674 0 discriminator 9
	lw	$2,12($16)
	addiu	$4,-50
	addiu	$2,50
	sw	$4,8($16)
	sw	$2,12($16)
	b	$L156
$L155:
	.loc 1 674 0 discriminator 10
	li	$6,1
	li	$5,50
	.set	noreorder
	.set	nomacro
	jal	cyg_m_prepend
	move	$4,$16
	.set	macro
	.set	reorder

$LVL196 = .
	move	$16,$2
$LVL197 = .
	beqz	$2,$L157
$LVL198 = .
$L156:
	.loc 1 674 0 discriminator 13
	lhu	$4,18($16)
	li	$2,2
	and	$2,$4
	beqz	$2,$L158
	.loc 1 674 0 discriminator 15
	lw	$2,24($16)
	addiu	$2,50
	sw	$2,24($16)
	b	$L158
$LVL199 = .
$L157:
$LBE23 = .
	.loc 1 677 0 is_stmt 1
	li	$6,677
	lw	$5,$L188
	lw	$4,$L189
	jal	diag_printf
$LVL200 = .
	.loc 1 678 0
	li	$2,255
	addiu	$2,100
	b	$L181
$LVL201 = .
$L158:
	.loc 1 680 0
	lw	$7,8($16)
$LVL202 = .
	.loc 1 682 0
	li	$6,6
	lw	$5,$L190
	.set	noreorder
	.set	nomacro
	jal	memcpy
	move	$4,$7
	.set	macro
	.set	reorder

$LVL203 = .
	.loc 1 683 0
	lw	$5,$L191
	addiu	$4,$2,6
	sw	$2,48($sp)
	.set	noreorder
	.set	nomacro
	jal	memcpy
	li	$6,6
	.set	macro
	.set	reorder

$LVL204 = .
	.loc 1 684 0
	li	$2,8
	lw	$7,48($sp)
	sb	$2,12($7)
	li	$2,0
	sb	$2,13($7)
$LVL205 = .
$LBB24 = .
	.loc 1 706 0
	lw	$4,24($16)
$LBE24 = .
	.loc 1 705 0
	lhu	$5,50($17)
$LVL206 = .
$LBB25 = .
	.loc 1 706 0
	addiu	$4,-14
	zeh	$4
$LVL207 = .
	sll	$2,$4,8
	srl	$4,$4,8
$LVL208 = .
	or	$2,$4
$LBE25 = .
$LBB26 = .
	.loc 1 707 0
	lhu	$4,58($17)
$LBE26 = .
$LBB27 = .
	.loc 1 706 0
	zeh	$2
$LBE27 = .
	sh	$2,50($17)
$LVL209 = .
$LBB28 = .
	.loc 1 707 0
	subu	$2,$5,$2
$LVL210 = .
	addu	$2,$2,$4
$LVL211 = .
	slt	$2,0
	bteqz	$L182
$LVL212 = .
	.loc 1 707 0 is_stmt 0 discriminator 1
	addiu	$2,-1
$LVL213 = .
	lw	$3,$L187
	sh	$2,58($3)
	b	$L159
$LVL214 = .
$L182:
	.loc 1 707 0 discriminator 2
	sra	$4,$2,8
	zeh	$2
$LVL215 = .
	sra	$4,$4,8
	lw	$6,$L187
	addu	$2,$4,$2
$LVL216 = .
	sra	$4,$2,8
	sra	$4,$4,8
$LVL217 = .
	addu	$2,$2,$4
$LVL218 = .
	sh	$2,58($6)
$LVL219 = .
$L159:
$LBE28 = .
	.loc 1 708 0 is_stmt 1
	addiu	$4,$7,7
	sw	$7,48($sp)
	li	$6,20
	lw	$5,$L192
$LVL220 = .
	.set	noreorder
	.set	nomacro
	jal	memcpy
	addiu	$4,7
	.set	macro
	.set	reorder

$LVL221 = .
	.loc 1 712 0
	li	$2,48
	move	$3,$sp
	.loc 1 716 0
	lhu	$6,18($17)
$LBB29 = .
	.loc 1 717 0
	lw	$5,$L193
$LBE29 = .
	.loc 1 712 0
	sb	$2,16($3)
	.loc 1 713 0
	li	$2,127
	neg	$2,$2
	.loc 1 716 0
	sh	$6,22($3)
$LBB30 = .
	.loc 1 717 0
	li	$6,65280
$LBE30 = .
	.loc 1 713 0
	sb	$2,17($3)
$LVL222 = .
	.loc 1 714 0
	li	$2,2952
	.loc 1 719 0
	lw	$7,48($sp)
	.loc 1 714 0
	sh	$2,18($3)
$LBB31 = .
	.loc 1 715 0
	lw	$2,24($16)
	addiu	$2,-50
	zeh	$2
$LVL223 = .
	sll	$4,$2,8
	srl	$2,$2,8
$LVL224 = .
	or	$2,$4
$LBE31 = .
	sh	$2,20($3)
$LBB32 = .
	.loc 1 717 0
	lw	$2,36($17)
	addiu	$4,$2,1
	srl	$3,$2,24
	sw	$4,36($17)
$LVL225 = .
	sll	$4,$2,24
	or	$3,$4
	move	$4,$2
	and	$4,$6
	sll	$4,$4,8
	or	$3,$4
	move	$4,$2
	and	$4,$5
	srl	$4,$4,8
	move	$2,$3
$LVL226 = .
	or	$2,$4
$LBE32 = .
	sw	$2,24($sp)
$LBB33 = .
	.loc 1 718 0
	lw	$2,40($17)
$LVL227 = .
	sll	$4,$2,24
	srl	$3,$2,24
	or	$3,$4
	move	$4,$2
	and	$4,$6
	sll	$4,$4,8
	move	$6,$3
	and	$2,$5
$LVL228 = .
	or	$6,$4
	srl	$2,$2,8
	move	$5,$6
	or	$5,$2
$LBE33 = .
	.loc 1 719 0
	addiu	$4,$7,7
	.loc 1 718 0
	sw	$5,28($sp)
	.loc 1 719 0
	li	$6,16
	addiu	$5,$sp,16
$LVL229 = .
	.set	noreorder
	.set	nomacro
	jal	memcpy
	addiu	$4,27
	.set	macro
	.set	reorder

$LVL230 = .
	.loc 1 721 0
	lw	$2,8($17)
	beqz	$2,$L151
$LBB34 = .
	.loc 1 724 0
	jal	sync_gre_tx_2_daemon
$LVL231 = .
	.loc 1 725 0
	li	$2,1
	lw	$3,40($sp)
	lhu	$4,58($3)
	and	$2,$4
	beqz	$2,$L160
	.loc 1 727 0
	lw	$6,100($3)
	move	$2,$6
	addiu	$2,1
	sw	$2,100($3)
$L160:
	.loc 1 729 0
	lw	$4,8($17)
	.set	noreorder
	.set	nomacro
	jal	cyg_ether_output_frame
	move	$5,$16
	.set	macro
	.set	reorder

$LVL232 = .
	.loc 1 730 0
	li	$2,1
$LVL233 = .
$L181:
$LBE34 = .
$LBE21 = .
	.loc 1 734 0
	restore	72,$16,$17,$31
	.cfi_restore 16
	.cfi_restore 17
	.cfi_restore 31
	.cfi_def_cfa_offset 0
	j	$31
	.align	2
$L185:
	.word	fast_pptp_fw
$L186:
	.word	ppp_comp_flag
$L187:
	.word	pptpAccInfo
$L188:
	.word	__FUNCTION__.6009
$L189:
	.word	$LC25
$L190:
	.word	pptpAccInfo+24
$L191:
	.word	pptpAccInfo+12
$L192:
	.word	pptpAccInfo+48
$L193:
	.word	16711680
	.end	fast_pptp_to_wan
	.cfi_endproc
$LFE83:
	.size	fast_pptp_to_wan, .-fast_pptp_to_wan
	.section	.text.fast_pptp_to_wan_skb,"ax",@progbits
	.align	2
	.globl	fast_pptp_to_wan_skb
$LFB84 = .
	.loc 1 738 0
	.cfi_startproc
	.set	mips16
	.set	nomicromips
	.ent	fast_pptp_to_wan_skb
	.type	fast_pptp_to_wan_skb, @function
fast_pptp_to_wan_skb:
	.frame	$sp,72,$31		# vars= 40, regs= 3/0, args= 16, gp= 0
	.mask	0x80030000,-4
	.fmask	0x00000000,0
$LVL234 = .
	.loc 1 748 0
	lw	$2,$L235
	lw	$2,0($2)
	beqz	$2,$L231
	.loc 1 751 0
	lw	$2,$L236
	lw	$2,0($2)
	bnez	$2,$L231
	.loc 1 738 0
	save	72,$16,$17,$31
	.cfi_def_cfa_offset 72
	.cfi_offset 31, -4
	.cfi_offset 17, -8
	.cfi_offset 16, -12
	move	$16,$4
	.loc 1 754 0
	.set	noreorder
	.set	nomacro
	jal	rtl_get_skb_dev
	sw	$5,40($sp)
	.set	macro
	.set	reorder

$LVL235 = .
	bnez	$2,$L234
$L197:
	.loc 1 749 0
	li	$2,0
	b	$L196
$L234:
	.loc 1 754 0 discriminator 1
	lw	$3,40($sp)
	beqz	$3,$L197
	.loc 1 759 0
	lbu	$2,72($3)
	cmpi	$2,23
	btnez	$L197
	.loc 1 764 0
	lw	$3,$L237
	move	$17,$3
	lw	$2,68($3)
	beqz	$2,$L197
	.loc 1 767 0
	lw	$4,4($3)
	beqz	$4,$L197
	.loc 1 767 0 is_stmt 0 discriminator 1
	lw	$2,44($3)
	beqz	$2,$L197
	.loc 1 767 0 discriminator 2
	lw	$3,8($3)
	beqz	$3,$L197
$LVL236 = .
$LBB46 = .
$LBB47 = .
$LBB48 = .
	.file 2 "/home/kai_wang/release-ecos1.5.1/release_tool_v15/ecos_v1.5.1_20160706/ecos-work/97f-8812br-16M-gw_install/include/cyg/io/eth/rltk/819x/wrapper/skbuff.h"
	.loc 2 464 0 is_stmt 1
	lw	$2,36($16)
	.loc 2 463 0
	lw	$7,16($16)
	.loc 2 464 0
	addiu	$2,54
	.loc 2 463 0
	addiu	$4,$7,-8
	.loc 2 464 0
	sw	$2,36($16)
	.loc 2 463 0
	addiu	$4,-46
	.loc 2 469 0
	lw	$2,84($16)
	.loc 2 463 0
	sw	$4,16($16)
	.loc 2 469 0
	beqz	$2,$L198
$LVL237 = .
$LBB49 = .
$LBB50 = .
	lw	$2,76($16)
	beqz	$2,$L198
	.loc 2 470 0
	addiu	$2,54
	sw	$2,76($16)
$LVL238 = .
$L198:
$LBE50 = .
$LBE49 = .
$LBE48 = .
$LBE47 = .
	.loc 1 773 0
	lw	$3,$L237
	sw	$7,48($sp)
	li	$6,6
	lw	$5,$L238
	.set	noreorder
	.set	nomacro
	jal	memcpy
	sw	$3,52($sp)
	.set	macro
	.set	reorder

$LVL239 = .
	.loc 1 774 0
	li	$6,6
	lw	$7,48($sp)
	lw	$5,$L239
	addiu	$4,$7,-8
	.set	noreorder
	.set	nomacro
	jal	memcpy
	addiu	$4,-40
	.set	macro
	.set	reorder

$LVL240 = .
	.loc 1 775 0
	li	$2,8
	lw	$7,48($sp)
$LBB51 = .
	.loc 1 798 0
	move	$4,$16
$LBE51 = .
	.loc 1 775 0
	sb	$2,-42($7)
	li	$2,0
	sb	$2,-41($7)
$LVL241 = .
	.loc 1 797 0
	lhu	$5,50($17)
$LVL242 = .
$LBB52 = .
	.loc 1 798 0
	.set	noreorder
	.set	nomacro
	jal	rtl_get_skb_len
	sw	$5,48($sp)
	.set	macro
	.set	reorder

$LVL243 = .
	addiu	$2,-14
$LBE52 = .
$LBB53 = .
	.loc 1 799 0
	lw	$5,48($sp)
	lw	$3,52($sp)
$LBE53 = .
$LBB54 = .
	.loc 1 798 0
	move	$4,$2
	zeh	$4
$LVL244 = .
	sll	$2,$4,8
$LVL245 = .
	srl	$4,$4,8
$LVL246 = .
	or	$2,$4
	zeh	$2
$LBE54 = .
$LBB55 = .
	.loc 1 799 0
	subu	$5,$5,$2
$LBE55 = .
	.loc 1 798 0
	sh	$2,50($17)
$LVL247 = .
$LBB56 = .
	.loc 1 799 0
	lhu	$2,58($17)
	addu	$2,$5,$2
$LVL248 = .
	slt	$2,0
	bteqz	$L199
$LVL249 = .
	.loc 1 799 0 is_stmt 0 discriminator 1
	addiu	$2,-1
$LVL250 = .
	b	$L232
$LVL251 = .
$L199:
	.loc 1 799 0 discriminator 2
	sra	$4,$2,8
	zeh	$2
$LVL252 = .
	sra	$4,$4,8
	addu	$2,$4,$2
$LVL253 = .
	sra	$4,$2,8
	sra	$4,$4,8
$LVL254 = .
	addu	$2,$2,$4
$LVL255 = .
$L232:
	sh	$2,58($3)
$LBE56 = .
	.loc 1 800 0 is_stmt 1 discriminator 2
	.set	noreorder
	.set	nomacro
	jal	rtl_get_skb_data
	move	$4,$16
	.set	macro
	.set	reorder

$LVL256 = .
	li	$6,20
	addiu	$4,$2,7
	lw	$5,$L240
$LVL257 = .
	.set	noreorder
	.set	nomacro
	jal	memcpy
	addiu	$4,7
	.set	macro
	.set	reorder

$LVL258 = .
	.loc 1 817 0 discriminator 2
	li	$2,48
	move	$3,$sp
$LBB57 = .
	.loc 1 820 0 discriminator 2
	move	$4,$16
$LBE57 = .
	.loc 1 817 0 discriminator 2
	sb	$2,16($3)
	.loc 1 818 0 discriminator 2
	li	$2,127
	neg	$2,$2
	sb	$2,17($3)
$LVL259 = .
	.loc 1 819 0 discriminator 2
	li	$2,2952
$LBB58 = .
	.loc 1 820 0 discriminator 2
	.set	noreorder
	.set	nomacro
	jal	rtl_get_skb_len
	sh	$2,18($3)
	.set	macro
	.set	reorder

$LVL260 = .
$LBE58 = .
$LBB59 = .
	.loc 1 822 0 discriminator 2
	li	$6,65280
$LBE59 = .
$LBB60 = .
	.loc 1 820 0 discriminator 2
	addiu	$2,-50
$LBE60 = .
$LBB61 = .
	.loc 1 822 0 discriminator 2
	lw	$5,$L241
$LBE61 = .
$LBB62 = .
	.loc 1 820 0 discriminator 2
	zeh	$2
$LVL261 = .
	sll	$4,$2,8
	srl	$2,$2,8
$LVL262 = .
	or	$2,$4
$LBE62 = .
	move	$4,$sp
	sh	$2,20($4)
	.loc 1 821 0 discriminator 2
	lhu	$2,18($17)
	sh	$2,22($4)
$LBB63 = .
	.loc 1 822 0 discriminator 2
	lw	$2,36($17)
	addiu	$4,$2,1
	srl	$7,$2,24
	sw	$4,36($17)
$LVL263 = .
	sll	$4,$2,24
	or	$7,$4
	move	$4,$2
	and	$4,$6
	sll	$4,$4,8
	or	$7,$4
	move	$4,$2
	and	$4,$5
	srl	$4,$4,8
	move	$2,$7
$LVL264 = .
	or	$2,$4
$LBE63 = .
	sw	$2,24($sp)
$LBB64 = .
	.loc 1 823 0 discriminator 2
	lw	$2,40($17)
$LVL265 = .
	sll	$4,$2,24
	srl	$7,$2,24
	or	$7,$4
	move	$4,$2
	and	$4,$6
	sll	$4,$4,8
	move	$6,$7
	and	$2,$5
$LVL266 = .
	or	$6,$4
	srl	$2,$2,8
	move	$5,$6
	or	$5,$2
$LBE64 = .
	.loc 1 824 0 discriminator 2
	move	$4,$16
	.set	noreorder
	.set	nomacro
	jal	rtl_get_skb_data
	sw	$5,28($sp)
	.set	macro
	.set	reorder

$LVL267 = .
	li	$6,16
	addiu	$4,$2,7
	addiu	$5,$sp,16
$LVL268 = .
	.set	noreorder
	.set	nomacro
	jal	memcpy
	addiu	$4,27
	.set	macro
	.set	reorder

$LVL269 = .
	.loc 1 828 0 discriminator 2
	li	$2,1023
	move	$3,$sp
	.loc 1 830 0 discriminator 2
	move	$4,$16
	.loc 1 828 0 discriminator 2
	sh	$2,32($3)
$LVL270 = .
	.loc 1 829 0 discriminator 2
	li	$2,8448
	.loc 1 830 0 discriminator 2
	.set	noreorder
	.set	nomacro
	jal	rtl_get_skb_data
	sh	$2,34($3)
	.set	macro
	.set	reorder

$LVL271 = .
	li	$6,4
	addiu	$4,$2,7
	addiu	$5,$sp,32
$LVL272 = .
	.set	noreorder
	.set	nomacro
	jal	memcpy
	addiu	$4,43
	.set	macro
	.set	reorder

$LVL273 = .
	.loc 1 834 0 discriminator 2
	jal	sync_gre_tx_2_daemon
$LVL274 = .
	.loc 1 838 0 discriminator 2
	lw	$4,8($17)
	beqz	$4,$L201
$LBB65 = .
	.loc 1 842 0
	jal	rtl_getDevByIfp
$LVL275 = .
	.loc 1 845 0
	move	$4,$16
	move	$5,$2
	.set	noreorder
	.set	nomacro
	jal	rtl_set_skb_dev
	sw	$2,52($sp)
	.set	macro
	.set	reorder

$LVL276 = .
	.loc 1 861 0
	lw	$2,40($sp)
	lw	$3,52($sp)
	lhu	$4,58($2)
	li	$2,1
	and	$2,$4
	beqz	$2,$L202
	.loc 1 863 0
	lw	$4,40($sp)
	lw	$4,100($4)
	move	$2,$4
	lw	$4,40($sp)
	addiu	$2,1
	sw	$2,100($4)
$L202:
	.loc 1 866 0
	lw	$2,48($3)
	move	$5,$3
	.set	noreorder
	.set	nomacro
	jalr	$2
	move	$4,$16
	.set	macro
	.set	reorder

$LVL277 = .
	b	$L233
$L201:
$LBE65 = .
	.loc 1 870 0
	.set	noreorder
	.set	nomacro
	jal	kfree_skb
	move	$4,$16
	.set	macro
	.set	reorder

$LVL278 = .
$L233:
	.loc 1 873 0
	li	$2,1
$LVL279 = .
$L196:
$LBE46 = .
	.loc 1 876 0
	restore	72,$16,$17,$31
	.cfi_restore 16
	.cfi_restore 17
	.cfi_restore 31
	.cfi_def_cfa_offset 0
$LVL280 = .
	j	$31
$LVL281 = .
$L231:
	.set	noreorder
	.set	nomacro
	j	$31
	li	$2,0
	.set	macro
	.set	reorder

	.align	2
$L235:
	.word	fast_pptp_fw
$L236:
	.word	ppp_comp_flag
$L237:
	.word	pptpAccInfo
$L238:
	.word	pptpAccInfo+24
$L239:
	.word	pptpAccInfo+12
$L240:
	.word	pptpAccInfo+48
$L241:
	.word	16711680
	.end	fast_pptp_to_wan_skb
	.cfi_endproc
$LFE84:
	.size	fast_pptp_to_wan_skb, .-fast_pptp_to_wan_skb
	.section	.text.fast_pptp_to_wan_check,"ax",@progbits
	.align	2
	.globl	fast_pptp_to_wan_check
$LFB85 = .
	.loc 1 882 0
	.cfi_startproc
	.set	mips16
	.set	nomicromips
	.ent	fast_pptp_to_wan_check
	.type	fast_pptp_to_wan_check, @function
fast_pptp_to_wan_check:
	.frame	$sp,24,$31		# vars= 0, regs= 2/0, args= 16, gp= 0
	.mask	0x80010000,-4
	.fmask	0x00000000,0
$LVL282 = .
	.loc 1 892 0
	lw	$2,$L255
	lw	$2,0($2)
	beqz	$2,$L253
	.loc 1 895 0
	lw	$2,$L256
	lw	$2,0($2)
	bnez	$2,$L253
	.loc 1 882 0
	save	24,$16,$31
	.cfi_def_cfa_offset 24
	.cfi_offset 31, -4
	.cfi_offset 16, -8
	move	$16,$4
$LVL283 = .
	.loc 1 898 0
	.set	noreorder
	.set	nomacro
	jal	rtl_get_skb_dev
	move	$4,$5
	.set	macro
	.set	reorder

$LVL284 = .
	bnez	$2,$L254
$L245:
	.loc 1 893 0
	li	$2,0
	b	$L244
$L254:
	.loc 1 898 0 discriminator 1
	beqz	$16,$L245
	.loc 1 903 0
	lbu	$2,72($16)
	cmpi	$2,23
	btnez	$L245
	.loc 1 908 0
	lw	$2,$L257
	li	$3,1
	lw	$2,68($2)
	sltu	$2,1
	move	$2,$24
	xor	$2,$3
$L244:
	.loc 1 912 0
	restore	24,$16,$31
	.cfi_restore 16
	.cfi_restore 31
	.cfi_def_cfa_offset 0
$LVL285 = .
	j	$31
$LVL286 = .
$L253:
	.set	noreorder
	.set	nomacro
	j	$31
	li	$2,0
	.set	macro
	.set	reorder

	.align	2
$L255:
	.word	fast_pptp_fw
$L256:
	.word	ppp_comp_flag
$L257:
	.word	pptpAccInfo
	.end	fast_pptp_to_wan_check
	.cfi_endproc
$LFE85:
	.size	fast_pptp_to_wan_check, .-fast_pptp_to_wan_check
	.section	.text.fast_pptp_to_wan_skb2,"ax",@progbits
	.align	2
	.globl	fast_pptp_to_wan_skb2
$LFB86 = .
	.loc 1 918 0
	.cfi_startproc
	.set	mips16
	.set	nomicromips
	.ent	fast_pptp_to_wan_skb2
	.type	fast_pptp_to_wan_skb2, @function
fast_pptp_to_wan_skb2:
	.frame	$sp,72,$31		# vars= 40, regs= 3/0, args= 16, gp= 0
	.mask	0x80030000,-4
	.fmask	0x00000000,0
$LVL287 = .
	.loc 1 928 0
	lw	$2,$L299
	.loc 1 918 0
	save	$4,72,$16,$17,$31
	.cfi_def_cfa_offset 72
	.cfi_offset 31, -4
	.cfi_offset 17, -8
	.cfi_offset 16, -12
	.loc 1 918 0
	move	$16,$5
	.loc 1 928 0
	lw	$2,0($2)
	beqz	$2,$L259
	.loc 1 931 0
	lw	$2,$L300
	lw	$2,0($2)
	bnez	$2,$L259
$LVL288 = .
	.loc 1 934 0
	.set	noreorder
	.set	nomacro
	jal	rtl_get_skb_dev
	move	$4,$5
	.set	macro
	.set	reorder

$LVL289 = .
	beqz	$2,$L259
	.loc 1 934 0 is_stmt 0 discriminator 1
	lw	$3,72($sp)
	beqz	$3,$L259
	.loc 1 939 0 is_stmt 1
	lbu	$2,72($3)
	cmpi	$2,23
	btnez	$L259
	.loc 1 944 0
	lw	$3,$L301
	move	$17,$3
	lw	$2,68($3)
	beqz	$2,$L259
	.loc 1 947 0
	lw	$4,4($3)
	beqz	$4,$L259
	.loc 1 947 0 is_stmt 0 discriminator 1
	lw	$2,44($3)
	beqz	$2,$L259
	.loc 1 947 0 discriminator 2
	lw	$3,8($3)
	beqz	$3,$L259
$LVL290 = .
$LBB77 = .
$LBB78 = .
$LBB79 = .
	.loc 2 464 0 is_stmt 1
	lw	$2,36($16)
	.loc 2 463 0
	lw	$7,16($16)
	.loc 2 464 0
	addiu	$2,54
	.loc 2 463 0
	addiu	$4,$7,-8
	.loc 2 464 0
	sw	$2,36($16)
	.loc 2 463 0
	addiu	$4,-46
	.loc 2 469 0
	lw	$2,84($16)
	.loc 2 463 0
	sw	$4,16($16)
	.loc 2 469 0
	beqz	$2,$L260
$LVL291 = .
$LBB80 = .
$LBB81 = .
	lw	$2,76($16)
	beqz	$2,$L260
	.loc 2 470 0
	addiu	$2,54
	sw	$2,76($16)
$LVL292 = .
$L260:
$LBE81 = .
$LBE80 = .
$LBE79 = .
$LBE78 = .
	.loc 1 953 0
	lw	$3,$L301
	sw	$7,44($sp)
	li	$6,6
	lw	$5,$L302
	.set	noreorder
	.set	nomacro
	jal	memcpy
	sw	$3,48($sp)
	.set	macro
	.set	reorder

$LVL293 = .
	.loc 1 954 0
	li	$6,6
	lw	$7,44($sp)
	lw	$5,$L303
	addiu	$4,$7,-8
	.set	noreorder
	.set	nomacro
	jal	memcpy
	addiu	$4,-40
	.set	macro
	.set	reorder

$LVL294 = .
	.loc 1 955 0
	li	$2,8
	lw	$7,44($sp)
$LBB82 = .
	.loc 1 978 0
	move	$4,$16
$LBE82 = .
	.loc 1 955 0
	sb	$2,-42($7)
	li	$2,0
	sb	$2,-41($7)
$LVL295 = .
	.loc 1 977 0
	lhu	$5,50($17)
$LVL296 = .
$LBB83 = .
	.loc 1 978 0
	.set	noreorder
	.set	nomacro
	jal	rtl_get_skb_len
	sw	$5,44($sp)
	.set	macro
	.set	reorder

$LVL297 = .
	addiu	$2,-14
$LBE83 = .
$LBB84 = .
	.loc 1 979 0
	lw	$5,44($sp)
	lw	$3,48($sp)
$LBE84 = .
$LBB85 = .
	.loc 1 978 0
	move	$4,$2
	zeh	$4
$LVL298 = .
	sll	$2,$4,8
$LVL299 = .
	srl	$4,$4,8
$LVL300 = .
	or	$2,$4
	zeh	$2
$LBE85 = .
$LBB86 = .
	.loc 1 979 0
	subu	$5,$5,$2
$LBE86 = .
	.loc 1 978 0
	sh	$2,50($17)
$LVL301 = .
$LBB87 = .
	.loc 1 979 0
	lhu	$2,58($17)
	addu	$2,$5,$2
$LVL302 = .
	slt	$2,0
	bteqz	$L261
$LVL303 = .
	.loc 1 979 0 is_stmt 0 discriminator 1
	addiu	$2,-1
$LVL304 = .
	b	$L297
$LVL305 = .
$L261:
	.loc 1 979 0 discriminator 2
	sra	$4,$2,8
	zeh	$2
$LVL306 = .
	sra	$4,$4,8
	addu	$2,$4,$2
$LVL307 = .
	sra	$4,$2,8
	sra	$4,$4,8
$LVL308 = .
	addu	$2,$2,$4
$LVL309 = .
$L297:
	sh	$2,58($3)
$LBE87 = .
	.loc 1 980 0 is_stmt 1 discriminator 2
	.set	noreorder
	.set	nomacro
	jal	rtl_get_skb_data
	move	$4,$16
	.set	macro
	.set	reorder

$LVL310 = .
	li	$6,20
	addiu	$4,$2,7
	lw	$5,$L304
$LVL311 = .
	.set	noreorder
	.set	nomacro
	jal	memcpy
	addiu	$4,7
	.set	macro
	.set	reorder

$LVL312 = .
	.loc 1 997 0 discriminator 2
	li	$2,48
	move	$3,$sp
$LBB88 = .
	.loc 1 1000 0 discriminator 2
	move	$4,$16
$LBE88 = .
	.loc 1 997 0 discriminator 2
	sb	$2,16($3)
	.loc 1 998 0 discriminator 2
	li	$2,127
	neg	$2,$2
	sb	$2,17($3)
$LVL313 = .
	.loc 1 999 0 discriminator 2
	li	$2,2952
$LBB89 = .
	.loc 1 1000 0 discriminator 2
	.set	noreorder
	.set	nomacro
	jal	rtl_get_skb_len
	sh	$2,18($3)
	.set	macro
	.set	reorder

$LVL314 = .
$LBE89 = .
$LBB90 = .
	.loc 1 1002 0 discriminator 2
	li	$6,65280
$LBE90 = .
$LBB91 = .
	.loc 1 1000 0 discriminator 2
	addiu	$2,-50
$LBE91 = .
$LBB92 = .
	.loc 1 1002 0 discriminator 2
	lw	$5,$L305
$LBE92 = .
$LBB93 = .
	.loc 1 1000 0 discriminator 2
	zeh	$2
$LVL315 = .
	sll	$4,$2,8
	srl	$2,$2,8
$LVL316 = .
	or	$2,$4
$LBE93 = .
	move	$4,$sp
	sh	$2,20($4)
	.loc 1 1001 0 discriminator 2
	lhu	$2,18($17)
	sh	$2,22($4)
$LBB94 = .
	.loc 1 1002 0 discriminator 2
	lw	$2,36($17)
	addiu	$4,$2,1
	srl	$7,$2,24
	sw	$4,36($17)
$LVL317 = .
	sll	$4,$2,24
	or	$7,$4
	move	$4,$2
	and	$4,$6
	sll	$4,$4,8
	or	$7,$4
	move	$4,$2
	and	$4,$5
	srl	$4,$4,8
	move	$2,$7
$LVL318 = .
	or	$2,$4
$LBE94 = .
	sw	$2,24($sp)
$LBB95 = .
	.loc 1 1003 0 discriminator 2
	lw	$2,40($17)
$LVL319 = .
	sll	$4,$2,24
	srl	$7,$2,24
	or	$7,$4
	move	$4,$2
	and	$4,$6
	sll	$4,$4,8
	move	$6,$7
	and	$2,$5
$LVL320 = .
	or	$6,$4
	srl	$2,$2,8
	move	$5,$6
	or	$5,$2
$LBE95 = .
	.loc 1 1004 0 discriminator 2
	move	$4,$16
	.set	noreorder
	.set	nomacro
	jal	rtl_get_skb_data
	sw	$5,28($sp)
	.set	macro
	.set	reorder

$LVL321 = .
	li	$6,16
	addiu	$4,$2,7
	addiu	$5,$sp,16
$LVL322 = .
	.set	noreorder
	.set	nomacro
	jal	memcpy
	addiu	$4,27
	.set	macro
	.set	reorder

$LVL323 = .
	.loc 1 1008 0 discriminator 2
	li	$2,1023
	move	$3,$sp
	.loc 1 1010 0 discriminator 2
	move	$4,$16
	.loc 1 1008 0 discriminator 2
	sh	$2,32($3)
$LVL324 = .
	.loc 1 1009 0 discriminator 2
	li	$2,8448
	.loc 1 1010 0 discriminator 2
	.set	noreorder
	.set	nomacro
	jal	rtl_get_skb_data
	sh	$2,34($3)
	.set	macro
	.set	reorder

$LVL325 = .
	li	$6,4
	addiu	$4,$2,7
	addiu	$5,$sp,32
$LVL326 = .
	.set	noreorder
	.set	nomacro
	jal	memcpy
	addiu	$4,43
	.set	macro
	.set	reorder

$LVL327 = .
	.loc 1 1014 0 discriminator 2
	jal	sync_gre_tx_2_daemon
$LVL328 = .
	.loc 1 1018 0 discriminator 2
	lw	$4,8($17)
	beqz	$4,$L263
$LBB96 = .
	.loc 1 1022 0
	jal	rtl_getDevByIfp
$LVL329 = .
	.loc 1 1025 0
	move	$4,$16
	move	$5,$2
	.set	noreorder
	.set	nomacro
	jal	rtl_set_skb_dev
	sw	$2,48($sp)
	.set	macro
	.set	reorder

$LVL330 = .
	.loc 1 1041 0
	lw	$2,72($sp)
	lw	$3,48($sp)
	lhu	$4,58($2)
	li	$2,1
	and	$2,$4
	beqz	$2,$L264
	.loc 1 1043 0
	lw	$4,72($sp)
	lw	$4,100($4)
	move	$2,$4
	lw	$4,72($sp)
	addiu	$2,1
	sw	$2,100($4)
$L264:
	.loc 1 1046 0
	lw	$2,48($3)
	move	$5,$3
	.set	noreorder
	.set	nomacro
	jalr	$2
	move	$4,$16
	.set	macro
	.set	reorder

$LVL331 = .
	b	$L298
$L263:
$LBE96 = .
	.loc 1 1050 0
	.set	noreorder
	.set	nomacro
	jal	kfree_skb
	move	$4,$16
	.set	macro
	.set	reorder

$LVL332 = .
$L298:
	.loc 1 1053 0
	li	$2,1
	b	$L265
$LVL333 = .
$L259:
$LDL1 = .
$LBE77 = .
	.loc 1 1057 0
	.set	noreorder
	.set	nomacro
	jal	kfree_skb
	move	$4,$16
	.set	macro
	.set	reorder

$LVL334 = .
	.loc 1 1058 0
	li	$2,0
$L265:
	.loc 1 1060 0
	restore	72,$16,$17,$31
	.cfi_restore 16
	.cfi_restore 17
	.cfi_restore 31
	.cfi_def_cfa_offset 0
$LVL335 = .
	j	$31
	.align	2
$L299:
	.word	fast_pptp_fw
$L300:
	.word	ppp_comp_flag
$L301:
	.word	pptpAccInfo
$L302:
	.word	pptpAccInfo+24
$L303:
	.word	pptpAccInfo+12
$L304:
	.word	pptpAccInfo+48
$L305:
	.word	16711680
	.end	fast_pptp_to_wan_skb2
	.cfi_endproc
$LFE86:
	.size	fast_pptp_to_wan_skb2, .-fast_pptp_to_wan_skb2
	.section	.rodata.__FUNCTION__.6009,"a",@progbits
	.align	2
	.type	__FUNCTION__.6009, @object
	.size	__FUNCTION__.6009, 17
__FUNCTION__.6009:
	.ascii	"fast_pptp_to_wan\000"
	.globl	fast_pptp_fw
	.section	.bss.fast_pptp_fw,"aw",@nobits
	.align	2
	.type	fast_pptp_fw, @object
	.size	fast_pptp_fw, 4
fast_pptp_fw:
	.space	4
	.section	.bss.pptpAccInfo,"aw",@nobits
	.align	2
	.type	pptpAccInfo, @object
	.size	pptpAccInfo, 72
pptpAccInfo:
	.space	72
	.text
$Letext0:
	.file 3 "/home/kai_wang/release-ecos1.5.1/release_tool_v15/ecos_v1.5.1_20160706/gnutools/msdk-4.9.4/linux/newlib/lib/gcc/mips-elf/4.9.4/include/stddef.h"
	.file 4 "/home/kai_wang/release-ecos1.5.1/release_tool_v15/ecos_v1.5.1_20160706/ecos-work/97f-8812br-16M-gw_install/include/cyg/infra/cyg_type.h"
	.file 5 "/home/kai_wang/release-ecos1.5.1/release_tool_v15/ecos_v1.5.1_20160706/ecos-work/97f-8812br-16M-gw_install/include/sys/bsdtypes.h"
	.file 6 "/home/kai_wang/release-ecos1.5.1/release_tool_v15/ecos_v1.5.1_20160706/ecos-work/97f-8812br-16M-gw_install/include/time.h"
	.file 7 "/home/kai_wang/release-ecos1.5.1/release_tool_v15/ecos_v1.5.1_20160706/ecos-work/97f-8812br-16M-gw_install/include/cyg/libc/time/time.h"
	.file 8 "/home/kai_wang/release-ecos1.5.1/release_tool_v15/ecos_v1.5.1_20160706/ecos-work/97f-8812br-16M-gw_install/include/rtl/rtl_types.h"
	.file 9 "/home/kai_wang/release-ecos1.5.1/release_tool_v15/ecos_v1.5.1_20160706/ecos-work/97f-8812br-16M-gw_install/include/cyg/io/eth/rltk/819x/wrapper/sys_support.h"
	.file 10 "/home/kai_wang/release-ecos1.5.1/release_tool_v15/ecos_v1.5.1_20160706/ecos-work/97f-8812br-16M-gw_install/include/sys/socket.h"
	.file 11 "/home/kai_wang/release-ecos1.5.1/release_tool_v15/ecos_v1.5.1_20160706/ecos-work/97f-8812br-16M-gw_install/include/cyg/posix/sys/time.h"
	.file 12 "/home/kai_wang/release-ecos1.5.1/release_tool_v15/ecos_v1.5.1_20160706/ecos-work/97f-8812br-16M-gw_install/include/net/if_var.h"
	.file 13 "/home/kai_wang/release-ecos1.5.1/release_tool_v15/ecos_v1.5.1_20160706/ecos-work/97f-8812br-16M-gw_install/include/net/if.h"
	.file 14 "/home/kai_wang/release-ecos1.5.1/release_tool_v15/ecos_v1.5.1_20160706/ecos-work/97f-8812br-16M-gw_install/include/sys/mbuf.h"
	.file 15 "/home/kai_wang/release-ecos1.5.1/release_tool_v15/ecos_v1.5.1_20160706/ecos-work/97f-8812br-16M-gw_install/include/net/route.h"
	.file 16 "/home/kai_wang/release-ecos1.5.1/release_tool_v15/ecos_v1.5.1_20160706/ecos-work/97f-8812br-16M-gw_install/include/netinet/rtl_vlan.h"
	.file 17 "/home/kai_wang/release-ecos1.5.1/release_tool_v15/ecos_v1.5.1_20160706/ecos-work/97f-8812br-16M-gw_install/include/cyg/io/eth/rltk/819x/wrapper/wireless.h"
	.file 18 "/home/kai_wang/release-ecos1.5.1/release_tool_v15/ecos_v1.5.1_20160706/ecos-work/97f-8812br-16M-gw_install/include/netinet/ip.h"
	.file 19 "/home/kai_wang/release-ecos1.5.1/release_tool_v15/ecos_v1.5.1_20160706/ecos-work/97f-8812br-16M-gw_install/include/netinet/tcp.h"
	.file 20 "/home/kai_wang/release-ecos1.5.1/release_tool_v15/ecos_v1.5.1_20160706/ecos-work/97f-8812br-16M-gw_install/include/net/radix.h"
	.file 21 "/home/kai_wang/release-ecos1.5.1/release_tool_v15/ecos_v1.5.1_20160706/ecos-work/97f-8812br-16M-gw_install/include/net/ethernet.h"
	.file 22 "/home/kai_wang/release-ecos1.5.1/release_tool_v15/ecos_v1.5.1_20160706/ecos-work/97f-8812br-16M-gw_install/include/netinet/fastpath/fastpath_core.h"
	.file 23 "/home/kai_wang/release-ecos1.5.1/release_tool_v15/ecos_v1.5.1_20160706/ecos-work/97f-8812br-16M-gw_install/include/cyg/libc/time/time.inl"
	.file 24 "/home/kai_wang/release-ecos1.5.1/release_tool_v15/ecos_v1.5.1_20160706/ecos-work/97f-8812br-16M-gw_install/include/cyg/libc/time/timeutil.h"
	.file 25 "/home/kai_wang/release-ecos1.5.1/release_tool_v15/ecos_v1.5.1_20160706/ecos-work/97f-8812br-16M-gw_install/include/cyg/infra/diag.h"