	.section .mdebug.abi32
	.previous
	.nan	legacy
	.gnu_attribute 4, 3
	.text
$Ltext0:
	.cfi_sections	.debug_frame
	.section	.text.free_fragEntry,"ax",@progbits
	.align	2
$LFB73 = .
	.file 1 "/home/dingbin_lu/ecos_v1.5.1_20160706/ecos-work/../ecos-3.0/packages/net/bsd_tcpip/v3_0/src/sys/netinet/fastpath/fastpath_core.c"
	.loc 1 358 0
	.cfi_startproc
	.set	mips16
	.set	nomicromips
	.ent	free_fragEntry
	.type	free_fragEntry, @function
free_fragEntry:
	.frame	$sp,8,$31		# vars= 0, regs= 2/0, args= 0, gp= 0
	.mask	0x00030000,-4
	.fmask	0x00000000,0
$LVL0 = .
$LBB56 = .
$LBB57 = .
	.loc 1 350 0
	lw	$2,4($4)
$LBE57 = .
$LBE56 = .
	.loc 1 358 0
	save	8,$16,$17
	.cfi_def_cfa_offset 8
	.cfi_offset 17, -4
	.cfi_offset 16, -8
$LVL1 = .
$LBB59 = .
$LBB58 = .
	.loc 1 350 0
	lw	$3,8($4)
	lw	$7,$L6
	.loc 1 352 0
	lhu	$5,2($4)
	lw	$16,24($4)
	.loc 1 350 0
	xor	$3,$2
$LVL2 = .
	.loc 1 352 0
	srl	$2,$3,8
$LVL3 = .
	xor	$3,$5
$LVL4 = .
	srl	$2,$2,8
	xor	$3,$2
$LVL5 = .
	.loc 1 353 0
	lbu	$2,1($4)
	srl	$5,$3,8
	xor	$3,$2
$LVL6 = .
	move	$2,$3
	.loc 1 354 0
	lw	$3,$L7
$LVL7 = .
	.loc 1 353 0
	xor	$2,$5
$LVL8 = .
	.loc 1 354 0
	lw	$3,0($3)
	addiu	$3,-1
	and	$2,$3
$LVL9 = .
$LBE58 = .
$LBE59 = .
	.loc 1 361 0
	li	$3,0
	sll	$6,$2,2
	sll	$2,$2,4
	sb	$3,0($4)
	.loc 1 362 0
	lw	$3,20($4)
	beqz	$3,$L2
	.loc 1 362 0 is_stmt 0 discriminator 1
	sw	$16,24($3)
	b	$L3
$L2:
	.loc 1 362 0 discriminator 2
	lw	$17,0($7)
	lw	$5,0($17)
	subu	$17,$2,$6
	addu	$5,$5,$17
	sw	$16,4($5)
$L3:
	.loc 1 362 0 discriminator 4
	lw	$5,24($4)
	subu	$2,$2,$6
	sw	$3,0($5)
	lw	$3,0($7)
	lw	$3,0($3)
	addu	$2,$3,$2
	lw	$3,8($2)
	addiu	$3,-1
	sw	$3,8($2)
	.loc 1 363 0 is_stmt 1 discriminator 4
	li	$2,0
	sw	$2,28($4)
	lw	$2,$L8
	lw	$3,4($2)
	sw	$3,32($4)
	sw	$4,0($3)
	addiu	$4,28
$LVL10 = .
	lw	$3,8($2)
$LVL11 = .
	sw	$4,4($2)
	addiu	$3,1
	sw	$3,8($2)
	.loc 1 364 0 discriminator 4
	restore	8,$16,$17
	.cfi_restore 16
	.cfi_restore 17
	.cfi_def_cfa_offset 0
	j	$31
	.align	2
$L6:
	.word	udp_cache_table
$L7:
	.word	max_udp_frag_entry
$L8:
	.word	udp_cache_list_free
	.end	free_fragEntry
	.cfi_endproc
$LFE73:
	.size	free_fragEntry, .-free_fragEntry
	.section	.text.FastPath_Hash_PATH_Entry,"ax",@progbits
	.align	2
$LFB79 = .
	.loc 1 585 0
	.cfi_startproc
	.set	mips16
	.set	nomicromips
	.ent	FastPath_Hash_PATH_Entry
	.type	FastPath_Hash_PATH_Entry, @function
FastPath_Hash_PATH_Entry:
	.frame	$sp,0,$31		# vars= 0, regs= 0/0, args= 0, gp= 0
	.mask	0x00000000,0
	.fmask	0x00000000,0
$LVL12 = .
	.loc 1 585 0
	move	$3,$sp
$LVL13 = .
	.loc 1 598 0
	srl	$5,$5,4
$LVL14 = .
	.loc 1 585 0
	lhu	$2,16($3)
	.loc 1 596 0
	srl	$3,$4,8
$LVL15 = .
	xor	$7,$2
$LVL16 = .
	xor	$7,$6
	.loc 1 597 0
	srl	$6,$6,8
$LVL17 = .
	xor	$5,$7
	srl	$6,$6,8
	xor	$5,$4
	xor	$6,$5
	.loc 1 600 0
	move	$4,$6
$LVL18 = .
	xor	$4,$3
$LVL19 = .
	.loc 1 601 0
	srl	$2,$4,8
	srl	$2,$2,4
	xor	$4,$2
$LVL20 = .
	lw	$2,$L10
	lw	$2,0($2)
	addiu	$2,-1
	.loc 1 605 0
	.set	noreorder
	.set	nomacro
	j	$31
	and	$2,$4
	.set	macro
	.set	reorder

	.align	2
$L10:
	.word	path_table_list_max
	.end	FastPath_Hash_PATH_Entry
	.cfi_endproc
$LFE79:
	.size	FastPath_Hash_PATH_Entry, .-FastPath_Hash_PATH_Entry
	.section	.text.cache_timeout,"ax",@progbits
	.align	2
$LFB74 = .
	.loc 1 369 0
	.cfi_startproc
	.set	mips16
	.set	nomicromips
	.ent	cache_timeout
	.type	cache_timeout, @function
cache_timeout:
	.frame	$sp,40,$31		# vars= 8, regs= 3/0, args= 16, gp= 0
	.mask	0x80030000,-4
	.fmask	0x00000000,0
	save	40,$16,$17,$31
	.cfi_def_cfa_offset 40
	.cfi_offset 31, -4
	.cfi_offset 17, -8
	.cfi_offset 16, -12
	.loc 1 374 0
	.set	noreorder
	.set	nomacro
	jal	rtl_getTimeStamp
	li	$17,0
	.set	macro
	.set	reorder

$LVL21 = .
$L15:
	.loc 1 377 0
	lw	$3,$L18
	lw	$3,0($3)
	lw	$3,0($3)
	addu	$3,$3,$17
	lw	$16,0($3)
$LVL22 = .
$L12:
	.loc 1 377 0 is_stmt 0 discriminator 1
	beqz	$16,$L17
	.loc 1 379 0 is_stmt 1
	lw	$3,16($16)
	addiu	$3,10
	sltu	$3,$2
	bteqz	$L13
	.loc 1 379 0 is_stmt 0 discriminator 1
	lbu	$3,0($16)
	cmpi	$3,1
	btnez	$L13
	.loc 1 381 0 is_stmt 1
	move	$4,$16
	.set	noreorder
	.set	nomacro
	jal	free_fragEntry
	sw	$2,16($sp)
	.set	macro
	.set	reorder

$LVL23 = .
	lw	$2,16($sp)
$L13:
	.loc 1 377 0 discriminator 2
	lw	$16,20($16)
$LVL24 = .
	b	$L12
$L17:
	addiu	$17,12
	.loc 1 375 0 discriminator 2
	cmpi	$17,768
	btnez	$L15
	.loc 1 386 0
	lw	$2,$L19
	li	$7,0
	lw	$6,$L20
	lw	$2,0($2)
	lw	$4,$L21
	sll	$5,$2,2
	.set	noreorder
	.set	nomacro
	jal	cyg_callout_reset
	addu	$5,$5,$2
	.set	macro
	.set	reorder

$LVL25 = .
	.loc 1 388 0
	restore	40,$16,$17,$31
	.cfi_restore 16
	.cfi_restore 17
	.cfi_restore 31
	.cfi_def_cfa_offset 0
$LVL26 = .
	j	$31
	.align	2
$L18:
	.word	udp_cache_table
$L19:
	.word	cyg_hz
$L20:
	.word	cache_timeout
$L21:
	.word	udp_frag_cache_timer
	.end	cache_timeout
	.cfi_endproc
$LFE74:
	.size	cache_timeout, .-cache_timeout
	.section	.text.unlikely.add_fragEntry,"ax",@progbits
	.align	2
$LFB78 = .
	.loc 1 476 0
	.cfi_startproc
	.set	mips16
	.set	nomicromips
	.ent	add_fragEntry
	.type	add_fragEntry, @function
add_fragEntry:
	.frame	$sp,40,$31		# vars= 8, regs= 3/0, args= 16, gp= 0
	.mask	0x80030000,-4
	.fmask	0x00000000,0
$LVL27 = .
	save	40,$16,$17,$31
	.cfi_def_cfa_offset 40
	.cfi_offset 31, -4
	.cfi_offset 17, -8
	.cfi_offset 16, -12
	.loc 1 476 0
	move	$2,$sp
	move	$3,$sp
	lhu	$2,56($2)
	lbu	$17,60($3)
$LVL28 = .
	move	$24,$2
$LBB62 = .
$LBB63 = .
	.loc 1 350 0
	move	$2,$5
	xor	$2,$7
$LVL29 = .
	.loc 1 352 0
	srl	$3,$2,8
$LVL30 = .
	srl	$3,$3,8
	xor	$2,$3
$LVL31 = .
	xor	$2,$4
$LVL32 = .
	.loc 1 353 0
	srl	$3,$2,8
	xor	$2,$17
$LVL33 = .
	xor	$2,$3
$LVL34 = .
	.loc 1 354 0
	lw	$3,$L28
	lw	$16,0($3)
$LBE63 = .
$LBE62 = .
	.loc 1 483 0
	li	$3,0
	move	$25,$3
$LBB65 = .
$LBB64 = .
	.loc 1 354 0
	addiu	$16,-1
	and	$2,$16
$LVL35 = .
	sw	$2,16($sp)
$LBE64 = .
$LBE65 = .
	.loc 1 480 0
	lw	$2,$L29
	lw	$16,0($2)
	beqz	$16,$L23
$LVL36 = .
	.loc 1 488 0
	sh	$4,2($16)
	.loc 1 493 0
	move	$4,$24
$LVL37 = .
	.loc 1 489 0
	sw	$5,4($16)
	.loc 1 493 0
	sh	$4,14($16)
	.loc 1 494 0
	li	$4,1
	.loc 1 490 0
	sw	$7,8($16)
	.loc 1 491 0
	sb	$17,1($16)
	.loc 1 494 0
	sb	$4,0($16)
	.loc 1 492 0
	sh	$6,12($16)
	.loc 1 495 0
	lw	$4,28($16)
	lw	$5,32($16)
$LVL38 = .
	beqz	$4,$L24
	.loc 1 495 0 is_stmt 0 discriminator 1
	sw	$5,32($4)
	b	$L25
$L24:
	.loc 1 495 0 discriminator 2
	sw	$5,4($2)
$L25:
	.loc 1 495 0 discriminator 4
	lw	$5,32($16)
	.loc 1 496 0 is_stmt 1 discriminator 4
	lw	$3,16($sp)
	.loc 1 495 0 discriminator 4
	sw	$4,0($5)
	lw	$4,8($2)
	addiu	$4,-1
	sw	$4,8($2)
	.loc 1 496 0 discriminator 4
	lw	$4,$L30
	li	$2,0
	lw	$5,0($4)
	sw	$2,20($16)
	sll	$2,$3,2
	sll	$3,$3,4
	subu	$3,$3,$2
	lw	$2,0($5)
	addu	$2,$2,$3
	lw	$2,4($2)
	sw	$2,24($16)
	sw	$16,0($2)
	lw	$2,0($4)
	lw	$2,0($2)
	addu	$3,$2,$3
	addiu	$2,$16,7
	addiu	$2,13
	sw	$2,4($3)
	lw	$2,8($3)
	addiu	$2,1
	.loc 1 499 0 discriminator 4
	.set	noreorder
	.set	nomacro
	jal	rtl_getTimeStamp
	sw	$2,8($3)
	.set	macro
	.set	reorder

$LVL39 = .
	sw	$2,16($16)
	.loc 1 505 0 discriminator 4
	li	$2,1
	move	$25,$2
$LVL40 = .
$L23:
	.loc 1 506 0
	restore	40,$16,$17,$31
	.cfi_restore 16
	.cfi_restore 17
	.cfi_restore 31
	.cfi_def_cfa_offset 0
$LVL41 = .
	.set	noreorder
	.set	nomacro
	j	$31
	move	$2,$25
	.set	macro
	.set	reorder

	.align	2
$L28:
	.word	max_udp_frag_entry
$L29:
	.word	udp_cache_list_free
$L30:
	.word	udp_cache_table
	.end	add_fragEntry
	.cfi_endproc
$LFE78:
	.size	add_fragEntry, .-add_fragEntry
	.section	.text.find_fragEntry,"ax",@progbits
	.align	2
$LFB77 = .
	.loc 1 454 0
	.cfi_startproc
	.set	mips16
	.set	nomicromips
	.ent	find_fragEntry
	.type	find_fragEntry, @function
find_fragEntry:
	.frame	$sp,24,$31		# vars= 0, regs= 2/0, args= 16, gp= 0
	.mask	0x80010000,-4
	.fmask	0x00000000,0
$LVL42 = .
$LBB68 = .
$LBB69 = .
	.loc 1 350 0
	move	$3,$5
	xor	$3,$6
$LVL43 = .
	.loc 1 352 0
	srl	$2,$3,8
$LBE69 = .
$LBE68 = .
	.loc 1 454 0
	save	24,$16,$31
	.cfi_def_cfa_offset 24
	.cfi_offset 31, -4
	.cfi_offset 16, -8
$LBB73 = .
$LBB70 = .
	.loc 1 352 0
	srl	$2,$2,8
$LBE70 = .
$LBE73 = .
	.loc 1 458 0
	lw	$16,$L38
	xor	$3,$2
$LVL44 = .
$LBB74 = .
$LBB71 = .
	.loc 1 352 0
	xor	$3,$4
$LVL45 = .
	.loc 1 353 0
	srl	$2,$3,8
$LBE71 = .
$LBE74 = .
	.loc 1 458 0
	lw	$16,0($16)
	xor	$3,$7
$LVL46 = .
$LBB75 = .
$LBB72 = .
	.loc 1 353 0
	xor	$2,$3
$LVL47 = .
	.loc 1 354 0
	lw	$3,$L39
	lw	$3,0($3)
	addiu	$3,-1
	and	$2,$3
$LVL48 = .
$LBE72 = .
$LBE75 = .
	.loc 1 458 0
	lw	$3,0($16)
	sll	$16,$2,2
	sll	$2,$2,4
	subu	$2,$2,$16
	addu	$2,$3,$2
	lw	$16,0($2)
$LVL49 = .
$L32:
	.loc 1 458 0 is_stmt 0 discriminator 1
	beqz	$16,$L37
	.loc 1 460 0 is_stmt 1
	lhu	$2,2($16)
	cmp	$2,$4
	btnez	$L33
	.loc 1 460 0 is_stmt 0 discriminator 1
	lw	$2,4($16)
	cmp	$2,$5
	btnez	$L33
	.loc 1 461 0 is_stmt 1
	lw	$2,8($16)
	cmp	$2,$6
	btnez	$L33
	.loc 1 462 0
	lbu	$2,1($16)
	cmp	$2,$7
	btnez	$L33
	.loc 1 463 0
	lbu	$2,0($16)
	cmpi	$2,1
	btnez	$L33
	.loc 1 467 0
	jal	rtl_getTimeStamp
$LVL50 = .
	sw	$2,16($16)
	.loc 1 469 0
	move	$2,$16
	b	$L34
$LVL51 = .
$L33:
	.loc 1 458 0 discriminator 2
	lw	$16,20($16)
$LVL52 = .
	b	$L32
$L37:
	.loc 1 472 0
	li	$2,0
$LVL53 = .
$L34:
	.loc 1 473 0
	restore	24,$16,$31
	.cfi_restore 16
	.cfi_restore 31
	.cfi_def_cfa_offset 0
$LVL54 = .
	j	$31
	.align	2
$L38:
	.word	udp_cache_table
$L39:
	.word	max_udp_frag_entry
	.end	find_fragEntry
	.cfi_endproc
$LFE77:
	.size	find_fragEntry, .-find_fragEntry
	.section	.text.udp_fragCache_init,"ax",@progbits
	.align	2
	.globl	udp_fragCache_init
$LFB76 = .
	.loc 1 412 0
	.cfi_startproc
	.set	mips16
	.set	nomicromips
	.ent	udp_fragCache_init
	.type	udp_fragCache_init, @function
udp_fragCache_init:
	.frame	$sp,40,$31		# vars= 8, regs= 3/0, args= 16, gp= 0
	.mask	0x80030000,-4
	.fmask	0x00000000,0
$LVL55 = .
	save	40,$16,$17,$31
	.cfi_def_cfa_offset 40
	.cfi_offset 31, -4
	.cfi_offset 17, -8
	.cfi_offset 16, -12
	.loc 1 412 0
	move	$17,$4
	.loc 1 414 0
	li	$6,1
	li	$5,3
$LVL56 = .
	.set	noreorder
	.set	nomacro
	jal	cyg_net_malloc
	li	$4,4
	.set	macro
	.set	reorder

$LVL57 = .
	lw	$7,$L56
	move	$3,$2
	sw	$2,0($7)
	.loc 1 415 0
	bnez	$2,$L41
$L46:
	.loc 1 417 0
	li	$2,0
	b	$L42
$L41:
	.loc 1 419 0
	li	$2,0
	lw	$16,$L57
	.loc 1 422 0
	sll	$4,$17,4
	.loc 1 419 0
	sw	$2,8($16)
	.loc 1 422 0
	li	$6,1
	.loc 1 419 0
	sw	$2,0($16)
	.loc 1 421 0
	lw	$2,$L58
	.loc 1 422 0
	li	$5,3
	.loc 1 419 0
	sw	$16,4($16)
	.loc 1 421 0
	sw	$17,0($2)
	.loc 1 422 0
	sll	$2,$17,2
	sw	$3,20($sp)
	subu	$4,$4,$2
	.set	noreorder
	.set	nomacro
	jal	cyg_net_malloc
	sw	$7,16($sp)
	.set	macro
	.set	reorder

$LVL58 = .
	lw	$3,20($sp)
	.loc 1 423 0
	lw	$7,16($sp)
	.loc 1 422 0
	sw	$2,0($3)
	.loc 1 423 0
	li	$3,0
	lw	$2,0($7)
	lw	$2,0($2)
	beqz	$2,$L53
$L43:
$LVL59 = .
	.loc 1 427 0 discriminator 1
	slt	$3,$17
	bteqz	$L54
	.loc 1 428 0 discriminator 3
	li	$4,0
	sw	$2,4($2)
	.loc 1 427 0 discriminator 3
	addiu	$3,1
$LVL60 = .
	addiu	$2,12
	.loc 1 428 0 discriminator 3
	sw	$4,-4($2)
	sw	$4,-12($2)
	b	$L43
$L54:
	li	$3,0
$LVL61 = .
$L45:
	.loc 1 430 0 discriminator 1
	slt	$3,$17
	bteqz	$L55
$LBB76 = .
	.loc 1 431 0
	li	$6,1
	sw	$3,20($sp)
	li	$5,3
	.set	noreorder
	.set	nomacro
	jal	cyg_net_malloc
	li	$4,36
	.set	macro
	.set	reorder

$LVL62 = .
	.loc 1 432 0
	lw	$3,20($sp)
	beqz	$2,$L46
	.loc 1 443 0 discriminator 2
	li	$4,0
$LBE76 = .
	.loc 1 430 0 discriminator 2
	addiu	$3,1
$LVL63 = .
$LBB77 = .
	.loc 1 443 0 discriminator 2
	sw	$4,28($2)
	lw	$4,4($16)
	sw	$4,32($2)
	sw	$2,0($4)
	addiu	$2,28
$LVL64 = .
	sw	$2,4($16)
$LVL65 = .
	lw	$2,8($16)
$LVL66 = .
	addiu	$2,1
	sw	$2,8($16)
	b	$L45
$LVL67 = .
$L55:
$LBE77 = .
	.loc 1 447 0
	lw	$4,$L59
	jal	cyg_callout_init
$LVL68 = .
	.loc 1 448 0
	lw	$2,$L60
	li	$7,0
	lw	$6,$L61
	lw	$2,0($2)
	lw	$4,$L59
	sll	$5,$2,2
	.set	noreorder
	.set	nomacro
	jal	cyg_callout_reset
	addu	$5,$5,$2
	.set	macro
	.set	reorder

$LVL69 = .
	.loc 1 450 0
	li	$2,1
	b	$L42
$L53:
	.loc 1 425 0
	li	$2,1
	neg	$2,$2
$L42:
	.loc 1 451 0
	restore	40,$16,$17,$31
	.cfi_restore 16
	.cfi_restore 17
	.cfi_restore 31
	.cfi_def_cfa_offset 0
$LVL70 = .
	j	$31
	.align	2
$L56:
	.word	udp_cache_table
$L57:
	.word	udp_cache_list_free
$L58:
	.word	max_udp_frag_entry
$L59:
	.word	udp_frag_cache_timer
$L60:
	.word	cyg_hz
$L61:
	.word	cache_timeout
	.end	udp_fragCache_init
	.cfi_endproc
$LFE76:
	.size	udp_fragCache_init, .-udp_fragCache_init
	.section	.text.rtk_addArp,"ax",@progbits
	.align	2
	.globl	rtk_addArp
$LFB80 = .
	.loc 1 638 0
	.cfi_startproc
	.set	mips16
	.set	nomicromips
	.ent	rtk_addArp
	.type	rtk_addArp, @function
rtk_addArp:
	.frame	$sp,0,$31		# vars= 0, regs= 0/0, args= 0, gp= 0
	.mask	0x00000000,0
	.fmask	0x00000000,0
$LVL71 = .
	.loc 1 669 0
	.set	noreorder
	.set	nomacro
	j	$31
	li	$2,0
	.set	macro
	.set	reorder

	.end	rtk_addArp
	.cfi_endproc
$LFE80:
	.size	rtk_addArp, .-rtk_addArp
	.section	.text.rtk_modifyArp,"ax",@progbits
	.align	2
	.globl	rtk_modifyArp
$LFB81 = .
	.loc 1 675 0
	.cfi_startproc
	.set	mips16
	.set	nomicromips
	.ent	rtk_modifyArp
	.type	rtk_modifyArp, @function
rtk_modifyArp:
	.frame	$sp,0,$31		# vars= 0, regs= 0/0, args= 0, gp= 0
	.mask	0x00000000,0
	.fmask	0x00000000,0
$LVL72 = .
	.loc 1 691 0
	.set	noreorder
	.set	nomacro
	j	$31
	li	$2,0
	.set	macro
	.set	reorder

	.end	rtk_modifyArp
	.cfi_endproc
$LFE81:
	.size	rtk_modifyArp, .-rtk_modifyArp
	.section	.text.rtk_delArp,"ax",@progbits
	.align	2
	.globl	rtk_delArp
$LFB82 = .
	.loc 1 698 0
	.cfi_startproc
	.set	mips16
	.set	nomicromips
	.ent	rtk_delArp
	.type	rtk_delArp, @function
rtk_delArp:
	.frame	$sp,0,$31		# vars= 0, regs= 0/0, args= 0, gp= 0
	.mask	0x00000000,0
	.fmask	0x00000000,0
$LVL73 = .
	.loc 1 716 0
	li	$2,4
	.set	noreorder
	.set	nomacro
	j	$31
	neg	$2,$2
	.set	macro
	.set	reorder

	.end	rtk_delArp
	.cfi_endproc
$LFE82:
	.size	rtk_delArp, .-rtk_delArp
	.section	.text.rtk_addRoute,"ax",@progbits
	.align	2
	.globl	rtk_addRoute
$LFB83 = .
	.loc 1 724 0
	.cfi_startproc
	.set	mips16
	.set	nomicromips
	.ent	rtk_addRoute
	.type	rtk_addRoute, @function
rtk_addRoute:
	.frame	$sp,0,$31		# vars= 0, regs= 0/0, args= 0, gp= 0
	.mask	0x00000000,0
	.fmask	0x00000000,0
$LVL74 = .
	.loc 1 749 0
	.set	noreorder
	.set	nomacro
	j	$31
	li	$2,0
	.set	macro
	.set	reorder

	.end	rtk_addRoute
	.cfi_endproc
$LFE83:
	.size	rtk_addRoute, .-rtk_addRoute
	.section	.text.rtk_modifyRoute,"ax",@progbits
	.align	2
	.globl	rtk_modifyRoute
$LFB84 = .
	.loc 1 757 0
	.cfi_startproc
	.set	mips16
	.set	nomicromips
	.ent	rtk_modifyRoute
	.type	rtk_modifyRoute, @function
rtk_modifyRoute:
	.frame	$sp,0,$31		# vars= 0, regs= 0/0, args= 0, gp= 0
	.mask	0x00000000,0
	.fmask	0x00000000,0
$LVL75 = .
	.loc 1 780 0
	.set	noreorder
	.set	nomacro
	j	$31
	li	$2,0
	.set	macro
	.set	reorder

	.end	rtk_modifyRoute
	.cfi_endproc
$LFE84:
	.size	rtk_modifyRoute, .-rtk_modifyRoute
	.section	.text.rtk_delRoute,"ax",@progbits
	.align	2
	.globl	rtk_delRoute
$LFB85 = .
	.loc 1 784 0
	.cfi_startproc
	.set	mips16
	.set	nomicromips
	.ent	rtk_delRoute
	.type	rtk_delRoute, @function
rtk_delRoute:
	.frame	$sp,0,$31		# vars= 0, regs= 0/0, args= 0, gp= 0
	.mask	0x00000000,0
	.fmask	0x00000000,0
$LVL76 = .
	.loc 1 804 0
	li	$2,4
	.set	noreorder
	.set	nomacro
	j	$31
	neg	$2,$2
	.set	macro
	.set	reorder

	.end	rtk_delRoute
	.cfi_endproc
$LFE85:
	.size	rtk_delRoute, .-rtk_delRoute
	.section	.text.rtk_addSession,"ax",@progbits
	.align	2
	.globl	rtk_addSession
$LFB86 = .
	.loc 1 811 0
	.cfi_startproc
	.set	mips16
	.set	nomicromips
	.ent	rtk_addSession
	.type	rtk_addSession, @function
rtk_addSession:
	.frame	$sp,0,$31		# vars= 0, regs= 0/0, args= 0, gp= 0
	.mask	0x00000000,0
	.fmask	0x00000000,0
$LVL77 = .
	.loc 1 813 0
	.set	noreorder
	.set	nomacro
	j	$31
	li	$2,0
	.set	macro
	.set	reorder

	.end	rtk_addSession
	.cfi_endproc
$LFE86:
	.size	rtk_addSession, .-rtk_addSession
	.section	.text.rtk_delSession,"ax",@progbits
	.align	2
	.globl	rtk_delSession
$LFB87 = .
	.loc 1 817 0
	.cfi_startproc
	.set	mips16
	.set	nomicromips
	.ent	rtk_delSession
	.type	rtk_delSession, @function
rtk_delSession:
	.frame	$sp,0,$31		# vars= 0, regs= 0/0, args= 0, gp= 0
	.mask	0x00000000,0
	.fmask	0x00000000,0
$LVL78 = .
	.loc 1 819 0
	.set	noreorder
	.set	nomacro
	j	$31
	li	$2,0
	.set	macro
	.set	reorder

	.end	rtk_delSession
	.cfi_endproc
$LFE87:
	.size	rtk_delSession, .-rtk_delSession
	.section	.text.rtk_delNaptConnection,"ax",@progbits
	.align	2
	.globl	rtk_delNaptConnection
$LFB89 = .
	.loc 1 1304 0
	.cfi_startproc
	.set	mips16
	.set	nomicromips
	.ent	rtk_delNaptConnection
	.type	rtk_delNaptConnection, @function
rtk_delNaptConnection:
	.frame	$sp,72,$31		# vars= 32, regs= 3/0, args= 24, gp= 0
	.mask	0x80030000,-4
	.fmask	0x00000000,0
$LVL79 = .
	.loc 1 1324 0
	lw	$2,0($4)
	.loc 1 1304 0
	save	72,$16,$17,$31
	.cfi_def_cfa_offset 72
	.cfi_offset 31, -4
	.cfi_offset 17, -8
	.cfi_offset 16, -12
	.loc 1 1304 0
	move	$16,$4
	.loc 1 1325 0
	li	$17,6
	.loc 1 1324 0
	cmpi	$2,2
	bteqz	$L71
	.loc 1 1327 0
	li	$17,17
$L71:
$LVL80 = .
	.loc 1 1330 0
	jal	cyg_splimp
$LVL81 = .
	.loc 1 1335 0
	lw	$4,20($16)
$LVL82 = .
	.set	noreorder
	.set	nomacro
	jal	filter_delconnect
	sw	$2,40($sp)
	.set	macro
	.set	reorder

$LVL83 = .
	.loc 1 1358 0
	lw	$4,8($16)
	lw	$5,20($16)
	lw	$3,4($16)
	lw	$2,24($16)
	move	$6,$5
	sw	$4,24($sp)
	sw	$5,32($sp)
	move	$5,$4
	sw	$17,16($sp)
	move	$4,$3
	move	$7,$2
	sw	$3,48($sp)
	.set	noreorder
	.set	nomacro
	jal	FastPath_Hash_PATH_Entry
	sw	$2,36($sp)
	.set	macro
	.set	reorder

$LVL84 = .
	.loc 1 1359 0
	lw	$4,$L90
	sll	$6,$2,2
	lw	$3,48($sp)
	sll	$2,$2,4
$LVL85 = .
	lw	$5,0($4)
	subu	$6,$2,$6
	lw	$2,0($5)
	addu	$2,$2,$6
	lw	$5,0($2)
$LVL86 = .
$L72:
	.loc 1 1359 0 is_stmt 0 discriminator 1
	beqz	$5,$L78
	.loc 1 1363 0 is_stmt 1
	lw	$2,4($5)
	lw	$4,0($16)
	cmp	$2,$4
	btnez	$L73
	.loc 1 1363 0 is_stmt 0 discriminator 1
	lbu	$2,2($5)
	cmpi	$2,1
	btnez	$L73
	.loc 1 1364 0 is_stmt 1
	lw	$2,16($5)
	cmp	$2,$3
	btnez	$L73
	.loc 1 1365 0
	lw	$4,12($5)
	lw	$2,24($sp)
	cmp	$4,$2
	btnez	$L73
	.loc 1 1366 0
	lw	$4,24($5)
	lw	$2,12($16)
	cmp	$4,$2
	btnez	$L73
	.loc 1 1367 0
	lw	$4,28($5)
	lw	$2,16($16)
	cmp	$4,$2
	btnez	$L73
	.loc 1 1368 0
	lw	$4,20($5)
	lw	$2,32($sp)
	cmp	$4,$2
	btnez	$L73
	.loc 1 1369 0
	lw	$2,8($5)
	lw	$4,36($sp)
	xor	$2,$4
	bnez	$2,$L73
$LBB78 = .
	.loc 1 1379 0
	sb	$2,0($5)
	.loc 1 1394 0
	move	$4,$5
	sw	$5,52($sp)
	.set	noreorder
	.set	nomacro
	jal	rtk_delNaptQosRuleEntry
	sw	$6,48($sp)
	.set	macro
	.set	reorder

$LVL87 = .
	.loc 1 1397 0
	lw	$5,52($sp)
	lw	$6,48($sp)
	lw	$2,60($5)
	lw	$7,64($5)
	beqz	$2,$L74
	.loc 1 1397 0 is_stmt 0 discriminator 1
	sw	$7,64($2)
	b	$L75
$L74:
	.loc 1 1397 0 discriminator 2
	lw	$4,$L90
	lw	$4,0($4)
	lw	$4,0($4)
	addu	$4,$4,$6
	sw	$7,4($4)
$L75:
	.loc 1 1397 0 discriminator 4
	lw	$3,64($5)
	lw	$4,$L90
	sw	$2,0($3)
	lw	$4,0($4)
	lw	$2,0($4)
	.loc 1 1398 0 is_stmt 1 discriminator 4
	lw	$4,68($5)
	.loc 1 1397 0 discriminator 4
	addu	$6,$2,$6
	lw	$2,8($6)
	addiu	$2,-1
	sw	$2,8($6)
	lw	$2,$L91
	lw	$6,72($5)
	.loc 1 1398 0 discriminator 4
	beqz	$4,$L76
	.loc 1 1398 0 is_stmt 0 discriminator 1
	sw	$6,72($4)
	b	$L77
$L76:
	.loc 1 1398 0 discriminator 2
	sw	$6,4($2)
$L77:
	.loc 1 1398 0 discriminator 4
	lw	$3,72($5)
	sw	$4,0($3)
	lw	$4,8($2)
	addiu	$4,-1
	sw	$4,8($2)
	.loc 1 1399 0 is_stmt 1 discriminator 4
	li	$2,0
	sw	$2,68($5)
	lw	$2,$L92
	lw	$4,4($2)
	sw	$4,72($5)
	sw	$5,0($4)
	addiu	$5,68
	lw	$4,8($2)
	sw	$5,4($2)
	addiu	$4,1
	sw	$4,8($2)
	.loc 1 1400 0 discriminator 4
	b	$L78
$LVL88 = .
$L73:
$LBE78 = .
	.loc 1 1359 0 discriminator 2
	lw	$5,60($5)
$LVL89 = .
	b	$L72
$LVL90 = .
$L78:
	.loc 1 1405 0
	lw	$3,20($16)
	sw	$17,16($sp)
	sw	$3,24($sp)
	lw	$3,24($16)
	lw	$4,24($sp)
	sw	$3,32($sp)
	lw	$3,12($16)
	lw	$5,32($sp)
	sw	$3,36($sp)
	lw	$3,16($16)
	lw	$6,36($sp)
	move	$7,$3
	.set	noreorder
	.set	nomacro
	jal	FastPath_Hash_PATH_Entry
	sw	$3,28($sp)
	.set	macro
	.set	reorder

$LVL91 = .
	.loc 1 1406 0
	sll	$5,$2,2
	sll	$2,$2,4
$LVL92 = .
	subu	$5,$2,$5
	lw	$2,$L90
	lw	$2,0($2)
	lw	$2,0($2)
	addu	$2,$2,$5
	lw	$17,0($2)
$LVL93 = .
$L80:
	.loc 1 1406 0 is_stmt 0 discriminator 1
	beqz	$17,$L86
	.loc 1 1410 0 is_stmt 1
	lw	$4,4($17)
	lw	$2,0($16)
	cmp	$4,$2
	btnez	$L81
	.loc 1 1410 0 is_stmt 0 discriminator 1
	lbu	$2,2($17)
	cmpi	$2,2
	btnez	$L81
	.loc 1 1411 0 is_stmt 1
	lw	$3,20($17)
	lw	$4,36($sp)
	cmp	$3,$4
	btnez	$L81
	.loc 1 1412 0
	lw	$2,8($17)
	lw	$3,28($sp)
	cmp	$2,$3
	btnez	$L81
	.loc 1 1413 0
	lw	$4,24($17)
	lw	$3,24($sp)
	cmp	$4,$3
	btnez	$L81
	.loc 1 1414 0
	lw	$4,28($17)
	lw	$3,32($sp)
	cmp	$4,$3
	btnez	$L81
	.loc 1 1415 0
	lw	$4,32($17)
	lw	$2,4($16)
	cmp	$4,$2
	btnez	$L81
	.loc 1 1416 0
	lw	$2,36($17)
	lw	$3,8($16)
	xor	$2,$3
	bnez	$2,$L81
$LBB79 = .
	.loc 1 1425 0
	sb	$2,0($17)
	.loc 1 1442 0
	move	$4,$17
	.set	noreorder
	.set	nomacro
	jal	rtk_delNaptQosRuleEntry
	sw	$5,52($sp)
	.set	macro
	.set	reorder

$LVL94 = .
	.loc 1 1444 0
	lw	$2,60($17)
	lw	$4,64($17)
	lw	$5,52($sp)
	beqz	$2,$L82
	.loc 1 1444 0 is_stmt 0 discriminator 1
	sw	$4,64($2)
	b	$L83
$L82:
	.loc 1 1444 0 discriminator 2
	lw	$3,$L90
	lw	$3,0($3)
	lw	$3,0($3)
	addu	$3,$3,$5
	sw	$4,4($3)
$L83:
	.loc 1 1444 0 discriminator 4
	lw	$4,64($17)
	lw	$3,$L90
	sw	$2,0($4)
	lw	$2,0($3)
	.loc 1 1445 0 is_stmt 1 discriminator 4
	lw	$3,68($17)
	lw	$4,72($17)
	.loc 1 1444 0 discriminator 4
	lw	$2,0($2)
	addu	$5,$2,$5
	lw	$2,8($5)
	addiu	$2,-1
	sw	$2,8($5)
	lw	$2,$L91
	.loc 1 1445 0 discriminator 4
	beqz	$3,$L84
	.loc 1 1445 0 is_stmt 0 discriminator 1
	sw	$4,72($3)
	b	$L85
$L84:
	.loc 1 1445 0 discriminator 2
	sw	$4,4($2)
$L85:
	.loc 1 1445 0 discriminator 4
	lw	$4,72($17)
	sw	$3,0($4)
	lw	$3,8($2)
	addiu	$3,-1
	sw	$3,8($2)
	.loc 1 1446 0 is_stmt 1 discriminator 4
	li	$2,0
	sw	$2,68($17)
	lw	$2,$L92
	lw	$3,4($2)
	sw	$3,72($17)
	sw	$17,0($3)
	addiu	$17,68
$LVL95 = .
	lw	$3,8($2)
$LVL96 = .
	sw	$17,4($2)
	addiu	$3,1
	sw	$3,8($2)
	.loc 1 1447 0 discriminator 4
	b	$L86
$LVL97 = .
$L81:
$LBE79 = .
	.loc 1 1406 0 discriminator 2
	lw	$17,60($17)
$LVL98 = .
	b	$L80
$LVL99 = .
$L86:
	.loc 1 1450 0
	lw	$3,$L93
	.loc 1 1452 0
	lw	$4,40($sp)
	.loc 1 1450 0
	lw	$2,0($3)
	addiu	$2,-1
	.loc 1 1452 0
	.set	noreorder
	.set	nomacro
	jal	cyg_splx
	sw	$2,0($3)
	.set	macro
	.set	reorder

$LVL100 = .
	.loc 1 1467 0
	restore	72,$16,$17,$31
	.cfi_restore 16
	.cfi_restore 17
	.cfi_restore 31
	.cfi_def_cfa_offset 0
$LVL101 = .
	.set	noreorder
	.set	nomacro
	j	$31
	li	$2,0
	.set	macro
	.set	reorder

	.align	2
$L90:
	.word	table_path
$L91:
	.word	path_list_inuse
$L92:
	.word	path_list_free
$L93:
	.word	fast_path_entry_count
	.end	rtk_delNaptConnection
	.cfi_endproc
$LFE89:
	.size	rtk_delNaptConnection, .-rtk_delNaptConnection
	.section	.text.rtk_delNaptQosRule,"ax",@progbits
	.align	2
	.globl	rtk_delNaptQosRule
$LFB90 = .
	.loc 1 1495 0
	.cfi_startproc
	.set	mips16
	.set	nomicromips
	.ent	rtk_delNaptQosRule
	.type	rtk_delNaptQosRule, @function
rtk_delNaptQosRule:
	.frame	$sp,24,$31		# vars= 0, regs= 2/0, args= 16, gp= 0
	.mask	0x80010000,-4
	.fmask	0x00000000,0
	.loc 1 1498 0
	lw	$2,$L99
	.loc 1 1495 0
	save	24,$16,$31
	.cfi_def_cfa_offset 24
	.cfi_offset 31, -4
	.cfi_offset 16, -8
	.loc 1 1498 0
	lw	$16,0($2)
$LVL102 = .
$L95:
	.loc 1 1498 0 is_stmt 0 discriminator 1
	beqz	$16,$L98
$LBB80 = .
	.loc 1 1500 0 is_stmt 1 discriminator 3
	.set	noreorder
	.set	nomacro
	jal	rtk_delNaptQosRuleEntry
	move	$4,$16
	.set	macro
	.set	reorder

$LVL103 = .
$LBE80 = .
	.loc 1 1498 0 discriminator 3
	lw	$16,68($16)
$LVL104 = .
	b	$L95
$L98:
	.loc 1 1503 0
	restore	24,$16,$31
	.cfi_restore 16
	.cfi_restore 31
	.cfi_def_cfa_offset 0
$LVL105 = .
	.set	noreorder
	.set	nomacro
	j	$31
	li	$2,0
	.set	macro
	.set	reorder

	.align	2
$L99:
	.word	path_list_inuse
	.end	rtk_delNaptQosRule
	.cfi_endproc
$LFE90:
	.size	rtk_delNaptQosRule, .-rtk_delNaptQosRule
	.section	.text.rtk_idleNaptConnection,"ax",@progbits
	.align	2
	.globl	rtk_idleNaptConnection
$LFB91 = .
	.loc 1 1512 0
	.cfi_startproc
	.set	mips16
	.set	nomicromips
	.ent	rtk_idleNaptConnection
	.type	rtk_idleNaptConnection, @function
rtk_idleNaptConnection:
	.frame	$sp,72,$31		# vars= 32, regs= 3/0, args= 24, gp= 0
	.mask	0x80030000,-4
	.fmask	0x00000000,0
$LVL106 = .
	save	$4-$6,72,$16,$17,$31
	.cfi_def_cfa_offset 72
	.cfi_offset 31, -4
	.cfi_offset 17, -8
	.cfi_offset 16, -12
	.loc 1 1518 0
	.set	noreorder
	.set	nomacro
	jal	rtl_getTimeStamp
	move	$16,$4
	.set	macro
	.set	reorder

$LVL107 = .
	.loc 1 1522 0
	lw	$3,0($16)
	.loc 1 1518 0
	sw	$2,44($sp)
$LVL108 = .
	.loc 1 1522 0
	cmpi	$3,2
	sw	$3,32($sp)
	.loc 1 1523 0
	li	$3,6
	sw	$3,24($sp)
	.loc 1 1522 0
	bteqz	$L101
	.loc 1 1525 0
	li	$3,17
	sw	$3,24($sp)
$L101:
$LVL109 = .
	.loc 1 1528 0
	lw	$3,4($16)
	lw	$17,20($16)
	sw	$3,36($sp)
	move	$6,$17
	lw	$3,8($16)
	lw	$4,36($sp)
	sw	$3,40($sp)
	lw	$3,24($16)
	lw	$5,40($sp)
	sw	$3,28($sp)
	lw	$3,24($sp)
	lw	$7,28($sp)
	.set	noreorder
	.set	nomacro
	jal	FastPath_Hash_PATH_Entry
	sw	$3,16($sp)
	.set	macro
	.set	reorder

$LVL110 = .
	.loc 1 1529 0
	lw	$3,$L114
	lw	$3,0($3)
	lw	$3,0($3)
	sw	$3,48($sp)
	sll	$3,$2,2
	sll	$2,$2,4
$LVL111 = .
	subu	$2,$2,$3
	lw	$3,48($sp)
	addu	$2,$3,$2
	lw	$2,0($2)
$LVL112 = .
$L102:
	.loc 1 1529 0 is_stmt 0 discriminator 1
	beqz	$2,$L104
	.loc 1 1530 0 is_stmt 1
	lw	$4,4($2)
	lw	$3,32($sp)
	cmp	$4,$3
	btnez	$L103
	.loc 1 1531 0
	lw	$3,$L115
	lw	$4,0($2)
	and	$4,$3
	lw	$3,$L116
	cmp	$4,$3
	btnez	$L103
	.loc 1 1532 0
	lw	$4,16($2)
	lw	$3,36($sp)
	cmp	$4,$3
	btnez	$L103
	.loc 1 1533 0
	lw	$4,12($2)
	lw	$3,40($sp)
	cmp	$4,$3
	btnez	$L103
	.loc 1 1534 0
	lw	$4,24($2)
	lw	$5,12($16)
	cmp	$4,$5
	btnez	$L103
	.loc 1 1535 0
	lw	$3,28($2)
	lw	$4,16($16)
	cmp	$3,$4
	btnez	$L103
	.loc 1 1536 0
	lw	$5,20($2)
	cmp	$5,$17
	btnez	$L103
	.loc 1 1537 0
	lw	$3,8($2)
	lw	$4,28($sp)
	cmp	$3,$4
	btnez	$L103
	.loc 1 1539 0
	lw	$3,40($2)
$LVL113 = .
	.loc 1 1540 0
	lw	$5,76($sp)
	lw	$4,44($sp)
	addu	$2,$5,$3
$LVL114 = .
	sltu	$4,$2
	bteqz	$L104
	.loc 1 1546 0
	lw	$5,80($sp)
	sw	$3,0($5)
	b	$L113
$LVL115 = .
$L103:
	.loc 1 1529 0 discriminator 2
	lw	$2,60($2)
$LVL116 = .
	b	$L102
$LVL117 = .
$L104:
	.loc 1 1555 0
	lw	$2,24($sp)
	move	$4,$17
	lw	$3,12($16)
	lw	$16,16($16)
$LVL118 = .
	lw	$5,28($sp)
	move	$6,$3
	sw	$2,16($sp)
	move	$7,$16
	.set	noreorder
	.set	nomacro
	jal	FastPath_Hash_PATH_Entry
	sw	$3,52($sp)
	.set	macro
	.set	reorder

$LVL119 = .
	.loc 1 1556 0
	sll	$4,$2,2
	lw	$3,52($sp)
	sll	$2,$2,4
$LVL120 = .
	subu	$2,$2,$4
	lw	$4,48($sp)
	addu	$2,$4,$2
	lw	$2,0($2)
$LVL121 = .
	b	$L107
$L108:
	.loc 1 1556 0 is_stmt 0 discriminator 2
	lw	$2,60($2)
$LVL122 = .
$L107:
	.loc 1 1556 0 discriminator 1
	beqz	$2,$L105
	.loc 1 1557 0 is_stmt 1
	lw	$5,4($2)
	lw	$4,32($sp)
	cmp	$5,$4
	btnez	$L108
	.loc 1 1558 0
	lw	$4,$L115
	lw	$5,0($2)
	and	$5,$4
	lw	$4,$L117
	cmp	$5,$4
	btnez	$L108
	.loc 1 1559 0
	lw	$5,20($2)
	cmp	$5,$3
	btnez	$L108
	.loc 1 1560 0
	lw	$4,8($2)
	cmp	$4,$16
	btnez	$L108
	.loc 1 1561 0
	lw	$5,24($2)
	cmp	$5,$17
	btnez	$L108
	.loc 1 1562 0
	lw	$4,28($2)
	lw	$5,28($sp)
	cmp	$4,$5
	btnez	$L108
	.loc 1 1563 0
	lw	$4,32($2)
	lw	$5,36($sp)
	cmp	$4,$5
	btnez	$L108
	.loc 1 1564 0
	lw	$4,36($2)
	lw	$5,40($sp)
	cmp	$4,$5
	btnez	$L108
	.loc 1 1566 0
	lw	$3,40($2)
$LVL123 = .
	.loc 1 1567 0
	lw	$4,76($sp)
	lw	$5,44($sp)
	addu	$2,$4,$3
$LVL124 = .
	sltu	$5,$2
	.loc 1 1580 0
	li	$2,0
	.loc 1 1567 0
	bteqz	$L105
	.loc 1 1573 0
	lw	$2,80($sp)
	sw	$3,0($2)
$L113:
	.loc 1 1575 0
	li	$2,1
	neg	$2,$2
$LVL125 = .
$L105:
	.loc 1 1581 0
	restore	72,$16,$17,$31
	.cfi_restore 16
	.cfi_restore 17
	.cfi_restore 31
	.cfi_def_cfa_offset 0
$LVL126 = .
	j	$31
	.align	2
$L114:
	.word	table_path
$L115:
	.word	16711935
$L116:
	.word	65791
$L117:
	.word	131327
	.end	rtk_idleNaptConnection
	.cfi_endproc
$LFE91:
	.size	rtk_idleNaptConnection, .-rtk_idleNaptConnection
	.section	.text.rtl_getTcpExpireByState,"ax",@progbits
	.align	2
	.globl	rtl_getTcpExpireByState
$LFB92 = .
	.loc 1 1584 0
	.cfi_startproc
	.set	mips16
	.set	nomicromips
	.ent	rtl_getTcpExpireByState
	.type	rtl_getTcpExpireByState, @function
rtl_getTcpExpireByState:
	.frame	$sp,0,$31		# vars= 0, regs= 0/0, args= 0, gp= 0
	.mask	0x00000000,0
	.fmask	0x00000000,0
$LVL127 = .
	.loc 1 1587 0
	cmpi	$4,1
	btnez	$L119
	.loc 1 1587 0 is_stmt 0 discriminator 1
	cmpi	$5,1
	bteqz	$L130
	.loc 1 1590 0 is_stmt 1
	cmpi	$5,2
	.loc 1 1593 0
	li	$2,1
	b	$L129
$L119:
	.loc 1 1589 0
	cmpi	$4,2
	.loc 1 1593 0
	li	$2,1
	.loc 1 1589 0
	btnez	$L131
	.loc 1 1589 0 is_stmt 0 discriminator 1
	cmpi	$5,1
$L129:
	.loc 1 1590 0 is_stmt 1
	btnez	$L131
	.loc 1 1591 0
	.set	noreorder
	.set	nomacro
	j	$31
	li	$2,5
	.set	macro
	.set	reorder

$L130:
	.loc 1 1588 0
	li	$2,600
$LVL128 = .
$L131:
	.loc 1 1596 0
	j	$31
	.end	rtl_getTcpExpireByState
	.cfi_endproc
$LFE92:
	.size	rtl_getTcpExpireByState, .-rtl_getTcpExpireByState
	.section	.text.rtl_fpTimer_update,"ax",@progbits
	.align	2
	.globl	rtl_fpTimer_update
$LFB93 = .
	.loc 1 1603 0
	.cfi_startproc
	.set	mips16
	.set	nomicromips
	.ent	rtl_fpTimer_update
	.type	rtl_fpTimer_update, @function
rtl_fpTimer_update:
	.frame	$sp,64,$31		# vars= 32, regs= 3/0, args= 16, gp= 0
	.mask	0x80030000,-4
	.fmask	0x00000000,0
$LVL129 = .
	save	64,$16,$17,$31
	.cfi_def_cfa_offset 64
	.cfi_offset 31, -4
	.cfi_offset 17, -8
	.cfi_offset 16, -12
	.loc 1 1611 0
	.set	noreorder
	.set	nomacro
	jal	rtl_getTimeStamp
	move	$16,$4
	.set	macro
	.set	reorder

$LVL130 = .
	.loc 1 1613 0
	lw	$2,28($16)
	cmpi	$2,17
	bteqz	$L137
	.loc 1 1617 0
	cmpi	$2,6
	bteqz	$L134
$L136:
	.loc 1 1623 0
	li	$2,1
	neg	$2,$2
	b	$L135
$L134:
$LVL131 = .
	.loc 1 1619 0
	lw	$2,64($16)
	lw	$5,4($2)
	.set	noreorder
	.set	nomacro
	jal	rtl_getTcpExpireByState
	lw	$4,0($2)
	.set	macro
	.set	reorder

$LVL132 = .
	move	$17,$2
$LVL133 = .
	.loc 1 1618 0
	li	$2,2
$LVL134 = .
	b	$L133
$LVL135 = .
$L137:
	.loc 1 1614 0
	li	$2,1
	.loc 1 1615 0
	li	$17,15
$L133:
$LVL136 = .
	.loc 1 1629 0
	sw	$2,16($sp)
	.loc 1 1643 0
	addiu	$6,$sp,44
	.loc 1 1630 0
	lw	$2,0($16)
$LVL137 = .
	.loc 1 1643 0
	addiu	$4,$sp,16
$LVL138 = .
	move	$5,$17
	.loc 1 1630 0
	sw	$2,20($sp)
	.loc 1 1631 0
	lhu	$2,16($16)
	sw	$2,24($sp)
	.loc 1 1632 0
	lw	$2,8($16)
	sw	$2,28($sp)
	.loc 1 1633 0
	lhu	$2,20($16)
	sw	$2,32($sp)
	.loc 1 1634 0
	lw	$2,4($16)
	sw	$2,36($sp)
	.loc 1 1635 0
	lhu	$2,18($16)
	.loc 1 1643 0
	.set	noreorder
	.set	nomacro
	jal	rtk_idleNaptConnection
	sw	$2,40($sp)
	.set	macro
	.set	reorder

$LVL139 = .
	beqz	$2,$L136
	.loc 1 1646 0
	lw	$2,44($sp)
	.loc 1 1645 0
	sw	$17,40($16)
	.loc 1 1646 0
	sw	$2,36($16)
$LVL140 = .
	.loc 1 1656 0
	li	$2,0
$LVL141 = .
$L135:
	.loc 1 1661 0
	restore	64,$16,$17,$31
	.cfi_restore 16
	.cfi_restore 17
	.cfi_restore 31
	.cfi_def_cfa_offset 0
$LVL142 = .
	j	$31
	.end	rtl_fpTimer_update
	.cfi_endproc
$LFE93:
	.size	rtl_fpTimer_update, .-rtl_fpTimer_update
	.section	.text.FastPath_Route,"ax",@progbits
	.align	2
	.globl	FastPath_Route
$LFB94 = .
	.loc 1 1719 0
	.cfi_startproc
	.set	mips16
	.set	nomicromips
	.ent	FastPath_Route
	.type	FastPath_Route, @function
FastPath_Route:
	.frame	$sp,8,$31		# vars= 0, regs= 1/0, args= 0, gp= 0
	.mask	0x00010000,-4
	.fmask	0x00000000,0
$LVL143 = .
	.loc 1 1724 0
	lw	$2,$L148
	.loc 1 1721 0
	li	$6,0
	.loc 1 1719 0
	save	8,$16
	.cfi_def_cfa_offset 8
	.cfi_offset 16, -4
	.loc 1 1724 0
	lw	$3,0($2)
$LVL144 = .
	.loc 1 1720 0
	li	$2,0
$LVL145 = .
$L143:
	.loc 1 1724 0 discriminator 1
	beqz	$3,$L147
	.loc 1 1725 0
	lw	$5,8($3)
	sltu	$5,$6
	btnez	$L144
	.loc 1 1725 0 is_stmt 0 discriminator 1
	lw	$16,4($3)
	move	$7,$4
	and	$7,$5
	cmp	$7,$16
	btnez	$L144
	.loc 1 1726 0 is_stmt 1
	addiu	$2,$3,7
$LVL146 = .
	move	$6,$5
$LVL147 = .
	addiu	$2,9
$LVL148 = .
$L144:
	.loc 1 1724 0 discriminator 2
	lw	$3,44($3)
$LVL149 = .
	b	$L143
$L147:
	.loc 1 1732 0
	restore	8,$16
	.cfi_restore 16
	.cfi_def_cfa_offset 0
	j	$31
	.align	2
$L148:
	.word	route_list_inuse
	.end	FastPath_Route
	.cfi_endproc
$LFE94:
	.size	FastPath_Route, .-FastPath_Route
	.section	.text.rtk_addNaptConnection,"ax",@progbits
	.align	2
	.globl	rtk_addNaptConnection
$LFB88 = .
	.loc 1 827 0
	.cfi_startproc
	.set	mips16
	.set	nomicromips
	.ent	rtk_addNaptConnection
	.type	rtk_addNaptConnection, @function
rtk_addNaptConnection:
	.frame	$sp,88,$31		# vars= 48, regs= 3/0, args= 24, gp= 0
	.mask	0x80030000,-4
	.fmask	0x00000000,0
$LVL150 = .
	.loc 1 862 0
	lw	$2,0($4)
	.loc 1 863 0
	li	$3,6
	.loc 1 827 0
	save	88,$16,$17,$31
	.cfi_def_cfa_offset 88
	.cfi_offset 31, -4
	.cfi_offset 17, -8
	.cfi_offset 16, -12
	.loc 1 827 0
	move	$16,$4
	.loc 1 862 0
	cmpi	$2,2
	.loc 1 863 0
	sw	$3,28($sp)
	.loc 1 862 0
	bteqz	$L150
	.loc 1 865 0
	li	$3,17
	sw	$3,28($sp)
$L150:
$LVL151 = .
	.loc 1 872 0
	.set	noreorder
	.set	nomacro
	jal	filter_addconnect
	lw	$4,20($16)
	.set	macro
	.set	reorder

$LVL152 = .
	.loc 1 922 0
	jal	cyg_splimp
$LVL153 = .
	.loc 1 961 0
	lw	$3,4($16)
	lw	$4,28($sp)
	lw	$17,24($16)
	.loc 1 922 0
	sw	$2,44($sp)
$LVL154 = .
	.loc 1 961 0
	sw	$3,24($sp)
	lw	$3,8($16)
	move	$7,$17
	sw	$3,36($sp)
	lw	$3,20($16)
	lw	$5,36($sp)
	sw	$4,16($sp)
	lw	$4,24($sp)
	move	$6,$3
	.set	noreorder
	.set	nomacro
	jal	FastPath_Hash_PATH_Entry
	sw	$3,56($sp)
	.set	macro
	.set	reorder

$LVL155 = .
$LBB81 = .
	.loc 1 966 0
	sll	$7,$2,2
	lw	$3,56($sp)
	sll	$2,$2,4
$LVL156 = .
	subu	$2,$2,$7
	sw	$2,40($sp)
	lw	$2,$L182
	lw	$4,40($sp)
	lw	$2,0($2)
	lw	$2,0($2)
	addu	$2,$2,$4
	lw	$6,0($2)
$LVL157 = .
$L151:
	.loc 1 966 0 is_stmt 0 discriminator 1
	beqz	$6,$L180
	.loc 1 967 0 is_stmt 1
	lw	$2,4($6)
	lw	$4,0($16)
	cmp	$2,$4
	btnez	$L152
	.loc 1 967 0 is_stmt 0 discriminator 1
	lbu	$2,0($6)
	cmpi	$2,255
	btnez	$L152
	.loc 1 967 0 discriminator 2
	lw	$2,16($6)
	lw	$4,24($sp)
	cmp	$2,$4
	btnez	$L152
	.loc 1 968 0 is_stmt 1
	lw	$2,12($6)
	lw	$4,36($sp)
	cmp	$2,$4
	btnez	$L152
	.loc 1 968 0 is_stmt 0 discriminator 1
	lw	$2,20($6)
	cmp	$2,$3
	btnez	$L152
	.loc 1 969 0 is_stmt 1
	lw	$4,8($6)
	cmp	$4,$17
	btnez	$L152
	.loc 1 969 0 is_stmt 0 discriminator 1
	lw	$2,24($6)
	lw	$4,12($16)
	cmp	$2,$4
	btnez	$L152
	.loc 1 970 0 is_stmt 1
	lw	$2,28($6)
	lw	$4,16($16)
	cmp	$2,$4
	bteqz	$L179
$L152:
	.loc 1 966 0 discriminator 2
	lw	$6,60($6)
$LVL158 = .
	b	$L151
$L180:
$LBE81 = .
	.loc 1 978 0
	lw	$2,$L183
	lw	$5,0($2)
	beqz	$5,$L155
$LVL159 = .
	.loc 1 982 0
	lw	$2,0($16)
	.loc 1 983 0
	lw	$4,24($sp)
	.loc 1 988 0
	lw	$7,16($16)
	.loc 1 985 0
	sw	$3,20($5)
	.loc 1 982 0
	sw	$2,4($5)
	.loc 1 983 0
	sw	$4,16($5)
	.loc 1 986 0
	sw	$17,8($5)
	.loc 1 987 0
	lw	$4,12($16)
	.loc 1 984 0
	lw	$2,36($sp)
	.loc 1 988 0
	sw	$7,28($5)
	.loc 1 989 0
	sw	$3,32($5)
	.loc 1 987 0
	sw	$4,24($5)
	.loc 1 984 0
	sw	$2,12($5)
	.loc 1 990 0
	sw	$17,36($5)
	.loc 1 987 0
	sw	$4,32($sp)
	.loc 1 992 0
	move	$4,$3
	sw	$5,68($sp)
	sw	$6,64($sp)
	.set	noreorder
	.set	nomacro
	jal	FastPath_Route
	sw	$7,60($sp)
	.set	macro
	.set	reorder

$LVL160 = .
	.loc 1 997 0
	li	$4,1
	.loc 1 992 0
	lw	$5,68($sp)
	.loc 1 997 0
	neg	$4,$4
	.loc 1 1000 0
	lw	$3,24($sp)
	.loc 1 992 0
	sw	$2,44($5)
	.loc 1 996 0
	li	$2,1
	.loc 1 997 0
	sb	$4,0($5)
	.loc 1 1000 0
	lw	$4,32($sp)
	.loc 1 996 0
	sb	$2,2($5)
	.loc 1 1000 0
	lw	$6,64($sp)
	xor	$3,$4
	lw	$7,60($sp)
	bnez	$3,$L156
	.loc 1 999 0
	sb	$6,1($5)
	b	$L157
$L156:
	.loc 1 1001 0
	sb	$2,1($5)
$L157:
	.loc 1 1003 0
	lw	$3,36($sp)
	cmp	$3,$7
	bteqz	$L158
	.loc 1 1004 0
	lbu	$3,1($5)
	li	$2,2
	or	$2,$3
	sb	$2,1($5)
$L158:
	.loc 1 1103 0
	.set	noreorder
	.set	nomacro
	jal	rtl_getTimeStamp
	sw	$5,68($sp)
	.set	macro
	.set	reorder

$LVL161 = .
	lw	$5,68($sp)
	sw	$2,40($5)
	.loc 1 1107 0
	lw	$2,68($5)
	lw	$3,72($5)
	beqz	$2,$L159
	.loc 1 1107 0 is_stmt 0 discriminator 1
	sw	$3,72($2)
	b	$L160
$L159:
	.loc 1 1107 0 discriminator 2
	lw	$4,$L183
	sw	$3,4($4)
$L160:
	.loc 1 1107 0 discriminator 4
	lw	$4,72($5)
	lw	$3,$L183
	sw	$2,0($4)
	lw	$2,$L183
	.loc 1 1108 0 is_stmt 1 discriminator 4
	li	$4,0
	.loc 1 1107 0 discriminator 4
	lw	$2,8($2)
	.loc 1 1108 0 discriminator 4
	sw	$4,68($5)
	.loc 1 1107 0 discriminator 4
	sw	$2,48($sp)
	addiu	$2,-1
	sw	$2,8($3)
	.loc 1 1108 0 discriminator 4
	lw	$2,$L184
	lw	$3,4($2)
	sw	$3,72($5)
	sw	$5,0($3)
	addiu	$3,$5,7
	.loc 1 1109 0 discriminator 4
	sw	$4,60($5)
	.loc 1 1108 0 discriminator 4
	addiu	$3,61
	sw	$3,4($2)
	lw	$3,8($2)
	addiu	$3,1
	sw	$3,8($2)
	.loc 1 1109 0 discriminator 4
	lw	$3,$L182
	lw	$4,0($3)
	lw	$2,0($4)
	lw	$4,40($sp)
	addu	$2,$2,$4
	lw	$2,4($2)
	sw	$2,64($5)
	sw	$5,0($2)
	addiu	$5,60
	lw	$2,0($3)
	lw	$2,0($2)
	addu	$7,$2,$4
	sw	$5,4($7)
	lw	$2,8($7)
	addiu	$2,1
	sw	$2,8($7)
$L155:
	.loc 1 1114 0
	lw	$2,12($16)
	lw	$4,16($16)
	lw	$3,20($16)
	lw	$17,24($16)
	sw	$2,24($sp)
	move	$7,$4
	sw	$4,36($sp)
	move	$4,$3
	lw	$2,28($sp)
	move	$5,$17
	lw	$6,24($sp)
	sw	$3,56($sp)
	.set	noreorder
	.set	nomacro
	jal	FastPath_Hash_PATH_Entry
	sw	$2,16($sp)
	.set	macro
	.set	reorder

$LVL162 = .
$LBB82 = .
	.loc 1 1119 0
	sll	$7,$2,2
	lw	$3,56($sp)
	sll	$2,$2,4
$LVL163 = .
	subu	$7,$2,$7
	lw	$2,$L182
	lw	$2,0($2)
	lw	$2,0($2)
	addu	$2,$2,$7
	lw	$6,0($2)
$LVL164 = .
	b	$L161
$L162:
	.loc 1 1119 0 is_stmt 0 discriminator 2
	lw	$6,60($6)
$LVL165 = .
$L161:
	.loc 1 1119 0 discriminator 1
	beqz	$6,$L181
	.loc 1 1120 0 is_stmt 1
	lw	$4,4($6)
	lw	$2,0($16)
	cmp	$4,$2
	btnez	$L162
	.loc 1 1120 0 is_stmt 0 discriminator 1
	lbu	$2,0($6)
	cmpi	$2,255
	btnez	$L162
	.loc 1 1120 0 discriminator 2
	lw	$4,32($6)
	lw	$2,4($16)
	cmp	$4,$2
	btnez	$L162
	.loc 1 1121 0 is_stmt 1
	lw	$4,36($6)
	lw	$2,8($16)
	cmp	$4,$2
	btnez	$L162
	.loc 1 1121 0 is_stmt 0 discriminator 1
	lw	$4,20($6)
	lw	$2,24($sp)
	cmp	$4,$2
	btnez	$L162
	.loc 1 1122 0 is_stmt 1
	lw	$4,8($6)
	lw	$2,36($sp)
	cmp	$4,$2
	btnez	$L162
	.loc 1 1122 0 is_stmt 0 discriminator 1
	lw	$4,24($6)
	cmp	$4,$3
	btnez	$L162
	.loc 1 1123 0 is_stmt 1
	lw	$2,28($6)
	cmp	$2,$17
	btnez	$L162
$LVL166 = .
$L179:
	.loc 1 1124 0
	.set	noreorder
	.set	nomacro
	jal	rtl_getTimeStamp
	sw	$6,64($sp)
	.set	macro
	.set	reorder

$LVL167 = .
	lw	$6,64($sp)
	sw	$2,40($6)
	b	$L178
$LVL168 = .
$L181:
$LBE82 = .
	.loc 1 1132 0
	lw	$2,$L183
	lw	$5,0($2)
	beqz	$5,$L164
$LVL169 = .
	.loc 1 1134 0
	lw	$4,0($16)
	.loc 1 1137 0
	lw	$2,24($sp)
	.loc 1 1135 0
	sw	$3,16($5)
	.loc 1 1136 0
	sw	$17,12($5)
	.loc 1 1134 0
	sw	$4,4($5)
	.loc 1 1139 0
	sw	$3,24($5)
	.loc 1 1140 0
	sw	$17,28($5)
	.loc 1 1137 0
	sw	$2,20($5)
	.loc 1 1141 0
	lw	$17,4($16)
	.loc 1 1142 0
	lw	$3,8($16)
	.loc 1 1138 0
	lw	$4,36($sp)
	.loc 1 1141 0
	sw	$17,32($5)
	.loc 1 1142 0
	sw	$3,36($5)
	.loc 1 1138 0
	sw	$4,8($5)
	.loc 1 1144 0
	move	$4,$17
	sw	$3,56($sp)
	sw	$5,68($sp)
	sw	$6,64($sp)
	.set	noreorder
	.set	nomacro
	jal	FastPath_Route
	sw	$7,60($sp)
	.set	macro
	.set	reorder

$LVL170 = .
	lw	$5,68($sp)
	.loc 1 1152 0
	lw	$16,24($sp)
$LVL171 = .
	.loc 1 1144 0
	sw	$2,44($5)
	.loc 1 1148 0
	li	$2,2
	.loc 1 1152 0
	xor	$16,$17
	.loc 1 1148 0
	sb	$2,2($5)
	.loc 1 1149 0
	li	$2,1
	neg	$2,$2
	sb	$2,0($5)
	.loc 1 1152 0
	lw	$3,56($sp)
	lw	$6,64($sp)
	lw	$7,60($sp)
	bnez	$16,$L165
	.loc 1 1151 0
	sb	$6,1($5)
	b	$L166
$L165:
	.loc 1 1153 0
	li	$2,4
	sb	$2,1($5)
$L166:
	.loc 1 1155 0
	lw	$2,36($sp)
	xor	$3,$2
	beqz	$3,$L167
	.loc 1 1156 0
	lbu	$3,1($5)
	li	$2,8
	or	$2,$3
	sb	$2,1($5)
$L167:
	.loc 1 1245 0
	sw	$5,68($sp)
	.set	noreorder
	.set	nomacro
	jal	rtl_getTimeStamp
	sw	$7,60($sp)
	.set	macro
	.set	reorder

$LVL172 = .
	lw	$5,68($sp)
	.loc 1 1250 0
	lw	$7,60($sp)
	.loc 1 1245 0
	sw	$2,40($5)
	.loc 1 1250 0
	lw	$2,68($5)
	lw	$3,72($5)
	beqz	$2,$L168
	.loc 1 1250 0 is_stmt 0 discriminator 1
	sw	$3,72($2)
	b	$L169
$L168:
	.loc 1 1250 0 discriminator 2
	lw	$4,$L183
	sw	$3,4($4)
$L169:
	.loc 1 1250 0 discriminator 4
	lw	$4,$L183
	lw	$3,72($5)
	lw	$4,8($4)
	sw	$2,0($3)
	lw	$3,$L183
	move	$2,$4
	addiu	$2,-1
	.loc 1 1251 0 is_stmt 1 discriminator 4
	li	$4,0
	.loc 1 1250 0 discriminator 4
	sw	$2,8($3)
	.loc 1 1251 0 discriminator 4
	lw	$2,$L184
	sw	$4,68($5)
	lw	$3,4($2)
	sw	$3,72($5)
	sw	$5,0($3)
	addiu	$3,$5,7
	.loc 1 1252 0 discriminator 4
	sw	$4,60($5)
	.loc 1 1251 0 discriminator 4
	addiu	$3,61
	sw	$3,4($2)
	lw	$3,8($2)
	addiu	$3,1
	sw	$3,8($2)
	.loc 1 1252 0 discriminator 4
	lw	$3,$L182
	lw	$4,0($3)
	lw	$2,0($4)
	addu	$2,$2,$7
	lw	$2,4($2)
	sw	$2,64($5)
	sw	$5,0($2)
	addiu	$5,60
	lw	$2,0($3)
	lw	$2,0($2)
	addu	$7,$2,$7
	sw	$5,4($7)
	lw	$2,8($7)
	addiu	$2,1
	sw	$2,8($7)
$L164:
	.loc 1 1289 0
	lw	$3,$L185
	lw	$2,0($3)
	addiu	$2,1
	sw	$2,0($3)
$L178:
	.loc 1 1291 0
	.set	noreorder
	.set	nomacro
	jal	cyg_splx
	lw	$4,44($sp)
	.set	macro
	.set	reorder

$LVL173 = .
	.loc 1 1300 0
	restore	88,$16,$17,$31
	.cfi_restore 16
	.cfi_restore 17
	.cfi_restore 31
	.cfi_def_cfa_offset 0
$LVL174 = .
	.set	noreorder
	.set	nomacro
	j	$31
	li	$2,0
	.set	macro
	.set	reorder

	.align	2
$L182:
	.word	table_path
$L183:
	.word	path_list_free
$L184:
	.word	path_list_inuse
$L185:
	.word	fast_path_entry_count
	.end	rtk_addNaptConnection
	.cfi_endproc
$LFE88:
	.size	rtk_addNaptConnection, .-rtk_addNaptConnection
	.section	.text.skb_can_forward,"ax",@progbits
	.align	2
	.globl	skb_can_forward
$LFB95 = .
	.loc 1 1842 0
	.cfi_startproc
	.set	mips16
	.set	nomicromips
	.ent	skb_can_forward
	.type	skb_can_forward, @function
skb_can_forward:
	.frame	$sp,40,$31		# vars= 8, regs= 2/0, args= 24, gp= 0
	.mask	0x80010000,-4
	.fmask	0x00000000,0
$LVL175 = .
	.loc 1 1847 0
	li	$2,0
	.loc 1 1846 0
	beqz	$4,$L199
	.loc 1 1846 0 is_stmt 0 discriminator 1
	beqz	$5,$L199
	.loc 1 1848 0 is_stmt 1
	lbu	$2,72($4)
	cmpi	$2,23
	.loc 1 1849 0
	li	$2,1
	.loc 1 1848 0
	bteqz	$L199
	.loc 1 1850 0
	lbu	$2,1($6)
	cmpi	$2,2
	.loc 1 1849 0
	li	$2,1
	.loc 1 1850 0
	btnez	$L199
	.loc 1 1842 0
	save	40,$16,$31
	.cfi_def_cfa_offset 40
	.cfi_offset 31, -4
	.cfi_offset 16, -8
	move	$5,$7
$LVL176 = .
$LBB89 = .
$LBB90 = .
$LBB91 = .
	.loc 1 1851 0
	sw	$7,16($sp)
	addiu	$7,$sp,24
$LVL177 = .
	.set	noreorder
	.set	nomacro
	jal	arpget
	move	$16,$4
	.set	macro
	.set	reorder

$LVL178 = .
	beqz	$2,$L187
	.loc 1 1855 0
	lw	$3,48($16)
$LBE91 = .
	.loc 1 1870 0
	li	$2,1
$LBB93 = .
	.loc 1 1855 0
	beqz	$3,$L187
$LBB92 = .
	.loc 1 1861 0
	.set	noreorder
	.set	nomacro
	jal	getDevByMac
	addiu	$4,$sp,24
	.set	macro
	.set	reorder

$LVL179 = .
	.loc 1 1862 0
	li	$3,1
	sltu	$2,1
	move	$2,$24
$LVL180 = .
	xor	$2,$3
$L187:
$LBE92 = .
$LBE93 = .
$LBE90 = .
$LBE89 = .
	.loc 1 1871 0
	restore	40,$16,$31
	.cfi_restore 16
	.cfi_restore 31
	.cfi_def_cfa_offset 0
$LVL181 = .
$LVL182 = .
$L199:
	j	$31
	.end	skb_can_forward
	.cfi_endproc
$LFE95:
	.size	skb_can_forward, .-skb_can_forward
	.section	.rodata.str1.4,"aMS",@progbits,1
	.align	2
$LC33:
	.ascii	"lo\000"
	.section	.text.enter_fast_path_skb,"ax",@progbits
	.align	2
	.globl	enter_fast_path_skb
$LFB96 = .
	.loc 1 1873 0
	.cfi_startproc
	.set	mips16
	.set	nomicromips
	.ent	enter_fast_path_skb
	.type	enter_fast_path_skb, @function
enter_fast_path_skb:
	.frame	$sp,128,$31		# vars= 88, regs= 3/0, args= 24, gp= 0
	.mask	0x80030000,-4
	.fmask	0x00000000,0
$LVL183 = .
	save	128,$16,$17,$31
	.cfi_def_cfa_offset 128
	.cfi_offset 31, -4
	.cfi_offset 17, -8
	.cfi_offset 16, -12
	.loc 1 1916 0
	lw	$16,16($5)
$LVL184 = .
	.loc 1 1918 0
	lbu	$2,8($16)
	sltu	$2,2
	btnez	$L218
	.loc 1 1922 0
	lbu	$3,9($16)
	.loc 1 1925 0
	cmpi	$3,6
	.loc 1 1922 0
	sw	$3,28($sp)
$LVL185 = .
	.loc 1 1925 0
	bteqz	$L203
	.loc 1 1925 0 is_stmt 0 discriminator 1
	cmpi	$3,17
	btnez	$L218
$L203:
	.loc 1 1935 0 is_stmt 1
	lbu	$3,0($16)
$LVL186 = .
	li	$2,15
	and	$2,$3
	sll	$2,$2,2
	addu	$2,$16,$2
	sw	$2,24($sp)
$LVL187 = .
$LBB94 = .
	.loc 1 1962 0
	lbu	$2,7($16)
$LVL188 = .
	lbu	$3,6($16)
$LBE94 = .
	.loc 1 1963 0
	lbu	$4,12($16)
$LVL189 = .
$LBB95 = .
	.loc 1 1962 0
	sll	$2,$2,8
	or	$2,$3
$LVL190 = .
	sll	$17,$2,8
	srl	$2,$2,8
$LVL191 = .
	or	$17,$2
$LBE95 = .
	.loc 1 1963 0
	lbu	$2,13($16)
$LBB96 = .
	.loc 1 1962 0
	zeh	$17
$LVL192 = .
$LBE96 = .
	.loc 1 1963 0
	sll	$2,$2,8
	move	$3,$2
$LVL193 = .
	lbu	$2,14($16)
	or	$3,$4
	sll	$2,$2,8
	sll	$2,$2,8
	or	$2,$3
	lbu	$3,15($16)
	sll	$3,$3,24
	or	$3,$2
	sw	$3,40($sp)
$LVL194 = .
	.loc 1 1964 0
	lbu	$2,17($16)
	lbu	$4,16($16)
	sll	$2,$2,8
	move	$3,$2
$LVL195 = .
	lbu	$2,18($16)
	or	$3,$4
	.loc 1 1965 0
	lw	$4,24($sp)
	.loc 1 1964 0
	sll	$2,$2,8
	sll	$2,$2,8
	or	$2,$3
	lbu	$3,19($16)
	sll	$3,$3,24
	or	$3,$2
	.loc 1 1965 0
	lbu	$2,1($4)
	.loc 1 1964 0
	sw	$3,44($sp)
$LVL196 = .
	.loc 1 1965 0
	lbu	$3,0($4)
$LVL197 = .
	sll	$2,$2,8
	or	$2,$3
	sw	$2,64($sp)
$LVL198 = .
	.loc 1 1966 0
	lbu	$2,3($4)
$LVL199 = .
	lbu	$3,2($4)
	sll	$2,$2,8
	or	$2,$3
	.loc 1 1969 0
	lw	$3,28($sp)
	.loc 1 1966 0
	sw	$2,68($sp)
$LVL200 = .
	li	$2,16383
$LVL201 = .
	.loc 1 1969 0
	cmpi	$3,6
	move	$3,$24
	bnez	$3,$L205
	.loc 1 1977 0
	move	$3,$17
	and	$3,$2
	beqz	$3,$L206
	.loc 1 1978 0
	cmpi	$17,8192
	bteqz	$L206
$LVL202 = .
$L205:
	.loc 1 2027 0
	and	$2,$17
	sw	$5,76($sp)
$LVL203 = .
	beqz	$2,$L284
	.loc 1 2032 0
	cmpi	$17,8192
	bteqz	$L285
	.loc 1 2034 0
	li	$2,8192
	and	$2,$17
	bnez	$2,$L286
	.loc 1 2034 0 is_stmt 0 discriminator 1
	li	$2,8191
	.loc 1 1894 0 is_stmt 1 discriminator 1
	li	$3,0
	.loc 1 2034 0 discriminator 1
	and	$2,$17
	neg	$2,$2
	srl	$2,$2,31
	sw	$2,72($sp)
	b	$L399
$L285:
	.loc 1 1894 0
	li	$3,0
	sw	$3,72($sp)
	.loc 1 2033 0
	li	$3,1
	b	$L399
$L286:
	.loc 1 1894 0
	li	$3,0
	sw	$3,72($sp)
$L399:
	.loc 1 2037 0
	lw	$7,28($sp)
	lw	$6,44($sp)
$LVL204 = .
	lw	$5,40($sp)
$LVL205 = .
	.loc 1 1894 0
	sw	$3,52($sp)
$LVL206 = .
	.loc 1 2037 0
	lbu	$2,5($16)
	lbu	$4,4($16)
	sll	$2,$2,8
	.set	noreorder
	.set	nomacro
	jal	find_fragEntry
	or	$4,$2
	.set	macro
	.set	reorder

$LVL207 = .
	sw	$2,60($sp)
$LVL208 = .
	.loc 1 2038 0
	beqz	$2,$L209
	.loc 1 2040 0
	lhu	$3,12($2)
	sw	$3,64($sp)
$LVL209 = .
	.loc 1 2041 0
	lhu	$3,14($2)
$LVL210 = .
	sw	$3,68($sp)
$LVL211 = .
	.loc 1 2043 0
	li	$3,0
$LVL212 = .
	sw	$3,48($sp)
	.loc 1 2042 0
	lw	$3,52($sp)
	beqz	$3,$L207
	b	$L421
$L209:
	.loc 1 2047 0
	lw	$3,52($sp)
	beqz	$3,$L218
$L421:
	li	$3,1
	sw	$3,52($sp)
$LVL213 = .
	b	$L400
$LVL214 = .
$L284:
	.loc 1 1896 0
	li	$3,0
	sw	$3,60($sp)
	.loc 1 1894 0
	sw	$3,72($sp)
	sw	$3,52($sp)
	.loc 1 1886 0
	li	$3,1
$LVL215 = .
$L400:
	sw	$3,48($sp)
$L207:
$LVL216 = .
	.loc 1 2057 0
	lw	$3,28($sp)
	lw	$4,40($sp)
	lw	$7,68($sp)
	lw	$6,44($sp)
	lw	$5,64($sp)
	.set	noreorder
	.set	nomacro
	jal	FastPath_Hash_PATH_Entry
	sw	$3,16($sp)
	.set	macro
	.set	reorder

$LVL217 = .
	.loc 1 2058 0
	lw	$3,$L428
	sll	$4,$2,2
	sll	$2,$2,4
$LVL218 = .
	lw	$3,0($3)
	subu	$2,$2,$4
	lw	$3,0($3)
	addu	$2,$3,$2
	lw	$3,0($2)
$LVL219 = .
	b	$L210
$L211:
	.loc 1 2058 0 is_stmt 0 discriminator 2
	lw	$3,60($3)
$LVL220 = .
$L210:
	.loc 1 2058 0 discriminator 1
	beqz	$3,$L218
	.loc 1 2060 0 is_stmt 1
	lw	$4,12($3)
	lw	$5,64($sp)
	cmp	$4,$5
	btnez	$L211
	.loc 1 2061 0
	lw	$6,8($3)
	lw	$7,68($sp)
	cmp	$6,$7
	btnez	$L211
	.loc 1 2062 0
	lw	$2,16($3)
	lw	$4,40($sp)
	cmp	$2,$4
	btnez	$L211
	.loc 1 2063 0
	lw	$5,20($3)
	lw	$6,44($sp)
	cmp	$5,$6
	btnez	$L211
	.loc 1 2064 0
	lbu	$2,0($3)
	cmpi	$2,255
	btnez	$L211
	.loc 1 2066 0
	lw	$2,4($3)
	.loc 1 2065 0
	cmpi	$2,2
	btnez	$L212
	.loc 1 2066 0
	lw	$7,28($sp)
	cmpi	$7,6
$L402:
	btnez	$L211
$LBB97 = .
	.loc 1 2074 0
	lbu	$2,13($16)
	lbu	$6,12($16)
	lbu	$5,15($16)
	sll	$2,$2,8
	.loc 1 2071 0
	lw	$7,32($3)
$LVL221 = .
	.loc 1 2074 0
	move	$4,$2
	lbu	$2,14($16)
	or	$4,$6
	lbu	$6,1($16)
	sll	$5,$5,24
	sw	$3,108($sp)
	sll	$2,$2,8
	sw	$7,104($sp)
	sll	$2,$2,8
	or	$2,$4
	or	$5,$2
$LVL222 = .
	.set	noreorder
	.set	nomacro
	jal	rtl_ipflow_lookup
	move	$4,$7
	.set	macro
	.set	reorder

$LVL223 = .
	lw	$3,108($sp)
	lw	$7,104($sp)
	sw	$2,32($sp)
$LVL224 = .
	bnez	$2,$L397
$LVL225 = .
	.loc 1 2075 0
	move	$4,$7
	.set	noreorder
	.set	nomacro
	jal	rtl_rtalloc
	sw	$3,108($sp)
	.set	macro
	.set	reorder

$LVL226 = .
	.loc 1 2076 0
	lw	$3,108($sp)
	.loc 1 2075 0
	sw	$2,56($sp)
$LVL227 = .
	.loc 1 2076 0
	bnez	$2,$L216
$LVL228 = .
$L218:
	.loc 1 2077 0
	li	$2,0
	.set	noat
	move	$1,$2
	.set	at
	lw	$2,$L430
	.set	noat
	.set	noreorder
	.set	nomacro
	jr	$2
	move	$2,$1
	.set	macro
	.set	reorder
	.set	at
	.align	2
$L430:
	.word	$L396
$LVL229 = .
$L212:
$LBE97 = .
	.loc 1 2067 0
	cmpi	$2,1
	btnez	$L211
	.loc 1 2067 0 is_stmt 0 discriminator 1
	lw	$2,28($sp)
	cmpi	$2,17
	b	$L402
$LVL230 = .
$L216:
$LBB133 = .
	.loc 1 2076 0 is_stmt 1 discriminator 1
	lw	$4,56($sp)
	lw	$4,0($4)
	sw	$4,36($sp)
$LVL231 = .
	bnez	$4,$L219
	b	$L218
$LVL232 = .
$L397:
	.loc 1 2079 0
	lw	$5,32($sp)
	lw	$5,24($5)
	sw	$5,36($sp)
$LVL233 = .
$L219:
	.loc 1 2083 0
	lw	$6,36($sp)
	li	$2,1
	lw	$6,56($6)
	and	$2,$6
	beqz	$2,$L218
	.loc 1 2083 0 is_stmt 0 discriminator 1
	lw	$2,36($sp)
	lw	$7,60($2)
	li	$2,1
	lhu	$4,58($7)
	and	$2,$4
	beqz	$2,$L218
	.loc 1 2083 0 discriminator 2
	lw	$4,4($7)
	li	$6,2
	lw	$5,$L429
	sw	$7,104($sp)
	.set	noreorder
	.set	nomacro
	jal	memcmp
	sw	$3,108($sp)
	.set	macro
	.set	reorder

$LVL234 = .
	lw	$7,104($sp)
	beqz	$2,$L218
	.loc 1 2088 0 is_stmt 1
	lw	$5,80($7)
	move	$6,$17
	lw	$7,76($sp)
	.set	noreorder
	.set	nomacro
	jal	rtl_mtu_check
	lw	$4,36($7)
	.set	macro
	.set	reorder

$LVL235 = .
	lw	$3,108($sp)
	bnez	$2,$L218
	.loc 1 2091 0
	lw	$2,36($sp)
	lw	$2,60($2)
	sw	$2,84($sp)
	lbu	$2,72($2)
	cmpi	$2,23
	bteqz	$L220
$L223:
	.loc 1 2115 0
	lw	$4,32($sp)
	beqz	$4,$L222
	.loc 1 2116 0
	lw	$5,32($sp)
	lw	$6,32($sp)
	addiu	$5,124
	lw	$5,36($5)
	move	$2,$5
	addiu	$2,1
	sw	$2,160($6)
	.loc 1 2117 0
	li	$2,10
	sw	$2,164($6)
	b	$L222
$L220:
	.loc 1 2092 0
	.set	noreorder
	.set	nomacro
	jal	get_fast_pppoe_flag
	sw	$3,108($sp)
	.set	macro
	.set	reorder

$LVL236 = .
	lw	$3,108($sp)
	bnez	$2,$L223
	.loc 1 2093 0
	jal	get_fast_l2tp_flag
$LVL237 = .
	lw	$3,108($sp)
	bnez	$2,$L223
	.loc 1 2094 0
	jal	get_fast_pptp_flag
$LVL238 = .
	lw	$3,108($sp)
	bnez	$2,$L223
	b	$L218
$L222:
	.loc 1 2121 0
	lw	$7,36($sp)
	li	$2,2
	lw	$7,56($7)
	and	$2,$7
	beqz	$2,$L224
	.loc 1 2122 0
	lw	$2,36($sp)
	lw	$2,48($2)
	sw	$2,56($sp)
$LVL239 = .
	b	$L225
$LVL240 = .
$L224:
	.loc 1 2129 0
	lw	$4,56($sp)
	.loc 1 2126 0
	lw	$5,32($sp)
	.loc 1 2129 0
	addiu	$4,8
	sw	$4,56($sp)
$LVL241 = .
	.loc 1 2126 0
	beqz	$5,$L225
	.loc 1 2127 0
	addiu	$5,32
	sw	$5,56($sp)
$LVL242 = .
$L225:
	.loc 1 2133 0
	lw	$7,36($sp)
	lw	$6,56($sp)
	lw	$5,76($sp)
	lw	$4,60($7)
	.set	noreorder
	.set	nomacro
	jal	skb_can_forward
	sw	$3,108($sp)
	.set	macro
	.set	reorder

$LVL243 = .
	lw	$3,108($sp)
	beqz	$2,$L218
	.loc 1 2136 0
	lw	$6,28($sp)
	cmpi	$6,6
	btnez	$L227
	.loc 1 2139 0
	lw	$17,24($sp)
$LVL244 = .
	addiu	$17,16
$LVL245 = .
	b	$L228
$LVL246 = .
$L227:
	.loc 1 2145 0
	lw	$7,24($sp)
	.loc 1 2148 0
	li	$17,0
$LVL247 = .
	.loc 1 2145 0
	lbu	$2,7($7)
	lbu	$4,6($7)
	sll	$2,$2,8
	or	$2,$4
	beqz	$2,$L228
	.loc 1 2146 0
	move	$17,$7
	addiu	$17,6
$LVL248 = .
$L228:
	.loc 1 2155 0
	lw	$2,52($sp)
	beqz	$2,$L229
	.loc 1 2157 0
	lw	$5,28($sp)
	lw	$6,68($sp)
	lbu	$2,5($16)
	lbu	$4,4($16)
	lw	$7,44($sp)
	sll	$2,$2,8
	sw	$5,20($sp)
	sw	$6,16($sp)
	sw	$3,108($sp)
	or	$4,$2
	lw	$6,64($sp)
	.set	noreorder
	.set	nomacro
	jal	add_fragEntry
	lw	$5,40($sp)
	.set	macro
	.set	reorder

$LVL249 = .
	lw	$3,108($sp)
	bnez	$2,$L230
	b	$L218
$L229:
	.loc 1 2165 0
	lw	$7,72($sp)
	beqz	$7,$L230
$LVL250 = .
$LBB98 = .
$LBB99 = .
	.loc 1 408 0
	lw	$4,60($sp)
	.set	noreorder
	.set	nomacro
	jal	free_fragEntry
	sw	$3,108($sp)
	.set	macro
	.set	reorder

$LVL251 = .
	lw	$3,108($sp)
$LVL252 = .
$L230:
$LBE99 = .
$LBE98 = .
	.loc 1 2191 0
	lbu	$7,1($3)
	sltu	$7,4
	bteqz	$L233
	sltu	$7,2
	bteqz	$L234
	beqz	$7,$L235
	cmpi	$7,1
	bteqz	$L236
	b	$L232
$L233:
	lw	$2,44($sp)
	cmpi	$7,8
	lw	$6,32($3)
	li	$4,65535
	srl	$5,$2,8
	move	$2,$24
	srl	$5,$5,8
	beqz	$2,$L237
	cmpi	$7,12
	bteqz	$L237
	cmpi	$7,4
	bteqz	$L238
	b	$L232
$L236:
$LVL253 = .
$LBB100 = .
	.loc 1 2196 0
	lw	$6,24($3)
$LVL254 = .
	li	$4,65535
	lw	$2,40($sp)
	move	$5,$4
	srl	$7,$6,8
	move	$25,$4
	srl	$7,$7,8
	and	$5,$6
	addu	$4,$7,$5
	move	$5,$25
	and	$2,$5
	subu	$2,$2,$4
	move	$31,$2
	lw	$2,40($sp)
	srl	$5,$2,8
	move	$2,$31
	srl	$5,$5,8
	addu	$2,$2,$5
	lbu	$5,11($16)
	move	$31,$2
$LVL255 = .
	lbu	$2,10($16)
$LVL256 = .
	sll	$5,$5,8
	or	$2,$5
	move	$5,$31
	addu	$2,$5,$2
$LVL257 = .
	slt	$2,0
	bteqz	$L239
	.loc 1 2196 0 is_stmt 0 discriminator 1
	neg	$2,$2
$LVL258 = .
	sra	$5,$2,8
	sra	$5,$5,8
	move	$24,$5
	move	$5,$25
	and	$2,$5
$LVL259 = .
	move	$5,$24
	addu	$2,$5,$2
$LVL260 = .
	sra	$5,$2,8
	sra	$5,$5,8
$LVL261 = .
	addu	$2,$2,$5
$LVL262 = .
	not	$2,$2
$LVL263 = .
	b	$L403
$LVL264 = .
$L239:
	.loc 1 2196 0 discriminator 2
	sra	$5,$2,8
	sra	$5,$5,8
	move	$24,$5
	move	$5,$25
	and	$2,$5
$LVL265 = .
	move	$5,$24
	addu	$2,$5,$2
$LVL266 = .
	sra	$5,$2,8
	sra	$5,$5,8
$LVL267 = .
	addu	$2,$2,$5
$LVL268 = .
$L403:
	zeh	$2
	sb	$2,10($16)
	srl	$2,$2,8
	sb	$2,11($16)
$LBE100 = .
	.loc 1 2197 0 is_stmt 1 discriminator 2
	lw	$2,48($sp)
	beqz	$2,$L241
	.loc 1 2199 0
	lw	$5,28($sp)
	cmpi	$5,17
	btnez	$L242
	.loc 1 2201 0
	beqz	$17,$L241
	.loc 1 2201 0 is_stmt 0 discriminator 1
	lhu	$2,0($17)
	move	$24,$2
	bteqz	$L241
$LVL269 = .
$LBB101 = .
	.loc 1 2204 0 is_stmt 1
	lbu	$2,13($16)
	lbu	$5,12($16)
	sll	$2,$2,8
	or	$2,$5
	lbu	$5,14($16)
	sll	$5,$5,8
	sll	$5,$5,8
	or	$2,$5
	lbu	$5,15($16)
	sll	$5,$5,24
	or	$5,$2
$LVL270 = .
	li	$2,65535
	move	$25,$2
	and	$2,$5
	srl	$5,$5,8
$LVL271 = .
	subu	$2,$2,$4
	srl	$5,$5,8
	addu	$5,$2,$5
$LVL272 = .
	move	$2,$24
	addu	$4,$5,$2
$LVL273 = .
	slt	$4,0
	bteqz	$L243
	.loc 1 2204 0 is_stmt 0 discriminator 1
	neg	$4,$4
$LVL274 = .
	move	$5,$25
	sra	$2,$4,8
	and	$4,$5
$LVL275 = .
	sra	$2,$2,8
	addu	$4,$2,$4
$LVL276 = .
	sra	$2,$4,8
	sra	$2,$2,8
$LVL277 = .
	addu	$4,$4,$2
$LVL278 = .
	not	$4,$4
$LVL279 = .
	b	$L404
$LVL280 = .
$L243:
	.loc 1 2204 0 discriminator 2
	sra	$2,$4,8
	move	$5,$25
	sra	$2,$2,8
	and	$4,$5
$LVL281 = .
	addu	$4,$2,$4
$LVL282 = .
	sra	$2,$4,8
	sra	$2,$2,8
$LVL283 = .
	addu	$4,$4,$2
$LVL284 = .
$L404:
	sh	$4,0($17)
	b	$L241
$L242:
$LVL285 = .
$LBE101 = .
$LBB102 = .
	.loc 1 2209 0 is_stmt 1
	lbu	$5,13($16)
	lbu	$2,12($16)
	sll	$5,$5,8
	or	$5,$2
	lbu	$2,14($16)
	sll	$2,$2,8
	sll	$2,$2,8
	or	$5,$2
	lbu	$2,15($16)
	sll	$2,$2,24
	or	$2,$5
$LVL286 = .
	li	$5,65535
	move	$25,$5
	and	$5,$2
	srl	$2,$2,8
$LVL287 = .
	subu	$5,$5,$4
	srl	$2,$2,8
	addu	$4,$5,$2
$LVL288 = .
	lhu	$2,0($17)
	addu	$2,$4,$2
$LVL289 = .
	slt	$2,0
	bteqz	$L244
	.loc 1 2209 0 is_stmt 0 discriminator 1
	neg	$2,$2
$LVL290 = .
	move	$5,$25
	sra	$4,$2,8
	and	$2,$5
$LVL291 = .
	sra	$4,$4,8
	addu	$2,$4,$2
$LVL292 = .
	sra	$4,$2,8
	sra	$4,$4,8
$LVL293 = .
	addu	$2,$2,$4
$LVL294 = .
	not	$2,$2
$LVL295 = .
	b	$L405
$LVL296 = .
$L244:
	.loc 1 2209 0 discriminator 2
	sra	$4,$2,8
	move	$5,$25
	sra	$4,$4,8
	and	$2,$5
$LVL297 = .
	addu	$2,$4,$2
$LVL298 = .
	sra	$4,$2,8
	sra	$4,$4,8
$LVL299 = .
	addu	$2,$2,$4
$LVL300 = .
$L405:
	sh	$2,0($17)
$L241:
$LBE102 = .
	.loc 1 2216 0 is_stmt 1
	srl	$2,$6,8
	sb	$6,12($16)
	srl	$6,$6,24
	sb	$7,14($16)
	sb	$2,13($16)
	sb	$6,15($16)
	.loc 1 2217 0
	b	$L235
$L234:
$LVL301 = .
$LBB103 = .
	.loc 1 2221 0
	lw	$5,24($3)
$LVL302 = .
	li	$7,65535
	move	$2,$7
	srl	$6,$5,8
	and	$2,$5
	srl	$6,$6,8
	move	$25,$7
	addu	$4,$6,$2
	lw	$2,40($sp)
	move	$31,$6
	and	$2,$7
	subu	$6,$2,$4
	lw	$2,40($sp)
	srl	$7,$2,8
	lbu	$2,10($16)
	srl	$7,$7,8
	addu	$6,$6,$7
$LVL303 = .
	lbu	$7,11($16)
	sll	$7,$7,8
	or	$2,$7
	addu	$2,$6,$2
$LVL304 = .
	slt	$2,0
	bteqz	$L245
	.loc 1 2221 0 is_stmt 0 discriminator 1
	neg	$2,$2
$LVL305 = .
	move	$7,$25
	sra	$6,$2,8
	and	$2,$7
$LVL306 = .
	sra	$6,$6,8
	addu	$2,$6,$2
$LVL307 = .
	sra	$7,$2,8
	sra	$7,$7,8
$LVL308 = .
	addu	$7,$2,$7
$LVL309 = .
	not	$7,$7
$LVL310 = .
	zeh	$7
$LVL311 = .
	sb	$7,10($16)
	srl	$7,$7,8
	sb	$7,11($16)
	b	$L246
$LVL312 = .
$L245:
	.loc 1 2221 0 discriminator 2
	sra	$6,$2,8
	move	$7,$25
	sra	$6,$6,8
	and	$2,$7
$LVL313 = .
	addu	$2,$6,$2
$LVL314 = .
	sra	$7,$2,8
	sra	$7,$7,8
$LVL315 = .
	addu	$2,$2,$7
$LVL316 = .
	zeh	$2
$LVL317 = .
	sb	$2,10($16)
$LVL318 = .
	srl	$2,$2,8
	sb	$2,11($16)
$L246:
$LBE103 = .
	.loc 1 2222 0 is_stmt 1
	lw	$2,48($sp)
	beqz	$2,$L247
	.loc 1 2224 0
	lw	$6,28($sp)
	cmpi	$6,17
	btnez	$L248
	.loc 1 2227 0
	beqz	$17,$L249
	.loc 1 2227 0 is_stmt 0 discriminator 1
	lhu	$7,0($17)
	move	$24,$7
	bteqz	$L249
$LVL319 = .
$LBB104 = .
	.loc 1 2230 0 is_stmt 1
	lbu	$7,13($16)
	lbu	$2,12($16)
	sll	$7,$7,8
	or	$7,$2
	lbu	$2,14($16)
	sll	$2,$2,8
	sll	$2,$2,8
	or	$7,$2
	lbu	$2,15($16)
	sll	$2,$2,24
	or	$2,$7
$LVL320 = .
	li	$7,65535
	move	$6,$2
	and	$6,$7
	subu	$4,$6,$4
	lw	$6,24($sp)
	srl	$2,$2,8
$LVL321 = .
	srl	$2,$2,8
	addu	$2,$4,$2
$LVL322 = .
	lbu	$4,0($6)
	lbu	$6,1($6)
$LVL323 = .
	sll	$6,$6,8
	or	$4,$6
	addu	$4,$2,$4
	lw	$2,28($3)
$LVL324 = .
	move	$6,$24
	subu	$4,$4,$2
$LVL325 = .
	addu	$2,$4,$6
$LVL326 = .
	b	$L425
$LVL327 = .
$L248:
$LBE104 = .
$LBB105 = .
	.loc 1 2235 0
	lbu	$7,13($16)
	lbu	$2,12($16)
	sll	$7,$7,8
	or	$2,$7
	lbu	$7,14($16)
	sll	$7,$7,8
	sll	$7,$7,8
	or	$7,$2
	lbu	$2,15($16)
	sll	$2,$2,24
	or	$2,$7
	li	$7,65535
	move	$24,$2
$LVL328 = .
	move	$6,$24
	and	$2,$7
$LVL329 = .
	subu	$2,$2,$4
	srl	$4,$6,8
	lw	$6,24($sp)
$LVL330 = .
	srl	$4,$4,8
	addu	$2,$2,$4
$LVL331 = .
	lbu	$4,0($6)
	lbu	$6,1($6)
$LVL332 = .
	sll	$6,$6,8
	or	$4,$6
	addu	$4,$2,$4
	lw	$2,28($3)
$LVL333 = .
	subu	$4,$4,$2
$LVL334 = .
	lhu	$2,0($17)
	addu	$2,$4,$2
$LVL335 = .
$L425:
	slt	$2,0
	bteqz	$L251
	.loc 1 2235 0 is_stmt 0 discriminator 1
	neg	$2,$2
$LVL336 = .
	sra	$4,$2,8
	and	$2,$7
$LVL337 = .
	sra	$4,$4,8
	addu	$2,$4,$2
$LVL338 = .
	sra	$4,$2,8
	sra	$4,$4,8
$LVL339 = .
	addu	$2,$2,$4
$LVL340 = .
	not	$2,$2
$LVL341 = .
	b	$L406
$LVL342 = .
$L251:
	.loc 1 2235 0 discriminator 2
	sra	$4,$2,8
	and	$2,$7
$LVL343 = .
	sra	$4,$4,8
	addu	$2,$4,$2
$LVL344 = .
	sra	$7,$2,8
	sra	$7,$7,8
$LVL345 = .
	addu	$2,$2,$7
$LVL346 = .
$L406:
	sh	$2,0($17)
$L249:
$LBE105 = .
	.loc 1 2241 0 is_stmt 1
	lhu	$2,28($3)
	lw	$4,24($sp)
	sb	$2,0($4)
	srl	$2,$2,8
	sb	$2,1($4)
$L247:
	.loc 1 2243 0
	srl	$2,$5,8
	sb	$5,12($16)
	srl	$5,$5,24
	move	$6,$31
	sb	$2,13($16)
	sb	$6,14($16)
	sb	$5,15($16)
	.loc 1 2244 0
	b	$L235
$L238:
$LVL347 = .
$LBB106 = .
	.loc 1 2251 0
	srl	$7,$6,8
	srl	$7,$7,8
	move	$25,$7
	move	$7,$6
	move	$2,$25
	and	$7,$4
	addu	$7,$7,$2
	lbu	$2,10($16)
	subu	$5,$5,$7
	lw	$7,44($sp)
	and	$7,$4
	addu	$5,$5,$7
$LVL348 = .
	lbu	$7,11($16)
	sll	$7,$7,8
	or	$2,$7
	addu	$7,$5,$2
$LVL349 = .
	slt	$7,0
	bteqz	$L252
	.loc 1 2251 0 is_stmt 0 discriminator 1
	neg	$7,$7
$LVL350 = .
	sra	$2,$7,8
	and	$7,$4
$LVL351 = .
	sra	$2,$2,8
	addu	$7,$2,$7
$LVL352 = .
	sra	$4,$7,8
	sra	$4,$4,8
$LVL353 = .
	addu	$7,$7,$4
$LVL354 = .
	not	$7,$7
$LVL355 = .
	b	$L407
$LVL356 = .
$L252:
	.loc 1 2251 0 discriminator 2
	sra	$2,$7,8
	and	$7,$4
$LVL357 = .
	sra	$2,$2,8
	addu	$7,$2,$7
$LVL358 = .
	sra	$4,$7,8
	sra	$4,$4,8
$LVL359 = .
	addu	$7,$7,$4
$LVL360 = .
$L407:
	zeh	$7
$LBE106 = .
	.loc 1 2252 0 is_stmt 1 discriminator 2
	lw	$4,48($sp)
$LBB107 = .
	.loc 1 2251 0 discriminator 2
	sb	$7,10($16)
	srl	$7,$7,8
	sb	$7,11($16)
$LBE107 = .
	.loc 1 2252 0 discriminator 2
	beqz	$4,$L254
	.loc 1 2254 0
	lw	$7,28($sp)
	cmpi	$7,17
	btnez	$L255
	.loc 1 2257 0
	beqz	$17,$L254
	.loc 1 2257 0 is_stmt 0 discriminator 1
	lhu	$4,0($17)
	beqz	$4,$L254
	b	$L427
$L255:
$LVL361 = .
$LBB108 = .
	.loc 1 2265 0 is_stmt 1
	lhu	$4,0($17)
$LVL362 = .
$L427:
	addu	$5,$5,$4
$LVL363 = .
	li	$7,65535
	slt	$5,0
	bteqz	$L257
	.loc 1 2265 0 is_stmt 0 discriminator 1
	neg	$5,$5
$LVL364 = .
	sra	$4,$5,8
	and	$5,$7
$LVL365 = .
	sra	$4,$4,8
	addu	$5,$4,$5
$LVL366 = .
	sra	$4,$5,8
	sra	$4,$4,8
$LVL367 = .
	addu	$5,$5,$4
$LVL368 = .
	not	$5,$5
$LVL369 = .
	b	$L408
$LVL370 = .
$L257:
	.loc 1 2265 0 discriminator 2
	sra	$4,$5,8
	and	$5,$7
$LVL371 = .
	sra	$4,$4,8
	addu	$5,$4,$5
$LVL372 = .
	sra	$4,$5,8
	sra	$4,$4,8
$LVL373 = .
	addu	$5,$5,$4
$LVL374 = .
$L408:
	sh	$5,0($17)
$L254:
$LBE108 = .
	.loc 1 2268 0 is_stmt 1
	srl	$4,$6,8
	sb	$6,16($16)
	move	$2,$25
	sb	$4,17($16)
	sb	$2,18($16)
	b	$L418
$L237:
$LVL375 = .
$LBB109 = .
	.loc 1 2277 0
	li	$7,65535
	move	$2,$6
	move	$31,$7
	srl	$7,$6,8
	and	$2,$4
	srl	$7,$7,8
	addu	$2,$2,$7
	move	$25,$7
	lbu	$7,11($16)
	subu	$5,$5,$2
	lw	$2,44($sp)
	sll	$7,$7,8
	and	$4,$2
	addu	$4,$5,$4
$LVL376 = .
	lbu	$5,10($16)
	or	$5,$7
	addu	$5,$4,$5
$LVL377 = .
	slt	$5,0
	bteqz	$L258
	.loc 1 2277 0 is_stmt 0 discriminator 1
	neg	$5,$5
$LVL378 = .
	move	$2,$31
	move	$24,$5
$LVL379 = .
	sra	$5,$5,8
$LVL380 = .
	move	$7,$24
	sra	$5,$5,8
	and	$2,$7
	addu	$2,$5,$2
$LVL381 = .
	sra	$5,$2,8
	sra	$5,$5,8
$LVL382 = .
	addu	$2,$2,$5
$LVL383 = .
	not	$2,$2
$LVL384 = .
	b	$L409
$LVL385 = .
$L258:
	.loc 1 2277 0 discriminator 2
	sra	$2,$5,8
	sra	$2,$2,8
	move	$24,$2
	move	$2,$31
	and	$2,$5
	move	$5,$24
$LVL386 = .
	addu	$2,$5,$2
$LVL387 = .
	sra	$5,$2,8
	sra	$5,$5,8
$LVL388 = .
	addu	$2,$2,$5
$LVL389 = .
$L409:
	zeh	$2
$LBE109 = .
	.loc 1 2278 0 is_stmt 1 discriminator 2
	lw	$7,48($sp)
$LBB110 = .
	.loc 1 2277 0 discriminator 2
	sb	$2,10($16)
	srl	$2,$2,8
	sb	$2,11($16)
$LBE110 = .
	.loc 1 2278 0 discriminator 2
	beqz	$7,$L260
	.loc 1 2280 0
	lw	$2,28($sp)
	cmpi	$2,17
	btnez	$L261
	.loc 1 2283 0
	beqz	$17,$L262
	.loc 1 2283 0 is_stmt 0 discriminator 1
	lhu	$5,0($17)
	move	$24,$5
	bteqz	$L262
$LVL390 = .
$LBB111 = .
	.loc 1 2286 0 is_stmt 1
	lw	$7,24($sp)
	lbu	$2,3($7)
	lbu	$5,2($7)
	sll	$2,$2,8
	or	$2,$5
	addu	$4,$4,$2
$LVL391 = .
	lw	$2,36($3)
	move	$5,$24
	subu	$4,$4,$2
$LVL392 = .
	addu	$4,$4,$5
$LVL393 = .
	li	$5,65535
	slt	$4,0
	bteqz	$L263
	.loc 1 2286 0 is_stmt 0 discriminator 1
	neg	$4,$4
$LVL394 = .
	sra	$2,$4,8
	and	$4,$5
$LVL395 = .
	sra	$2,$2,8
	addu	$4,$2,$4
$LVL396 = .
	sra	$2,$4,8
	sra	$2,$2,8
$LVL397 = .
	addu	$4,$4,$2
$LVL398 = .
	not	$4,$4
$LVL399 = .
	b	$L410
$LVL400 = .
$L263:
	.loc 1 2286 0 discriminator 2
	sra	$2,$4,8
	and	$4,$5
$LVL401 = .
	sra	$2,$2,8
	addu	$4,$2,$4
$LVL402 = .
	sra	$2,$4,8
	sra	$2,$2,8
$LVL403 = .
	addu	$4,$4,$2
$LVL404 = .
$L410:
	sh	$4,0($17)
	b	$L262
$L261:
$LVL405 = .
$LBE111 = .
$LBB112 = .
	.loc 1 2291 0 is_stmt 1
	lw	$7,24($sp)
	lbu	$2,3($7)
	lbu	$5,2($7)
	sll	$2,$2,8
	or	$2,$5
	addu	$4,$4,$2
$LVL406 = .
	lw	$2,36($3)
	li	$5,65535
	subu	$4,$4,$2
$LVL407 = .
	lhu	$2,0($17)
	addu	$2,$4,$2
$LVL408 = .
	slt	$2,0
	bteqz	$L264
	.loc 1 2291 0 is_stmt 0 discriminator 1
	neg	$2,$2
$LVL409 = .
	sra	$4,$2,8
	and	$2,$5
$LVL410 = .
	sra	$4,$4,8
	addu	$2,$4,$2
$LVL411 = .
	sra	$4,$2,8
	sra	$4,$4,8
$LVL412 = .
	addu	$2,$2,$4
$LVL413 = .
	not	$2,$2
$LVL414 = .
	b	$L411
$LVL415 = .
$L264:
	.loc 1 2291 0 discriminator 2
	sra	$4,$2,8
	and	$2,$5
$LVL416 = .
	sra	$4,$4,8
	addu	$2,$4,$2
$LVL417 = .
	sra	$4,$2,8
	sra	$4,$4,8
$LVL418 = .
	addu	$2,$2,$4
$LVL419 = .
$L411:
	sh	$2,0($17)
$L262:
$LBE112 = .
	.loc 1 2293 0 is_stmt 1
	lhu	$2,36($3)
	lw	$4,24($sp)
	sb	$2,2($4)
	srl	$2,$2,8
	sb	$2,3($4)
$L260:
	.loc 1 2295 0
	srl	$2,$6,8
	sb	$6,16($16)
	move	$5,$25
	sb	$2,17($16)
	sb	$5,18($16)
$L418:
	srl	$6,$6,24
	sb	$6,19($16)
	.loc 1 2296 0
	b	$L235
$L232:
$LVL420 = .
$LBB113 = .
	.loc 1 2299 0
	lw	$6,24($3)
$LVL421 = .
	li	$2,65535
	lw	$7,40($sp)
	move	$25,$2
	srl	$5,$6,8
	srl	$4,$7,8
	srl	$5,$5,8
	and	$2,$6
	srl	$4,$4,8
	addu	$2,$2,$5
	sw	$5,52($sp)
$LVL422 = .
	lbu	$5,11($16)
	subu	$2,$4,$2
	move	$4,$7
	move	$7,$25
	and	$4,$7
	addu	$2,$2,$4
$LVL423 = .
	lbu	$4,10($16)
	sll	$5,$5,8
	or	$5,$4
	addu	$5,$2,$5
$LVL424 = .
	slt	$5,0
	bteqz	$L265
	.loc 1 2299 0 is_stmt 0 discriminator 1
	neg	$4,$5
$LVL425 = .
	move	$5,$25
	sra	$7,$4,8
	and	$4,$5
$LVL426 = .
	sra	$7,$7,8
	addu	$4,$7,$4
$LVL427 = .
	sra	$5,$4,8
	sra	$5,$5,8
$LVL428 = .
	addu	$4,$4,$5
$LVL429 = .
	not	$4,$4
$LVL430 = .
	b	$L412
$LVL431 = .
$L265:
	.loc 1 2299 0 discriminator 2
	sra	$7,$5,8
	move	$4,$25
	sra	$7,$7,8
	and	$5,$4
$LVL432 = .
	addu	$4,$7,$5
$LVL433 = .
	sra	$5,$4,8
	sra	$5,$5,8
$LVL434 = .
	addu	$4,$4,$5
$LVL435 = .
$L412:
$LBE113 = .
$LBB114 = .
	.loc 1 2300 0 is_stmt 1 discriminator 2
	lw	$7,44($sp)
$LBE114 = .
$LBB115 = .
	.loc 1 2299 0 discriminator 2
	zeh	$4
$LBE115 = .
$LBB116 = .
	.loc 1 2300 0 discriminator 2
	lw	$5,32($3)
$LBE116 = .
$LBB117 = .
	.loc 1 2299 0 discriminator 2
	sb	$4,10($16)
	srl	$4,$4,8
$LBE117 = .
$LBB118 = .
	.loc 1 2300 0 discriminator 2
	srl	$7,$7,8
	srl	$7,$7,8
$LBE118 = .
$LBB119 = .
	.loc 1 2299 0 discriminator 2
	sb	$4,11($16)
$LVL436 = .
$LBE119 = .
$LBB120 = .
	.loc 1 2300 0 discriminator 2
	li	$4,65535
	sw	$7,40($sp)
$LVL437 = .
	move	$31,$4
	move	$7,$4
	srl	$4,$5,8
	and	$7,$5
	srl	$4,$4,8
	addu	$7,$7,$4
	lw	$4,40($sp)
	subu	$4,$4,$7
	lw	$7,44($sp)
	move	$25,$4
	move	$4,$31
	and	$7,$4
	move	$4,$25
	addu	$4,$4,$7
	sw	$4,40($sp)
$LVL438 = .
	lbu	$4,11($16)
$LVL439 = .
	lbu	$7,10($16)
	sll	$4,$4,8
	or	$4,$7
	lw	$7,40($sp)
	addu	$7,$7,$4
	slt	$7,0
	move	$25,$7
$LVL440 = .
	bteqz	$L267
	.loc 1 2300 0 is_stmt 0 discriminator 1
	neg	$7,$7
$LVL441 = .
	move	$25,$7
$LVL442 = .
	sra	$7,$7,8
$LVL443 = .
	move	$4,$25
	sra	$7,$7,8
	move	$24,$7
	move	$7,$31
	and	$4,$7
	move	$7,$24
	addu	$7,$7,$4
	move	$24,$7
$LVL444 = .
	sra	$7,$7,8
$LVL445 = .
	move	$4,$24
	sra	$7,$7,8
$LVL446 = .
	addu	$4,$4,$7
	not	$4,$4
	b	$L413
$LVL447 = .
$L267:
	.loc 1 2300 0 discriminator 2
	sra	$7,$7,8
$LVL448 = .
	move	$4,$25
	sra	$7,$7,8
	move	$24,$7
	move	$7,$31
	and	$4,$7
	move	$7,$24
	addu	$7,$7,$4
	move	$24,$7
$LVL449 = .
	sra	$7,$7,8
$LVL450 = .
	move	$4,$24
	sra	$7,$7,8
$LVL451 = .
	addu	$4,$4,$7
$LVL452 = .
$L413:
	move	$7,$4
	zeh	$7
	srl	$4,$7,8
	sb	$7,10($16)
$LBE120 = .
	.loc 1 2302 0 is_stmt 1 discriminator 2
	lw	$7,48($sp)
$LBB121 = .
	.loc 1 2300 0 discriminator 2
	sb	$4,11($16)
$LBE121 = .
	.loc 1 2302 0 discriminator 2
	beqz	$7,$L269
	.loc 1 2304 0
	lw	$4,28($sp)
	cmpi	$4,17
	btnez	$L270
	.loc 1 2307 0
	beqz	$17,$L271
	.loc 1 2307 0 is_stmt 0 discriminator 1
	lhu	$7,0($17)
	move	$24,$7
	bteqz	$L271
$LVL453 = .
$LBB122 = .
	.loc 1 2310 0 is_stmt 1
	lw	$7,24($sp)
	lw	$4,24($sp)
	lbu	$7,1($7)
	lbu	$4,0($4)
	sll	$7,$7,8
	or	$7,$4
	lw	$4,28($3)
	addu	$2,$2,$7
$LVL454 = .
	move	$7,$24
	subu	$2,$2,$4
$LVL455 = .
	li	$4,65535
	addu	$2,$2,$7
$LVL456 = .
	slt	$2,0
	bteqz	$L272
	.loc 1 2310 0 is_stmt 0 discriminator 1
	neg	$2,$2
$LVL457 = .
	move	$24,$2
$LVL458 = .
	sra	$2,$2,8
$LVL459 = .
	move	$7,$24
	sra	$2,$2,8
	and	$7,$4
	addu	$2,$2,$7
$LVL460 = .
	sra	$4,$2,8
	sra	$4,$4,8
$LVL461 = .
	addu	$2,$2,$4
$LVL462 = .
	not	$2,$2
	b	$L414
$LVL463 = .
$L272:
	.loc 1 2310 0 discriminator 2
	sra	$7,$2,8
	and	$2,$4
$LVL464 = .
	sra	$7,$7,8
	addu	$2,$7,$2
$LVL465 = .
	sra	$7,$2,8
	sra	$7,$7,8
$LVL466 = .
	addu	$2,$2,$7
$L414:
$LBE122 = .
$LBB123 = .
	.loc 1 2311 0 is_stmt 1 discriminator 2
	lw	$4,24($sp)
$LBE123 = .
$LBB124 = .
	.loc 1 2310 0 discriminator 2
	sh	$2,0($17)
$LVL467 = .
$LBE124 = .
$LBB125 = .
	.loc 1 2311 0 discriminator 2
	lbu	$7,3($4)
	lbu	$2,2($4)
	sll	$7,$7,8
	or	$2,$7
	lw	$7,40($sp)
	addu	$4,$7,$2
$LVL468 = .
	lw	$2,36($3)
	li	$7,65535
	subu	$4,$4,$2
$LVL469 = .
	lhu	$2,0($17)
	addu	$4,$4,$2
$LVL470 = .
	slt	$4,0
	bteqz	$L274
	.loc 1 2311 0 is_stmt 0 discriminator 1
	neg	$4,$4
$LVL471 = .
	sra	$2,$4,8
	and	$4,$7
$LVL472 = .
	sra	$2,$2,8
	addu	$4,$2,$4
$LVL473 = .
	sra	$2,$4,8
	sra	$2,$2,8
$LVL474 = .
	addu	$4,$4,$2
$LVL475 = .
	not	$4,$4
$LVL476 = .
	b	$L416
$LVL477 = .
$L274:
	.loc 1 2311 0 discriminator 2
	sra	$2,$4,8
	and	$4,$7
$LVL478 = .
	sra	$2,$2,8
	addu	$4,$2,$4
$LVL479 = .
	sra	$2,$4,8
	sra	$2,$2,8
$LVL480 = .
	addu	$4,$4,$2
$LVL481 = .
$L416:
	sh	$4,0($17)
	b	$L271
$L270:
$LVL482 = .
$LBE125 = .
$LBB126 = .
	.loc 1 2316 0 is_stmt 1
	lw	$7,24($sp)
	lw	$4,24($sp)
	lbu	$7,1($7)
	lbu	$4,0($4)
	sll	$7,$7,8
	or	$7,$4
	lw	$4,28($3)
	addu	$2,$2,$7
$LVL483 = .
	lhu	$7,0($17)
	subu	$2,$2,$4
$LVL484 = .
	li	$4,65535
	addu	$2,$2,$7
$LVL485 = .
	slt	$2,0
	bteqz	$L275
	.loc 1 2316 0 is_stmt 0 discriminator 1
	neg	$2,$2
$LVL486 = .
	move	$24,$2
$LVL487 = .
	sra	$2,$2,8
$LVL488 = .
	move	$7,$24
	sra	$2,$2,8
	and	$7,$4
	addu	$2,$2,$7
$LVL489 = .
	sra	$4,$2,8
	sra	$4,$4,8
$LVL490 = .
	addu	$2,$2,$4
$LVL491 = .
	not	$2,$2
	b	$L415
$LVL492 = .
$L275:
	.loc 1 2316 0 discriminator 2
	sra	$7,$2,8
	and	$2,$4
$LVL493 = .
	sra	$7,$7,8
	addu	$2,$7,$2
$LVL494 = .
	sra	$7,$2,8
	sra	$7,$7,8
$LVL495 = .
	addu	$2,$2,$7
$L415:
$LBE126 = .
$LBB127 = .
	.loc 1 2317 0 is_stmt 1 discriminator 2
	lw	$4,24($sp)
$LBE127 = .
$LBB128 = .
	.loc 1 2316 0 discriminator 2
	sh	$2,0($17)
$LVL496 = .
$LBE128 = .
$LBB129 = .
	.loc 1 2317 0 discriminator 2
	lbu	$7,3($4)
	lbu	$2,2($4)
	sll	$7,$7,8
	or	$2,$7
	lw	$7,40($sp)
	addu	$4,$7,$2
$LVL497 = .
	lw	$2,36($3)
	subu	$4,$4,$2
$LVL498 = .
	lhu	$2,0($17)
	addu	$2,$4,$2
$LVL499 = .
	li	$4,65535
	slt	$2,0
	move	$25,$4
	bteqz	$L277
	.loc 1 2317 0 is_stmt 0 discriminator 1
	neg	$2,$2
$LVL500 = .
	move	$7,$25
	sra	$4,$2,8
	and	$2,$7
$LVL501 = .
	sra	$4,$4,8
	addu	$2,$4,$2
$LVL502 = .
	sra	$4,$2,8
	sra	$4,$4,8
$LVL503 = .
	addu	$2,$2,$4
$LVL504 = .
	not	$2,$2
$LVL505 = .
	b	$L417
$LVL506 = .
$L277:
	.loc 1 2317 0 discriminator 2
	sra	$4,$2,8
	move	$7,$25
	sra	$4,$4,8
	and	$2,$7
$LVL507 = .
	addu	$2,$4,$2
$LVL508 = .
	sra	$4,$2,8
	sra	$4,$4,8
$LVL509 = .
	addu	$2,$2,$4
$LVL510 = .
$L417:
	sh	$2,0($17)
$L271:
$LBE129 = .
	.loc 1 2319 0 is_stmt 1
	lhu	$2,28($3)
	lw	$4,24($sp)
	sb	$2,0($4)
	srl	$2,$2,8
	sb	$2,1($4)
	.loc 1 2320 0
	lhu	$2,36($3)
	sb	$2,2($4)
	srl	$2,$2,8
	sb	$2,3($4)
$L269:
	.loc 1 2323 0
	srl	$2,$6,8
	lw	$7,52($sp)
	sb	$6,12($16)
	srl	$6,$6,24
	.loc 1 2324 0
	sb	$5,16($16)
	.loc 1 2323 0
	sb	$2,13($16)
	.loc 1 2324 0
	srl	$2,$5,8
	srl	$5,$5,24
	.loc 1 2323 0
	sb	$7,14($16)
	sb	$6,15($16)
	.loc 1 2324 0
	sb	$2,17($16)
	srl	$2,$2,8
	sb	$5,19($16)
	sb	$2,18($16)
$L235:
	.loc 1 2342 0
	lbu	$4,8($16)
	.loc 1 2341 0
	lhu	$2,8($16)
$LVL511 = .
$LBB130 = .
	.loc 1 2344 0
	lbu	$5,10($16)
$LBE130 = .
	.loc 1 2342 0
	addiu	$4,-1
	sb	$4,8($16)
$LVL512 = .
$LBB131 = .
	.loc 1 2344 0
	lhu	$4,8($16)
	subu	$4,$2,$4
$LVL513 = .
	lbu	$2,11($16)
$LVL514 = .
	sll	$2,$2,8
	or	$2,$5
	addu	$2,$4,$2
$LVL515 = .
	slt	$2,0
	bteqz	$L278
$LVL516 = .
	.loc 1 2344 0 is_stmt 0 discriminator 1
	addiu	$2,-1
$LVL517 = .
	b	$L419
$LVL518 = .
$L278:
	.loc 1 2344 0 discriminator 2
	sra	$4,$2,8
	zeh	$2
$LVL519 = .
	sra	$4,$4,8
	addu	$2,$4,$2
$LVL520 = .
	sra	$4,$2,8
	sra	$4,$4,8
$LVL521 = .
	addu	$2,$2,$4
$LVL522 = .
$L419:
	zeh	$2
	sb	$2,10($16)
	srl	$2,$2,8
	sb	$2,11($16)
$LVL523 = .
$LBE131 = .
	.loc 1 2355 0 is_stmt 1 discriminator 2
	.set	noreorder
	.set	nomacro
	jal	rtl_getTimeStamp
	sw	$3,108($sp)
	.set	macro
	.set	reorder

$LVL524 = .
	.loc 1 2357 0 discriminator 2
	move	$4,$16
	.loc 1 2355 0 discriminator 2
	lw	$3,108($sp)
	.loc 1 2357 0 discriminator 2
	lw	$6,76($sp)
	lw	$5,24($sp)
	.loc 1 2355 0 discriminator 2
	sw	$2,40($3)
	.loc 1 2357 0 discriminator 2
	lw	$3,36($sp)
	.set	noreorder
	.set	nomacro
	jal	fast_path_post_process_xmit_check
	lw	$7,60($3)
	.set	macro
	.set	reorder

$LVL525 = .
	cmpi	$2,1
	bteqz	$L420
	.loc 1 2359 0
	cmpi	$2,6
	bteqz	$L218
$LBB132 = .
	.loc 1 2411 0
	lw	$3,36($sp)
	lw	$4,60($3)
	lbu	$2,72($4)
$LVL526 = .
	cmpi	$2,23
$LVL527 = .
	bteqz	$L218
	.loc 1 2413 0
	lw	$6,56($sp)
	move	$7,$3
	.set	noreorder
	.set	nomacro
	jal	ip_finish_output3_skb
	lw	$5,76($sp)
	.set	macro
	.set	reorder

$LVL528 = .
$LBE132 = .
	.loc 1 2416 0
	lw	$3,32($sp)
	beqz	$3,$L420
	.loc 1 2416 0 is_stmt 0 discriminator 1
	beqz	$2,$L420
	.loc 1 2417 0 is_stmt 1
	cmpi	$2,355
	btnez	$L282
	.loc 1 2418 0
	lw	$4,168($3)
	move	$2,$4
$LVL529 = .
	addiu	$2,1
	sw	$2,168($3)
	b	$L420
$LVL530 = .
$L282:
	.loc 1 2420 0
	lw	$3,32($sp)
	addiu	$3,124
	lw	$3,48($3)
	move	$2,$3
$LVL531 = .
	lw	$3,32($sp)
	addiu	$2,1
	sw	$2,172($3)
$LVL532 = .
$L420:
	.loc 1 2423 0
	li	$2,1
	b	$L396
$LVL533 = .
$L206:
	lw	$3,24($sp)
	lbu	$4,13($3)
$LVL534 = .
	li	$3,7
$LBE133 = .
	.loc 1 1996 0
	and	$3,$4
	beqz	$3,$L205
	.set	noat
	move	$1,$2
	.set	at
	lw	$2,$L431
	.set	noat
	.set	noreorder
	.set	nomacro
	jr	$2
	move	$2,$1
	.set	macro
	.set	reorder
	.set	at
	.align	2
$L431:
	.word	$L218
$LVL535 = .
$L396:
	.loc 1 2432 0
	restore	128,$16,$17,$31
	.cfi_restore 16
	.cfi_restore 17
	.cfi_restore 31
	.cfi_def_cfa_offset 0
$LVL536 = .
	j	$31
	.align	2
$L428:
	.word	table_path
$L429:
	.word	$LC33
	.end	enter_fast_path_skb
	.cfi_endproc
$LFE96:
	.size	enter_fast_path_skb, .-enter_fast_path_skb
	.section	.text.enter_fast_path,"ax",@progbits
	.align	2
	.globl	enter_fast_path
$LFB97 = .
	.loc 1 2436 0
	.cfi_startproc
	.set	mips16
	.set	nomicromips
	.ent	enter_fast_path
	.type	enter_fast_path, @function
enter_fast_path:
	.frame	$sp,152,$31		# vars= 112, regs= 3/0, args= 24, gp= 0
	.mask	0x80030000,-4
	.fmask	0x00000000,0
$LVL537 = .
	.loc 1 2475 0
	li	$2,0
	.loc 1 2436 0
	save	$4-$5,152,$16,$17,$31
	.cfi_def_cfa_offset 152
	.cfi_offset 31, -4
	.cfi_offset 17, -8
	.cfi_offset 16, -12
	.loc 1 2478 0
	lw	$17,4($4)
	.loc 1 2475 0
	sw	$2,24($sp)
	sw	$2,28($sp)
	sw	$2,32($sp)
	sw	$2,36($sp)
	sw	$2,40($sp)
	sw	$2,44($sp)
	sw	$2,48($sp)
$LVL538 = .
	.loc 1 2480 0
	lw	$16,8($5)
$LVL539 = .
	.loc 1 2482 0
	lbu	$2,8($16)
	sltu	$2,2
	btnez	$L451
	.loc 1 2486 0
	lbu	$3,9($16)
	.loc 1 2489 0
	cmpi	$3,6
	.loc 1 2486 0
	sw	$3,60($sp)
$LVL540 = .
	.loc 1 2489 0
	bteqz	$L435
	.loc 1 2489 0 is_stmt 0 discriminator 1
	cmpi	$3,17
	btnez	$L451
$L435:
	.loc 1 2499 0 is_stmt 1
	lbu	$3,0($16)
$LVL541 = .
	li	$2,15
	sw	$6,64($sp)
	.loc 1 2501 0
	move	$6,$5
$LVL542 = .
	sw	$4,100($sp)
	move	$4,$16
$LVL543 = .
	.loc 1 2499 0
	and	$2,$3
	sll	$2,$2,2
	addu	$2,$16,$2
	.loc 1 2501 0
	move	$5,$2
$LVL544 = .
	.set	noreorder
	.set	nomacro
	jal	fast_path_pre_process_check
	sw	$2,56($sp)
	.set	macro
	.set	reorder

$LVL545 = .
	.loc 1 2502 0
	cmpi	$2,6
	btnez	$L589
	.loc 1 2506 0
	lw	$5,$L656
	.set	noreorder
	.set	nomacro
	jal	strcmp
	move	$4,$17
	.set	macro
	.set	reorder

$LVL546 = .
	beqz	$2,$L451
$LBB134 = .
	.loc 1 2522 0
	lbu	$2,7($16)
	lbu	$3,6($16)
$LBE134 = .
	.loc 1 2523 0
	lbu	$5,12($16)
$LBB135 = .
	.loc 1 2522 0
	sll	$2,$2,8
	or	$2,$3
$LVL547 = .
	sll	$3,$2,8
	srl	$2,$2,8
$LVL548 = .
	or	$2,$3
$LBE135 = .
	.loc 1 2523 0
	lbu	$3,13($16)
$LBB136 = .
	.loc 1 2522 0
	zeh	$2
$LVL549 = .
$LBE136 = .
	.loc 1 2523 0
	sll	$3,$3,8
	move	$4,$3
	lbu	$3,14($16)
	or	$4,$5
	sll	$3,$3,8
	sll	$3,$3,8
	or	$3,$4
	lbu	$4,15($16)
	sll	$4,$4,24
	or	$4,$3
	sw	$4,72($sp)
$LVL550 = .
	.loc 1 2524 0
	lbu	$3,17($16)
	lbu	$5,16($16)
	sll	$3,$3,8
	move	$4,$3
$LVL551 = .
	lbu	$3,18($16)
	or	$4,$5
	sll	$3,$3,8
	sll	$3,$3,8
	or	$3,$4
	lbu	$4,19($16)
	sll	$4,$4,24
	or	$4,$3
	.loc 1 2525 0
	lw	$3,56($sp)
	.loc 1 2524 0
	sw	$4,76($sp)
$LVL552 = .
	.loc 1 2525 0
	lbu	$4,0($3)
$LVL553 = .
	lbu	$3,1($3)
	sll	$3,$3,8
	or	$3,$4
	sw	$3,88($sp)
$LVL554 = .
	.loc 1 2526 0
	lw	$3,56($sp)
$LVL555 = .
	lbu	$4,2($3)
	lbu	$3,3($3)
	sll	$3,$3,8
	or	$3,$4
	sw	$3,104($sp)
$LVL556 = .
	.loc 1 2529 0
	lw	$3,60($sp)
$LVL557 = .
	cmpi	$3,6
	move	$4,$24
	li	$3,16383
	bnez	$4,$L437
	.loc 1 2537 0
	move	$4,$2
	and	$4,$3
	beqz	$4,$L438
	.loc 1 2538 0
	cmpi	$2,8192
	bteqz	$L438
$LVL558 = .
$L437:
	.loc 1 2586 0
	and	$3,$2
	beqz	$3,$L518
	.loc 1 2591 0
	cmpi	$2,8192
	bteqz	$L519
	.loc 1 2593 0
	li	$3,8192
	and	$3,$2
	bnez	$3,$L520
	.loc 1 2593 0 is_stmt 0 discriminator 1
	li	$3,8191
	and	$2,$3
$LVL559 = .
	neg	$2,$2
	.loc 1 2457 0 is_stmt 1 discriminator 1
	li	$3,0
	.loc 1 2593 0 discriminator 1
	srl	$2,$2,31
	sw	$2,108($sp)
	b	$L626
$LVL560 = .
$L519:
	.loc 1 2457 0
	li	$3,0
	sw	$3,108($sp)
	.loc 1 2592 0
	li	$3,1
	b	$L626
$L520:
	.loc 1 2457 0
	li	$3,0
	sw	$3,108($sp)
$LVL561 = .
$L626:
	.loc 1 2596 0
	lw	$7,60($sp)
	lw	$6,76($sp)
	lw	$5,72($sp)
	.loc 1 2457 0
	sw	$3,84($sp)
$LVL562 = .
	.loc 1 2596 0
	lbu	$2,5($16)
	lbu	$4,4($16)
	sll	$2,$2,8
	.set	noreorder
	.set	nomacro
	jal	find_fragEntry
	or	$4,$2
	.set	macro
	.set	reorder

$LVL563 = .
	sw	$2,92($sp)
$LVL564 = .
	.loc 1 2597 0
	beqz	$2,$L441
	.loc 1 2599 0
	lhu	$3,12($2)
	sw	$3,88($sp)
$LVL565 = .
	.loc 1 2600 0
	lhu	$3,14($2)
$LVL566 = .
	sw	$3,104($sp)
$LVL567 = .
	.loc 1 2602 0
	li	$3,0
$LVL568 = .
	sw	$3,80($sp)
	.loc 1 2601 0
	lw	$3,84($sp)
	beqz	$3,$L439
	b	$L648
$L441:
	.loc 1 2606 0
	lw	$3,84($sp)
	beqz	$3,$L451
$L648:
	li	$3,1
	sw	$3,84($sp)
$LVL569 = .
	b	$L627
$LVL570 = .
$L518:
	.loc 1 2459 0
	li	$3,0
	sw	$3,92($sp)
	.loc 1 2457 0
	sw	$3,108($sp)
	sw	$3,84($sp)
	.loc 1 2449 0
	li	$3,1
$LVL571 = .
$L627:
	sw	$3,80($sp)
$L439:
$LVL572 = .
	.loc 1 2616 0
	lw	$3,60($sp)
	lw	$4,72($sp)
	lw	$7,104($sp)
	lw	$6,76($sp)
	lw	$5,88($sp)
	.set	noreorder
	.set	nomacro
	jal	FastPath_Hash_PATH_Entry
	sw	$3,16($sp)
	.set	macro
	.set	reorder

$LVL573 = .
	.loc 1 2617 0
	lw	$3,$L657
	sll	$4,$2,2
	sll	$2,$2,4
$LVL574 = .
	lw	$3,0($3)
	subu	$2,$2,$4
	lw	$3,0($3)
	addu	$2,$3,$2
	lw	$3,0($2)
$LVL575 = .
	b	$L442
$L443:
	.loc 1 2617 0 is_stmt 0 discriminator 2
	lw	$3,60($3)
$LVL576 = .
$L442:
	.loc 1 2617 0 discriminator 1
	beqz	$3,$L655
	.loc 1 2619 0 is_stmt 1
	lw	$4,12($3)
	lw	$5,88($sp)
	cmp	$4,$5
	btnez	$L443
	.loc 1 2620 0
	lw	$6,8($3)
	lw	$7,104($sp)
	cmp	$6,$7
	btnez	$L443
	.loc 1 2621 0
	lw	$2,16($3)
	lw	$4,72($sp)
	cmp	$2,$4
	btnez	$L443
	.loc 1 2622 0
	lw	$5,20($3)
	lw	$6,76($sp)
	cmp	$5,$6
	btnez	$L443
	.loc 1 2623 0
	lbu	$2,0($3)
	cmpi	$2,255
	btnez	$L443
	.loc 1 2625 0
	lw	$2,4($3)
	.loc 1 2624 0
	cmpi	$2,2
	btnez	$L444
	.loc 1 2625 0
	lw	$7,60($sp)
	cmpi	$7,6
$L629:
	btnez	$L443
$LBB137 = .
	.loc 1 2677 0
	lbu	$2,9($16)
	move	$4,$sp
	.loc 1 2678 0
	lw	$5,64($sp)
	.loc 1 2677 0
	sh	$2,24($4)
	.loc 1 2678 0
	beqz	$5,$L446
	.loc 1 2679 0
	lw	$6,64($sp)
	addiu	$6,6
	sw	$6,40($sp)
$L446:
	.loc 1 2680 0
	lw	$7,32($3)
	.loc 1 2681 0
	move	$2,$sp
	lw	$4,36($3)
	.loc 1 2683 0
	lw	$6,88($sp)
	.loc 1 2682 0
	lw	$5,72($sp)
	.loc 1 2680 0
	sw	$7,36($sp)
	.loc 1 2681 0
	sh	$4,28($2)
	.loc 1 2685 0
	move	$4,$3
	.loc 1 2683 0
	sh	$6,26($2)
	.loc 1 2685 0
	lw	$7,100($sp)
	lw	$6,60($sp)
	.loc 1 2682 0
	sw	$5,32($sp)
	.loc 1 2685 0
	addiu	$5,$sp,24
	lh	$2,54($7)
	move	$7,$17
	sw	$3,132($sp)
	.set	noreorder
	.set	nomacro
	jal	rtk_addNaptQosRuleEntry
	sw	$2,16($sp)
	.set	macro
	.set	reorder

$LVL577 = .
	.loc 1 2686 0
	lw	$3,132($sp)
	beqz	$2,$L448
$LVL578 = .
$L451:
	.loc 1 2687 0
	li	$2,0
	.set	noat
	move	$1,$2
	.set	at
	lw	$2,$L658
	.set	noat
	.set	noreorder
	.set	nomacro
	jr	$2
	move	$2,$1
	.set	macro
	.set	reorder
	.set	at
	.align	2
$L658:
	.word	$L589
$LVL579 = .
$L444:
$LBE137 = .
	.loc 1 2626 0
	cmpi	$2,1
	btnez	$L443
	.loc 1 2626 0 is_stmt 0 discriminator 1
	lw	$6,60($sp)
	cmpi	$6,17
	b	$L629
$LVL580 = .
$L448:
$LBB175 = .
	.loc 1 2692 0 is_stmt 1
	lbu	$2,13($16)
$LVL581 = .
	lbu	$6,12($16)
	lbu	$5,15($16)
	sll	$2,$2,8
	.loc 1 2689 0
	lw	$17,32($3)
$LVL582 = .
	.loc 1 2692 0
	move	$4,$2
	lbu	$2,14($16)
	or	$4,$6
	lbu	$6,1($16)
	sll	$5,$5,24
	sw	$3,132($sp)
	sll	$2,$2,8
	sll	$2,$2,8
	or	$2,$4
	or	$5,$2
$LVL583 = .
	.set	noreorder
	.set	nomacro
	jal	rtl_ipflow_lookup
	move	$4,$17
	.set	macro
	.set	reorder

$LVL584 = .
	lw	$3,132($sp)
	sw	$2,64($sp)
$LVL585 = .
	bnez	$2,$L450
	.loc 1 2693 0
	.set	noreorder
	.set	nomacro
	jal	rtl_rtalloc
	move	$4,$17
	.set	macro
	.set	reorder

$LVL586 = .
	.loc 1 2694 0
	lw	$3,132($sp)
	.loc 1 2693 0
	sw	$2,96($sp)
$LVL587 = .
	.loc 1 2694 0
	beqz	$2,$L451
	.loc 1 2694 0 is_stmt 0 discriminator 1
	lw	$2,0($2)
$LVL588 = .
	sw	$2,68($sp)
$LVL589 = .
	bnez	$2,$L452
	b	$L451
$LVL590 = .
$L450:
	.loc 1 2697 0 is_stmt 1
	lw	$4,64($sp)
	lw	$4,24($4)
	sw	$4,68($sp)
$LVL591 = .
$L452:
	.loc 1 2701 0
	lw	$5,68($sp)
	li	$2,1
	lw	$5,56($5)
	and	$2,$5
	beqz	$2,$L451
	.loc 1 2701 0 is_stmt 0 discriminator 1
	lw	$6,68($sp)
	li	$2,1
	lw	$17,60($6)
$LVL592 = .
	lhu	$4,58($17)
	and	$2,$4
	beqz	$2,$L451
	.loc 1 2701 0 discriminator 2
	lw	$4,4($17)
	li	$6,2
	lw	$5,$L656
	.set	noreorder
	.set	nomacro
	jal	memcmp
	sw	$3,132($sp)
	.set	macro
	.set	reorder

$LVL593 = .
	lw	$3,132($sp)
	beqz	$2,$L451
	.loc 1 2701 0 discriminator 3
	lw	$7,156($sp)
	lw	$4,80($17)
	lw	$2,12($7)
	sltu	$4,$2
	btnez	$L451
	.loc 1 2705 0 is_stmt 1
	lw	$2,60($sp)
	cmpi	$2,6
	btnez	$L453
	.loc 1 2708 0
	lw	$17,56($sp)
	addiu	$17,16
$LVL594 = .
	b	$L454
$LVL595 = .
$L453:
	.loc 1 2714 0
	lw	$5,56($sp)
	.loc 1 2717 0
	li	$17,0
	.loc 1 2714 0
	lbu	$2,7($5)
	lbu	$4,6($5)
	sll	$2,$2,8
	or	$2,$4
	beqz	$2,$L454
	.loc 1 2715 0
	move	$17,$5
	addiu	$17,6
$LVL596 = .
$L454:
	.loc 1 2724 0
	lw	$6,84($sp)
	beqz	$6,$L455
	.loc 1 2726 0
	lw	$7,60($sp)
	lw	$5,104($sp)
	lbu	$2,5($16)
	lbu	$4,4($16)
	lw	$6,88($sp)
	sll	$2,$2,8
	sw	$7,20($sp)
	sw	$5,16($sp)
	sw	$3,132($sp)
	or	$4,$2
	lw	$7,76($sp)
	.set	noreorder
	.set	nomacro
	jal	add_fragEntry
	lw	$5,72($sp)
	.set	macro
	.set	reorder

$LVL597 = .
	lw	$3,132($sp)
	bnez	$2,$L456
	b	$L451
$L455:
	.loc 1 2734 0
	lw	$6,108($sp)
	beqz	$6,$L456
$LVL598 = .
$LBB138 = .
$LBB139 = .
	.loc 1 408 0
	lw	$4,92($sp)
	.set	noreorder
	.set	nomacro
	jal	free_fragEntry
	sw	$3,132($sp)
	.set	macro
	.set	reorder

$LVL599 = .
	lw	$3,132($sp)
$LVL600 = .
$L456:
$LBE139 = .
$LBE138 = .
	.loc 1 2759 0
	lbu	$7,1($3)
	sltu	$7,4
	bteqz	$L459
	sltu	$7,2
	bteqz	$L460
	beqz	$7,$L461
	cmpi	$7,1
	bteqz	$L462
	b	$L458
$L459:
	lw	$2,76($sp)
	cmpi	$7,8
	lw	$6,32($3)
	li	$4,65535
	srl	$5,$2,8
	move	$2,$24
	srl	$5,$5,8
	beqz	$2,$L463
	cmpi	$7,12
	bteqz	$L463
	cmpi	$7,4
	bteqz	$L464
	b	$L458
$L462:
$LVL601 = .
$LBB140 = .
	.loc 1 2764 0
	lw	$6,24($3)
$LVL602 = .
	li	$4,65535
	lw	$2,72($sp)
	move	$5,$4
	srl	$7,$6,8
	move	$25,$4
	srl	$7,$7,8
	and	$5,$6
	addu	$4,$7,$5
	move	$5,$25
	and	$2,$5
	subu	$2,$2,$4
	move	$31,$2
	lw	$2,72($sp)
	srl	$5,$2,8
	move	$2,$31
	srl	$5,$5,8
	addu	$2,$2,$5
	lbu	$5,11($16)
	move	$31,$2
$LVL603 = .
	lbu	$2,10($16)
$LVL604 = .
	sll	$5,$5,8
	or	$2,$5
	move	$5,$31
	addu	$2,$5,$2
$LVL605 = .
	slt	$2,0
	bteqz	$L465
	.loc 1 2764 0 is_stmt 0 discriminator 1
	neg	$2,$2
$LVL606 = .
	sra	$5,$2,8
	sra	$5,$5,8
	move	$24,$5
	move	$5,$25
	and	$2,$5
$LVL607 = .
	move	$5,$24
	addu	$2,$5,$2
$LVL608 = .
	sra	$5,$2,8
	sra	$5,$5,8
$LVL609 = .
	addu	$2,$2,$5
$LVL610 = .
	not	$2,$2
$LVL611 = .
	b	$L630
$LVL612 = .
$L465:
	.loc 1 2764 0 discriminator 2
	sra	$5,$2,8
	sra	$5,$5,8
	move	$24,$5
	move	$5,$25
	and	$2,$5
$LVL613 = .
	move	$5,$24
	addu	$2,$5,$2
$LVL614 = .
	sra	$5,$2,8
	sra	$5,$5,8
$LVL615 = .
	addu	$2,$2,$5
$LVL616 = .
$L630:
	zeh	$2
	sb	$2,10($16)
	srl	$2,$2,8
	sb	$2,11($16)
$LBE140 = .
	.loc 1 2765 0 is_stmt 1 discriminator 2
	lw	$2,80($sp)
	beqz	$2,$L467
	.loc 1 2767 0
	lw	$5,60($sp)
	cmpi	$5,17
	btnez	$L468
	.loc 1 2769 0
	beqz	$17,$L467
	.loc 1 2769 0 is_stmt 0 discriminator 1
	lhu	$2,0($17)
	move	$24,$2
	bteqz	$L467
$LVL617 = .
$LBB141 = .
	.loc 1 2772 0 is_stmt 1
	lbu	$2,13($16)
	lbu	$5,12($16)
	sll	$2,$2,8
	or	$2,$5
	lbu	$5,14($16)
	sll	$5,$5,8
	sll	$5,$5,8
	or	$2,$5
	lbu	$5,15($16)
	sll	$5,$5,24
	or	$5,$2
$LVL618 = .
	li	$2,65535
	move	$25,$2
	and	$2,$5
	srl	$5,$5,8
$LVL619 = .
	subu	$2,$2,$4
	srl	$5,$5,8
	addu	$5,$2,$5
$LVL620 = .
	move	$2,$24
	addu	$4,$5,$2
$LVL621 = .
	slt	$4,0
	bteqz	$L469
	.loc 1 2772 0 is_stmt 0 discriminator 1
	neg	$4,$4
$LVL622 = .
	move	$5,$25
	sra	$2,$4,8
	and	$4,$5
$LVL623 = .
	sra	$2,$2,8
	addu	$4,$2,$4
$LVL624 = .
	sra	$2,$4,8
	sra	$2,$2,8
$LVL625 = .
	addu	$4,$4,$2
$LVL626 = .
	not	$4,$4
$LVL627 = .
	b	$L631
$LVL628 = .
$L469:
	.loc 1 2772 0 discriminator 2
	sra	$2,$4,8
	move	$5,$25
	sra	$2,$2,8
	and	$4,$5
$LVL629 = .
	addu	$4,$2,$4
$LVL630 = .
	sra	$2,$4,8
	sra	$2,$2,8
$LVL631 = .
	addu	$4,$4,$2
$LVL632 = .
$L631:
	sh	$4,0($17)
	b	$L467
$L468:
$LVL633 = .
$LBE141 = .
$LBB142 = .
	.loc 1 2777 0 is_stmt 1
	lbu	$5,13($16)
	lbu	$2,12($16)
	sll	$5,$5,8
	or	$5,$2
	lbu	$2,14($16)
	sll	$2,$2,8
	sll	$2,$2,8
	or	$5,$2
	lbu	$2,15($16)
	sll	$2,$2,24
	or	$2,$5
$LVL634 = .
	li	$5,65535
	move	$25,$5
	and	$5,$2
	srl	$2,$2,8
$LVL635 = .
	subu	$5,$5,$4
	srl	$2,$2,8
	addu	$4,$5,$2
$LVL636 = .
	lhu	$2,0($17)
	addu	$2,$4,$2
$LVL637 = .
	slt	$2,0
	bteqz	$L470
	.loc 1 2777 0 is_stmt 0 discriminator 1
	neg	$2,$2
$LVL638 = .
	move	$5,$25
	sra	$4,$2,8
	and	$2,$5
$LVL639 = .
	sra	$4,$4,8
	addu	$2,$4,$2
$LVL640 = .
	sra	$4,$2,8
	sra	$4,$4,8
$LVL641 = .
	addu	$2,$2,$4
$LVL642 = .
	not	$2,$2
$LVL643 = .
	b	$L632
$LVL644 = .
$L470:
	.loc 1 2777 0 discriminator 2
	sra	$4,$2,8
	move	$5,$25
	sra	$4,$4,8
	and	$2,$5
$LVL645 = .
	addu	$2,$4,$2
$LVL646 = .
	sra	$4,$2,8
	sra	$4,$4,8
$LVL647 = .
	addu	$2,$2,$4
$LVL648 = .
$L632:
	sh	$2,0($17)
$L467:
$LBE142 = .
	.loc 1 2784 0 is_stmt 1
	srl	$2,$6,8
	sb	$6,12($16)
	srl	$6,$6,24
	sb	$7,14($16)
	sb	$2,13($16)
	sb	$6,15($16)
	.loc 1 2785 0
	b	$L461
$L460:
$LVL649 = .
$LBB143 = .
	.loc 1 2789 0
	lw	$5,24($3)
$LVL650 = .
	li	$7,65535
	move	$2,$7
	srl	$6,$5,8
	and	$2,$5
	srl	$6,$6,8
	move	$25,$7
	addu	$4,$6,$2
	lw	$2,72($sp)
	move	$31,$6
	and	$2,$7
	subu	$6,$2,$4
	lw	$2,72($sp)
	srl	$7,$2,8
	lbu	$2,10($16)
	srl	$7,$7,8
	addu	$6,$6,$7
$LVL651 = .
	lbu	$7,11($16)
	sll	$7,$7,8
	or	$2,$7
	addu	$2,$6,$2
$LVL652 = .
	slt	$2,0
	bteqz	$L471
	.loc 1 2789 0 is_stmt 0 discriminator 1
	neg	$2,$2
$LVL653 = .
	move	$7,$25
	sra	$6,$2,8
	and	$2,$7
$LVL654 = .
	sra	$6,$6,8
	addu	$2,$6,$2
$LVL655 = .
	sra	$7,$2,8
	sra	$7,$7,8
$LVL656 = .
	addu	$7,$2,$7
$LVL657 = .
	not	$7,$7
$LVL658 = .
	zeh	$7
$LVL659 = .
	sb	$7,10($16)
	srl	$7,$7,8
	sb	$7,11($16)
	b	$L472
$LVL660 = .
$L471:
	.loc 1 2789 0 discriminator 2
	sra	$6,$2,8
	move	$7,$25
	sra	$6,$6,8
	and	$2,$7
$LVL661 = .
	addu	$2,$6,$2
$LVL662 = .
	sra	$7,$2,8
	sra	$7,$7,8
$LVL663 = .
	addu	$2,$2,$7
$LVL664 = .
	zeh	$2
$LVL665 = .
	sb	$2,10($16)
$LVL666 = .
	srl	$2,$2,8
	sb	$2,11($16)
$L472:
$LBE143 = .
	.loc 1 2790 0 is_stmt 1
	lw	$2,80($sp)
	beqz	$2,$L473
	.loc 1 2792 0
	lw	$6,60($sp)
	cmpi	$6,17
	btnez	$L474
	.loc 1 2795 0
	beqz	$17,$L475
	.loc 1 2795 0 is_stmt 0 discriminator 1
	lhu	$7,0($17)
	move	$24,$7
	bteqz	$L475
$LVL667 = .
$LBB144 = .
	.loc 1 2798 0 is_stmt 1
	lbu	$7,13($16)
	lbu	$2,12($16)
	sll	$7,$7,8
	or	$7,$2
	lbu	$2,14($16)
	sll	$2,$2,8
	sll	$2,$2,8
	or	$7,$2
	lbu	$2,15($16)
	sll	$2,$2,24
	or	$2,$7
$LVL668 = .
	li	$7,65535
	move	$6,$2
	and	$6,$7
	subu	$4,$6,$4
	lw	$6,56($sp)
	srl	$2,$2,8
$LVL669 = .
	srl	$2,$2,8
	addu	$2,$4,$2
$LVL670 = .
	lbu	$4,0($6)
	lbu	$6,1($6)
$LVL671 = .
	sll	$6,$6,8
	or	$4,$6
	addu	$4,$2,$4
	lw	$2,28($3)
$LVL672 = .
	move	$6,$24
	subu	$4,$4,$2
$LVL673 = .
	addu	$2,$4,$6
$LVL674 = .
	b	$L652
$LVL675 = .
$L474:
$LBE144 = .
$LBB145 = .
	.loc 1 2803 0
	lbu	$7,13($16)
	lbu	$2,12($16)
	sll	$7,$7,8
	or	$2,$7
	lbu	$7,14($16)
	sll	$7,$7,8
	sll	$7,$7,8
	or	$7,$2
	lbu	$2,15($16)
	sll	$2,$2,24
	or	$2,$7
	li	$7,65535
	move	$24,$2
$LVL676 = .
	move	$6,$24
	and	$2,$7
$LVL677 = .
	subu	$2,$2,$4
	srl	$4,$6,8
	lw	$6,56($sp)
$LVL678 = .
	srl	$4,$4,8
	addu	$2,$2,$4
$LVL679 = .
	lbu	$4,0($6)
	lbu	$6,1($6)
$LVL680 = .
	sll	$6,$6,8
	or	$4,$6
	addu	$4,$2,$4
	lw	$2,28($3)
$LVL681 = .
	subu	$4,$4,$2
$LVL682 = .
	lhu	$2,0($17)
	addu	$2,$4,$2
$LVL683 = .
$L652:
	slt	$2,0
	bteqz	$L477
	.loc 1 2803 0 is_stmt 0 discriminator 1
	neg	$2,$2
$LVL684 = .
	sra	$4,$2,8
	and	$2,$7
$LVL685 = .
	sra	$4,$4,8
	addu	$2,$4,$2
$LVL686 = .
	sra	$4,$2,8
	sra	$4,$4,8
$LVL687 = .
	addu	$2,$2,$4
$LVL688 = .
	not	$2,$2
$LVL689 = .
	b	$L633
$LVL690 = .
$L477:
	.loc 1 2803 0 discriminator 2
	sra	$4,$2,8
	and	$2,$7
$LVL691 = .
	sra	$4,$4,8
	addu	$2,$4,$2
$LVL692 = .
	sra	$7,$2,8
	sra	$7,$7,8
$LVL693 = .
	addu	$2,$2,$7
$LVL694 = .
$L633:
	sh	$2,0($17)
$L475:
$LBE145 = .
	.loc 1 2809 0 is_stmt 1
	lhu	$2,28($3)
	lw	$4,56($sp)
	sb	$2,0($4)
	srl	$2,$2,8
	sb	$2,1($4)
$L473:
	.loc 1 2811 0
	srl	$2,$5,8
	sb	$5,12($16)
	srl	$5,$5,24
	move	$6,$31
	sb	$2,13($16)
	sb	$6,14($16)
	sb	$5,15($16)
	.loc 1 2812 0
	b	$L461
$L464:
$LVL695 = .
$LBB146 = .
	.loc 1 2819 0
	srl	$7,$6,8
	srl	$7,$7,8
	move	$25,$7
	move	$7,$6
	move	$2,$25
	and	$7,$4
	addu	$7,$7,$2
	lbu	$2,10($16)
	subu	$5,$5,$7
	lw	$7,76($sp)
	and	$7,$4
	addu	$5,$5,$7
$LVL696 = .
	lbu	$7,11($16)
	sll	$7,$7,8
	or	$2,$7
	addu	$7,$5,$2
$LVL697 = .
	slt	$7,0
	bteqz	$L478
	.loc 1 2819 0 is_stmt 0 discriminator 1
	neg	$7,$7
$LVL698 = .
	sra	$2,$7,8
	and	$7,$4
$LVL699 = .
	sra	$2,$2,8
	addu	$7,$2,$7
$LVL700 = .
	sra	$4,$7,8
	sra	$4,$4,8
$LVL701 = .
	addu	$7,$7,$4
$LVL702 = .
	not	$7,$7
$LVL703 = .
	b	$L634
$LVL704 = .
$L478:
	.loc 1 2819 0 discriminator 2
	sra	$2,$7,8
	and	$7,$4
$LVL705 = .
	sra	$2,$2,8
	addu	$7,$2,$7
$LVL706 = .
	sra	$4,$7,8
	sra	$4,$4,8
$LVL707 = .
	addu	$7,$7,$4
$LVL708 = .
$L634:
	zeh	$7
$LBE146 = .
	.loc 1 2820 0 is_stmt 1 discriminator 2
	lw	$4,80($sp)
$LBB147 = .
	.loc 1 2819 0 discriminator 2
	sb	$7,10($16)
	srl	$7,$7,8
	sb	$7,11($16)
$LBE147 = .
	.loc 1 2820 0 discriminator 2
	beqz	$4,$L480
	.loc 1 2822 0
	lw	$7,60($sp)
	cmpi	$7,17
	btnez	$L481
	.loc 1 2825 0
	beqz	$17,$L480
	.loc 1 2825 0 is_stmt 0 discriminator 1
	lhu	$4,0($17)
	beqz	$4,$L480
	b	$L654
$L481:
$LVL709 = .
$LBB148 = .
	.loc 1 2833 0 is_stmt 1
	lhu	$4,0($17)
$LVL710 = .
$L654:
	addu	$5,$5,$4
$LVL711 = .
	li	$7,65535
	slt	$5,0
	bteqz	$L483
	.loc 1 2833 0 is_stmt 0 discriminator 1
	neg	$5,$5
$LVL712 = .
	sra	$4,$5,8
	and	$5,$7
$LVL713 = .
	sra	$4,$4,8
	addu	$5,$4,$5
$LVL714 = .
	sra	$4,$5,8
	sra	$4,$4,8
$LVL715 = .
	addu	$5,$5,$4
$LVL716 = .
	not	$5,$5
$LVL717 = .
	b	$L635
$LVL718 = .
$L483:
	.loc 1 2833 0 discriminator 2
	sra	$4,$5,8
	and	$5,$7
$LVL719 = .
	sra	$4,$4,8
	addu	$5,$4,$5
$LVL720 = .
	sra	$4,$5,8
	sra	$4,$4,8
$LVL721 = .
	addu	$5,$5,$4
$LVL722 = .
$L635:
	sh	$5,0($17)
$L480:
$LBE148 = .
	.loc 1 2836 0 is_stmt 1
	srl	$4,$6,8
	sb	$6,16($16)
	move	$2,$25
	sb	$4,17($16)
	sb	$2,18($16)
	b	$L645
$L463:
$LVL723 = .
$LBB149 = .
	.loc 1 2845 0
	li	$7,65535
	move	$2,$6
	move	$25,$7
	srl	$7,$6,8
	and	$2,$4
	srl	$7,$7,8
	addu	$2,$2,$7
	move	$31,$7
	lbu	$7,11($16)
	subu	$5,$5,$2
	lw	$2,76($sp)
	sll	$7,$7,8
	and	$4,$2
	addu	$4,$5,$4
$LVL724 = .
	lbu	$5,10($16)
	or	$5,$7
	addu	$5,$4,$5
$LVL725 = .
	slt	$5,0
	bteqz	$L484
	.loc 1 2845 0 is_stmt 0 discriminator 1
	neg	$5,$5
$LVL726 = .
	move	$2,$25
	move	$24,$5
$LVL727 = .
	sra	$5,$5,8
$LVL728 = .
	move	$7,$24
	sra	$5,$5,8
	and	$2,$7
	addu	$2,$5,$2
$LVL729 = .
	sra	$5,$2,8
	sra	$5,$5,8
$LVL730 = .
	addu	$2,$2,$5
$LVL731 = .
	not	$2,$2
$LVL732 = .
	b	$L636
$LVL733 = .
$L484:
	.loc 1 2845 0 discriminator 2
	sra	$2,$5,8
	sra	$2,$2,8
	move	$24,$2
	move	$2,$25
	and	$2,$5
	move	$5,$24
$LVL734 = .
	addu	$2,$5,$2
$LVL735 = .
	sra	$5,$2,8
	sra	$5,$5,8
$LVL736 = .
	addu	$2,$2,$5
$LVL737 = .
$L636:
	zeh	$2
$LBE149 = .
	.loc 1 2846 0 is_stmt 1 discriminator 2
	lw	$7,80($sp)
$LBB150 = .
	.loc 1 2845 0 discriminator 2
	sb	$2,10($16)
	srl	$2,$2,8
	sb	$2,11($16)
$LBE150 = .
	.loc 1 2846 0 discriminator 2
	beqz	$7,$L486
	.loc 1 2848 0
	lw	$2,60($sp)
	cmpi	$2,17
	lw	$2,36($3)
	btnez	$L487
	.loc 1 2851 0
	beqz	$17,$L488
	.loc 1 2851 0 is_stmt 0 discriminator 1
	lhu	$5,0($17)
	move	$24,$5
	bteqz	$L488
$LVL738 = .
$LBB151 = .
	.loc 1 2854 0 is_stmt 1
	lw	$7,56($sp)
	lbu	$5,2($7)
	lbu	$7,3($7)
	sll	$7,$7,8
	or	$5,$7
	addu	$5,$4,$5
	subu	$4,$5,$2
$LVL739 = .
	move	$2,$24
	addu	$4,$4,$2
$LVL740 = .
	li	$5,65535
	slt	$4,0
	move	$25,$5
	bteqz	$L489
	.loc 1 2854 0 is_stmt 0 discriminator 1
	neg	$4,$4
$LVL741 = .
	sra	$2,$4,8
	and	$4,$5
$LVL742 = .
	sra	$2,$2,8
	addu	$4,$2,$4
$LVL743 = .
	sra	$2,$4,8
	sra	$2,$2,8
$LVL744 = .
	addu	$4,$4,$2
$LVL745 = .
	not	$4,$4
$LVL746 = .
	b	$L637
$LVL747 = .
$L489:
	.loc 1 2854 0 discriminator 2
	sra	$5,$4,8
	move	$7,$25
	sra	$5,$5,8
	and	$4,$7
$LVL748 = .
	addu	$4,$5,$4
$LVL749 = .
	sra	$2,$4,8
	sra	$2,$2,8
$LVL750 = .
	addu	$4,$4,$2
$LVL751 = .
$L637:
	sh	$4,0($17)
	b	$L488
$L487:
$LVL752 = .
$LBE151 = .
$LBB152 = .
	.loc 1 2859 0 is_stmt 1
	lw	$7,56($sp)
	lbu	$5,2($7)
	lbu	$7,3($7)
	sll	$7,$7,8
	or	$5,$7
	addu	$4,$4,$5
$LVL753 = .
	li	$5,65535
	subu	$4,$4,$2
$LVL754 = .
	lhu	$2,0($17)
	addu	$2,$4,$2
$LVL755 = .
	slt	$2,0
	bteqz	$L490
	.loc 1 2859 0 is_stmt 0 discriminator 1
	neg	$2,$2
$LVL756 = .
	sra	$4,$2,8
	and	$2,$5
$LVL757 = .
	sra	$4,$4,8
	addu	$2,$4,$2
$LVL758 = .
	sra	$4,$2,8
	sra	$4,$4,8
$LVL759 = .
	addu	$2,$2,$4
$LVL760 = .
	not	$2,$2
$LVL761 = .
	b	$L638
$LVL762 = .
$L490:
	.loc 1 2859 0 discriminator 2
	sra	$4,$2,8
	and	$2,$5
$LVL763 = .
	sra	$4,$4,8
	addu	$2,$4,$2
$LVL764 = .
	sra	$4,$2,8
	sra	$4,$4,8
$LVL765 = .
	addu	$2,$2,$4
$LVL766 = .
$L638:
	sh	$2,0($17)
$L488:
$LBE152 = .
	.loc 1 2861 0 is_stmt 1
	lhu	$2,36($3)
	lw	$4,56($sp)
	sb	$2,2($4)
	srl	$2,$2,8
	sb	$2,3($4)
$L486:
	.loc 1 2863 0
	srl	$2,$6,8
	sb	$6,16($16)
	move	$5,$31
	sb	$2,17($16)
	sb	$5,18($16)
$L645:
	srl	$6,$6,24
	sb	$6,19($16)
	.loc 1 2864 0
	b	$L461
$L458:
$LVL767 = .
$LBB153 = .
	.loc 1 2867 0
	lw	$6,24($3)
$LVL768 = .
	li	$2,65535
	lw	$7,72($sp)
	move	$25,$2
	srl	$5,$6,8
	srl	$4,$7,8
	srl	$5,$5,8
	and	$2,$6
	srl	$4,$4,8
	addu	$2,$2,$5
	sw	$5,84($sp)
$LVL769 = .
	lbu	$5,11($16)
	subu	$2,$4,$2
	move	$4,$7
	move	$7,$25
	and	$4,$7
	addu	$2,$2,$4
$LVL770 = .
	lbu	$4,10($16)
	sll	$5,$5,8
	or	$5,$4
	addu	$5,$2,$5
$LVL771 = .
	slt	$5,0
	bteqz	$L491
	.loc 1 2867 0 is_stmt 0 discriminator 1
	neg	$4,$5
$LVL772 = .
	move	$5,$25
	sra	$7,$4,8
	and	$4,$5
$LVL773 = .
	sra	$7,$7,8
	addu	$4,$7,$4
$LVL774 = .
	sra	$5,$4,8
	sra	$5,$5,8
$LVL775 = .
	addu	$4,$4,$5
$LVL776 = .
	not	$4,$4
$LVL777 = .
	b	$L639
$LVL778 = .
$L491:
	.loc 1 2867 0 discriminator 2
	sra	$7,$5,8
	move	$4,$25
	sra	$7,$7,8
	and	$5,$4
$LVL779 = .
	addu	$4,$7,$5
$LVL780 = .
	sra	$5,$4,8
	sra	$5,$5,8
$LVL781 = .
	addu	$4,$4,$5
$LVL782 = .
$L639:
$LBE153 = .
$LBB154 = .
	.loc 1 2868 0 is_stmt 1 discriminator 2
	lw	$7,76($sp)
$LBE154 = .
$LBB155 = .
	.loc 1 2867 0 discriminator 2
	zeh	$4
$LBE155 = .
$LBB156 = .
	.loc 1 2868 0 discriminator 2
	lw	$5,32($3)
$LBE156 = .
$LBB157 = .
	.loc 1 2867 0 discriminator 2
	sb	$4,10($16)
	srl	$4,$4,8
$LBE157 = .
$LBB158 = .
	.loc 1 2868 0 discriminator 2
	srl	$7,$7,8
	srl	$7,$7,8
$LBE158 = .
$LBB159 = .
	.loc 1 2867 0 discriminator 2
	sb	$4,11($16)
$LVL783 = .
$LBE159 = .
$LBB160 = .
	.loc 1 2868 0 discriminator 2
	li	$4,65535
	sw	$7,72($sp)
$LVL784 = .
	move	$31,$4
	move	$7,$4
	srl	$4,$5,8
	and	$7,$5
	srl	$4,$4,8
	addu	$7,$7,$4
	lw	$4,72($sp)
	subu	$4,$4,$7
	lw	$7,76($sp)
	move	$25,$4
	move	$4,$31
	and	$7,$4
	move	$4,$25
	addu	$4,$4,$7
	sw	$4,72($sp)
$LVL785 = .
	lbu	$4,11($16)
$LVL786 = .
	lbu	$7,10($16)
	sll	$4,$4,8
	or	$4,$7
	lw	$7,72($sp)
	addu	$7,$7,$4
	slt	$7,0
	move	$25,$7
$LVL787 = .
	bteqz	$L493
	.loc 1 2868 0 is_stmt 0 discriminator 1
	neg	$7,$7
$LVL788 = .
	move	$25,$7
$LVL789 = .
	sra	$7,$7,8
$LVL790 = .
	move	$4,$25
	sra	$7,$7,8
	move	$24,$7
	move	$7,$31
	and	$4,$7
	move	$7,$24
	addu	$7,$7,$4
	move	$24,$7
$LVL791 = .
	sra	$7,$7,8
$LVL792 = .
	move	$4,$24
	sra	$7,$7,8
$LVL793 = .
	addu	$4,$4,$7
	not	$4,$4
	b	$L640
$LVL794 = .
$L493:
	.loc 1 2868 0 discriminator 2
	sra	$7,$7,8
$LVL795 = .
	move	$4,$25
	sra	$7,$7,8
	move	$24,$7
	move	$7,$31
	and	$4,$7
	move	$7,$24
	addu	$7,$7,$4
	move	$24,$7
$LVL796 = .
	sra	$7,$7,8
$LVL797 = .
	move	$4,$24
	sra	$7,$7,8
$LVL798 = .
	addu	$4,$4,$7
$LVL799 = .
$L640:
	move	$7,$4
	zeh	$7
	srl	$4,$7,8
	sb	$7,10($16)
$LBE160 = .
	.loc 1 2870 0 is_stmt 1 discriminator 2
	lw	$7,80($sp)
$LBB161 = .
	.loc 1 2868 0 discriminator 2
	sb	$4,11($16)
$LBE161 = .
	.loc 1 2870 0 discriminator 2
	beqz	$7,$L495
	.loc 1 2872 0
	lw	$4,60($sp)
	cmpi	$4,17
	btnez	$L496
	.loc 1 2875 0
	beqz	$17,$L497
	.loc 1 2875 0 is_stmt 0 discriminator 1
	lhu	$7,0($17)
	move	$24,$7
	bteqz	$L497
$LVL800 = .
$LBB162 = .
	.loc 1 2878 0 is_stmt 1
	lw	$7,56($sp)
	lw	$4,56($sp)
	lbu	$7,1($7)
	lbu	$4,0($4)
	sll	$7,$7,8
	or	$7,$4
	lw	$4,28($3)
	addu	$2,$2,$7
$LVL801 = .
	move	$7,$24
	subu	$2,$2,$4
$LVL802 = .
	li	$4,65535
	addu	$2,$2,$7
$LVL803 = .
	slt	$2,0
	bteqz	$L498
	.loc 1 2878 0 is_stmt 0 discriminator 1
	neg	$2,$2
$LVL804 = .
	move	$24,$2
$LVL805 = .
	sra	$2,$2,8
$LVL806 = .
	move	$7,$24
	sra	$2,$2,8
	and	$7,$4
	addu	$2,$2,$7
$LVL807 = .
	sra	$4,$2,8
	sra	$4,$4,8
$LVL808 = .
	addu	$2,$2,$4
$LVL809 = .
	not	$2,$2
	b	$L641
$LVL810 = .
$L498:
	.loc 1 2878 0 discriminator 2
	sra	$7,$2,8
	and	$2,$4
$LVL811 = .
	sra	$7,$7,8
	addu	$2,$7,$2
$LVL812 = .
	sra	$7,$2,8
	sra	$7,$7,8
$LVL813 = .
	addu	$2,$2,$7
$L641:
$LBE162 = .
$LBB163 = .
	.loc 1 2879 0 is_stmt 1 discriminator 2
	lw	$4,56($sp)
$LBE163 = .
$LBB164 = .
	.loc 1 2878 0 discriminator 2
	sh	$2,0($17)
$LVL814 = .
$LBE164 = .
$LBB165 = .
	.loc 1 2879 0 discriminator 2
	lbu	$7,3($4)
	lbu	$2,2($4)
	sll	$7,$7,8
	or	$2,$7
	lw	$7,72($sp)
	addu	$4,$7,$2
$LVL815 = .
	lw	$2,36($3)
	li	$7,65535
	subu	$4,$4,$2
$LVL816 = .
	lhu	$2,0($17)
	addu	$4,$4,$2
$LVL817 = .
	slt	$4,0
	bteqz	$L500
	.loc 1 2879 0 is_stmt 0 discriminator 1
	neg	$4,$4
$LVL818 = .
	sra	$2,$4,8
	and	$4,$7
$LVL819 = .
	sra	$2,$2,8
	addu	$4,$2,$4
$LVL820 = .
	sra	$2,$4,8
	sra	$2,$2,8
$LVL821 = .
	addu	$4,$4,$2
$LVL822 = .
	not	$4,$4
$LVL823 = .
	b	$L643
$LVL824 = .
$L500:
	.loc 1 2879 0 discriminator 2
	sra	$2,$4,8
	and	$4,$7
$LVL825 = .
	sra	$2,$2,8
	addu	$4,$2,$4
$LVL826 = .
	sra	$2,$4,8
	sra	$2,$2,8
$LVL827 = .
	addu	$4,$4,$2
$LVL828 = .
$L643:
	sh	$4,0($17)
	b	$L497
$L496:
$LVL829 = .
$LBE165 = .
$LBB166 = .
	.loc 1 2884 0 is_stmt 1
	lw	$7,56($sp)
	lw	$4,56($sp)
	lbu	$7,1($7)
	lbu	$4,0($4)
	sll	$7,$7,8
	or	$7,$4
	lw	$4,28($3)
	addu	$2,$2,$7
$LVL830 = .
	lhu	$7,0($17)
	subu	$2,$2,$4
$LVL831 = .
	li	$4,65535
	addu	$2,$2,$7
$LVL832 = .
	slt	$2,0
	bteqz	$L501
	.loc 1 2884 0 is_stmt 0 discriminator 1
	neg	$2,$2
$LVL833 = .
	move	$24,$2
$LVL834 = .
	sra	$2,$2,8
$LVL835 = .
	move	$7,$24
	sra	$2,$2,8
	and	$7,$4
	addu	$2,$2,$7
$LVL836 = .
	sra	$4,$2,8
	sra	$4,$4,8
$LVL837 = .
	addu	$2,$2,$4
$LVL838 = .
	not	$2,$2
	b	$L642
$LVL839 = .
$L501:
	.loc 1 2884 0 discriminator 2
	sra	$7,$2,8
	and	$2,$4
$LVL840 = .
	sra	$7,$7,8
	addu	$2,$7,$2
$LVL841 = .
	sra	$7,$2,8
	sra	$7,$7,8
$LVL842 = .
	addu	$2,$2,$7
$L642:
$LBE166 = .
$LBB167 = .
	.loc 1 2885 0 is_stmt 1 discriminator 2
	lw	$4,56($sp)
$LBE167 = .
$LBB168 = .
	.loc 1 2884 0 discriminator 2
	sh	$2,0($17)
$LVL843 = .
$LBE168 = .
$LBB169 = .
	.loc 1 2885 0 discriminator 2
	lbu	$7,3($4)
	lbu	$2,2($4)
	sll	$7,$7,8
	or	$2,$7
	lw	$7,72($sp)
	addu	$4,$7,$2
$LVL844 = .
	lw	$2,36($3)
	subu	$4,$4,$2
$LVL845 = .
	lhu	$2,0($17)
	addu	$2,$4,$2
$LVL846 = .
	li	$4,65535
	slt	$2,0
	move	$25,$4
	bteqz	$L503
	.loc 1 2885 0 is_stmt 0 discriminator 1
	neg	$2,$2
$LVL847 = .
	move	$7,$25
	sra	$4,$2,8
	and	$2,$7
$LVL848 = .
	sra	$4,$4,8
	addu	$2,$4,$2
$LVL849 = .
	sra	$4,$2,8
	sra	$4,$4,8
$LVL850 = .
	addu	$2,$2,$4
$LVL851 = .
	not	$2,$2
$LVL852 = .
	b	$L644
$LVL853 = .
$L503:
	.loc 1 2885 0 discriminator 2
	sra	$4,$2,8
	move	$7,$25
	sra	$4,$4,8
	and	$2,$7
$LVL854 = .
	addu	$2,$4,$2
$LVL855 = .
	sra	$4,$2,8
	sra	$4,$4,8
$LVL856 = .
	addu	$2,$2,$4
$LVL857 = .
$L644:
	sh	$2,0($17)
$L497:
$LBE169 = .
	.loc 1 2887 0 is_stmt 1
	lhu	$2,28($3)
	lw	$4,56($sp)
	sb	$2,0($4)
	srl	$2,$2,8
	sb	$2,1($4)
	.loc 1 2888 0
	lhu	$2,36($3)
	sb	$2,2($4)
	srl	$2,$2,8
	sb	$2,3($4)
$L495:
	.loc 1 2891 0
	srl	$2,$6,8
	lw	$7,84($sp)
	sb	$6,12($16)
	srl	$6,$6,24
	.loc 1 2892 0
	sb	$5,16($16)
	.loc 1 2891 0
	sb	$2,13($16)
	.loc 1 2892 0
	srl	$2,$5,8
	srl	$5,$5,24
	.loc 1 2891 0
	sb	$7,14($16)
	sb	$6,15($16)
	.loc 1 2892 0
	sb	$2,17($16)
	srl	$2,$2,8
	sb	$5,19($16)
	sb	$2,18($16)
$L461:
	.loc 1 2909 0
	lbu	$4,8($16)
	.loc 1 2908 0
	lhu	$2,8($16)
$LVL858 = .
$LBB170 = .
	.loc 1 2911 0
	lbu	$5,10($16)
$LBE170 = .
	.loc 1 2909 0
	addiu	$4,-1
	sb	$4,8($16)
$LVL859 = .
$LBB171 = .
	.loc 1 2911 0
	lhu	$4,8($16)
	subu	$4,$2,$4
$LVL860 = .
	lbu	$2,11($16)
$LVL861 = .
	sll	$2,$2,8
	or	$2,$5
	addu	$2,$4,$2
$LVL862 = .
	slt	$2,0
	bteqz	$L504
$LVL863 = .
	.loc 1 2911 0 is_stmt 0 discriminator 1
	addiu	$2,-1
$LVL864 = .
	b	$L646
$LVL865 = .
$L504:
	.loc 1 2911 0 discriminator 2
	sra	$4,$2,8
	zeh	$2
$LVL866 = .
	sra	$4,$4,8
	addu	$2,$4,$2
$LVL867 = .
	sra	$4,$2,8
	sra	$4,$4,8
$LVL868 = .
	addu	$2,$2,$4
$LVL869 = .
$L646:
	zeh	$2
	sb	$2,10($16)
	srl	$2,$2,8
	sb	$2,11($16)
$LVL870 = .
$LBE171 = .
	.loc 1 2922 0 is_stmt 1 discriminator 2
	.set	noreorder
	.set	nomacro
	jal	rtl_getTimeStamp
	sw	$3,132($sp)
	.set	macro
	.set	reorder

$LVL871 = .
	lw	$3,132($sp)
	sw	$2,40($3)
	.loc 1 2925 0 discriminator 2
	lw	$3,64($sp)
	beqz	$3,$L506
	.loc 1 2926 0
	lw	$4,160($3)
	move	$2,$4
	addiu	$2,1
	sw	$2,160($3)
	.loc 1 2927 0
	li	$2,10
	sw	$2,164($3)
$L506:
	.loc 1 2931 0
	lw	$3,68($sp)
	li	$2,2
	lw	$3,56($3)
	and	$2,$3
	beqz	$2,$L507
	.loc 1 2932 0
	lw	$3,68($sp)
	lw	$16,48($3)
$LVL872 = .
$LBB172 = .
	.loc 1 2964 0
	lw	$3,64($sp)
	bnez	$3,$L508
	b	$L509
$LVL873 = .
$L507:
$LBE172 = .
	.loc 1 2939 0
	lw	$16,96($sp)
$LVL874 = .
	.loc 1 2936 0
	lw	$3,64($sp)
	.loc 1 2939 0
	addiu	$16,8
	.loc 1 2936 0
	beqz	$3,$L509
	.loc 1 2937 0
	move	$16,$3
	addiu	$16,32
$LVL875 = .
$L508:
$LBB173 = .
	.loc 1 2965 0
	lw	$3,64($sp)
	addiu	$3,24
	sw	$3,96($sp)
$LVL876 = .
$L509:
	.loc 1 2972 0
	jal	fastpath_get_QosEnabled
$LVL877 = .
	.loc 1 2970 0
	beqz	$2,$L511
$L514:
	.loc 1 2978 0
	lw	$3,68($sp)
	addiu	$2,$sp,24
	lw	$7,68($sp)
	move	$6,$16
	lw	$5,156($sp)
	lw	$4,60($3)
	lw	$3,96($sp)
	sw	$2,16($sp)
	.set	noreorder
	.set	nomacro
	jal	ip_finish_output3
	sw	$3,20($sp)
	.set	macro
	.set	reorder

$LVL878 = .
$LBE173 = .
	.loc 1 2985 0
	lw	$3,64($sp)
	bnez	$3,$L512
	b	$L647
$LVL879 = .
$L511:
$LBB174 = .
	.loc 1 2974 0
	lw	$3,68($sp)
	addiu	$4,$sp,156
	.set	noreorder
	.set	nomacro
	jal	fast_path_post_process_xmit_check_mbuf
	lw	$5,60($3)
	.set	macro
	.set	reorder

$LVL880 = .
	.loc 1 2972 0
	cmpi	$2,1
	btnez	$L514
	b	$L647
$LVL881 = .
$L512:
$LBE174 = .
	.loc 1 2985 0 discriminator 1
	beqz	$2,$L647
	.loc 1 2987 0
	lw	$3,64($sp)
	.loc 1 2986 0
	cmpi	$2,355
	.loc 1 2987 0
	addiu	$3,124
	.loc 1 2986 0
	btnez	$L515
	.loc 1 2987 0
	lw	$3,44($3)
	move	$2,$3
$LVL882 = .
	lw	$3,64($sp)
	addiu	$2,1
	sw	$2,168($3)
	b	$L647
$LVL883 = .
$L515:
	.loc 1 2989 0
	lw	$3,48($3)
	move	$2,$3
$LVL884 = .
	lw	$3,64($sp)
	addiu	$2,1
	sw	$2,172($3)
$LVL885 = .
$L647:
	.loc 1 2992 0
	li	$2,1
	b	$L589
$LVL886 = .
$L655:
$LBE175 = .
	.loc 1 2999 0
	lw	$6,156($sp)
	move	$4,$16
	.set	noreorder
	.set	nomacro
	jal	fast_path_post_process_return_check
	lw	$5,56($sp)
	.set	macro
	.set	reorder

$LVL887 = .
	b	$L589
$LVL888 = .
$L438:
	lw	$4,56($sp)
	lbu	$5,13($4)
	li	$4,7
	.loc 1 2556 0
	and	$4,$5
	beqz	$4,$L437
	.set	noat
	move	$1,$2
	.set	at
	lw	$2,$L659
	.set	noat
	.set	noreorder
	.set	nomacro
	jr	$2
	move	$2,$1
	.set	macro
	.set	reorder
	.set	at
	.align	2
$L659:
	.word	$L451
$LVL889 = .
$L589:
	.loc 1 3000 0
	restore	152,$16,$17,$31
	.cfi_restore 16
	.cfi_restore 17
	.cfi_restore 31
	.cfi_def_cfa_offset 0
$LVL890 = .
	j	$31
	.align	2
$L656:
	.word	$LC33
$L657:
	.word	table_path
	.end	enter_fast_path
	.cfi_endproc
$LFE97:
	.size	enter_fast_path, .-enter_fast_path
	.section	.rodata.str1.4
	.align	2
$LC42:
	.ascii	"path num: %d.\012\000"
	.section	.text.fastpath_dump_path_entry_num,"ax",@progbits
	.align	2
	.globl	fastpath_dump_path_entry_num
$LFB98 = .
	.loc 1 3108 0
	.cfi_startproc
	.set	mips16
	.set	nomicromips
	.ent	fastpath_dump_path_entry_num
	.type	fastpath_dump_path_entry_num, @function
fastpath_dump_path_entry_num:
	.frame	$sp,24,$31		# vars= 0, regs= 1/0, args= 16, gp= 0
	.mask	0x80000000,-4
	.fmask	0x00000000,0
$LVL891 = .
	.loc 1 3117 0
	lw	$2,$L665
	.loc 1 3116 0
	li	$5,0
	.loc 1 3117 0
	lw	$2,0($2)
$LVL892 = .
$L661:
	.loc 1 3117 0 is_stmt 0 discriminator 1
	beqz	$2,$L664
	.loc 1 3118 0 is_stmt 1 discriminator 3
	addiu	$5,1
$LVL893 = .
	.loc 1 3117 0 discriminator 3
	lw	$2,68($2)
$LVL894 = .
	b	$L661
$L664:
	.loc 1 3108 0
	save	24,$31
	.cfi_def_cfa_offset 24
	.cfi_offset 31, -4
	.loc 1 3129 0
	lw	$4,$L666
	jal	diag_printf
$LVL895 = .
	.loc 1 3131 0
	restore	24,$31
	.cfi_restore 31
	.cfi_def_cfa_offset 0
	j	$31
	.align	2
$L665:
	.word	path_list_inuse
$L666:
	.word	$LC42
	.end	fastpath_dump_path_entry_num
	.cfi_endproc
$LFE98:
	.size	fastpath_dump_path_entry_num, .-fastpath_dump_path_entry_num
	.section	.rodata.str1.4
	.align	2
$LC45:
	.ascii	"TCP\000"
	.align	2
$LC46:
	.ascii	"UDP\000"
	.align	2
$LC47:
	.ascii	"entrys:\012\000"
	.align	2
$LC48:
	.ascii	"~Path: Valid: %d [%s] in-S=0x%08X:%-5u in-D=0x%08X:%-5u "
	.ascii	"out-S=0x%08X:%-5u out-D=0x%08X:%-5u <%u> {%d}\012\000"
	.section	.text.rtl_readFastpathNaptEntry,"ax",@progbits
	.align	2
	.globl	rtl_readFastpathNaptEntry
$LFB99 = .
	.loc 1 3134 0
	.cfi_startproc
	.set	mips16
	.set	nomicromips
	.ent	rtl_readFastpathNaptEntry
	.type	rtl_readFastpathNaptEntry, @function
rtl_readFastpathNaptEntry:
	.frame	$sp,64,$31		# vars= 0, regs= 2/0, args= 56, gp= 0
	.mask	0x80010000,-4
	.fmask	0x00000000,0
	save	64,$16,$31
	.cfi_def_cfa_offset 64
	.cfi_offset 31, -4
	.cfi_offset 16, -8
	.loc 1 3141 0
	jal	rtl_showfastpathOnOff
$LVL896 = .
	.loc 1 3142 0
	jal	fastpath_dump_path_entry_num
$LVL897 = .
	.loc 1 3143 0
	lw	$4,$L674
	jal	diag_printf
$LVL898 = .
	.loc 1 3145 0
	lw	$2,$L675
	lw	$16,0($2)
$LVL899 = .
$L668:
	.loc 1 3145 0 is_stmt 0 discriminator 2
	beqz	$16,$L673
$LBB176 = .
	.loc 1 3146 0 is_stmt 1
	lw	$2,4($16)
	lw	$6,$L676
	lbu	$5,0($16)
	cmpi	$2,2
	bteqz	$L669
	lw	$6,$L677
$L669:
	.loc 1 3146 0 is_stmt 0 discriminator 4
	lbu	$2,1($16)
	lw	$4,$L678
	lw	$7,16($16)
	sw	$2,48($sp)
	lbu	$2,2($16)
	sw	$2,44($sp)
	lw	$2,36($16)
	sw	$2,40($sp)
	lw	$2,32($16)
	sw	$2,36($sp)
	lw	$2,28($16)
	sw	$2,32($sp)
	lw	$2,24($16)
	sw	$2,28($sp)
	lw	$2,8($16)
	sw	$2,24($sp)
	lw	$2,20($16)
	sw	$2,20($sp)
	lw	$2,12($16)
	.set	noreorder
	.set	nomacro
	jal	diag_printf
	sw	$2,16($sp)
	.set	macro
	.set	reorder

$LVL900 = .
	.loc 1 3163 0 is_stmt 1 discriminator 4
	.set	noreorder
	.set	nomacro
	jal	fastpath_dump_qos_rule
	move	$4,$16
	.set	macro
	.set	reorder

$LVL901 = .
$LBE176 = .
	.loc 1 3145 0 discriminator 4
	lw	$16,68($16)
$LVL902 = .
	b	$L668
$L673:
	.loc 1 3166 0
	restore	64,$16,$31
	.cfi_restore 16
	.cfi_restore 31
	.cfi_def_cfa_offset 0
$LVL903 = .
	j	$31
	.align	2
$L674:
	.word	$LC47
$L675:
	.word	path_list_inuse
$L676:
	.word	$LC45
$L677:
	.word	$LC46
$L678:
	.word	$LC48
	.end	rtl_readFastpathNaptEntry
	.cfi_endproc
$LFE99:
	.size	rtl_readFastpathNaptEntry, .-rtl_readFastpathNaptEntry
	.section	.text.init_table_path,"ax",@progbits
	.align	2
	.globl	init_table_path
$LFB100 = .
	.loc 1 3413 0
	.cfi_startproc
	.set	mips16
	.set	nomicromips
	.ent	init_table_path
	.type	init_table_path, @function
init_table_path:
	.frame	$sp,40,$31		# vars= 8, regs= 3/0, args= 16, gp= 0
	.mask	0x80030000,-4
	.fmask	0x00000000,0
$LVL904 = .
	save	$4-$5,40,$16,$17,$31
	.cfi_def_cfa_offset 40
	.cfi_offset 31, -4
	.cfi_offset 17, -8
	.cfi_offset 16, -12
	.loc 1 3413 0
	move	$17,$4
	.loc 1 3416 0
	li	$6,1
	li	$5,3
$LVL905 = .
	.set	noreorder
	.set	nomacro
	jal	cyg_net_malloc
	li	$4,4
	.set	macro
	.set	reorder

$LVL906 = .
	lw	$7,$L695
	move	$3,$2
	sw	$2,0($7)
	.loc 1 3417 0
	bnez	$2,$L680
$L682:
	.loc 1 3419 0
	li	$2,1
	b	$L692
$L680:
	.loc 1 3421 0
	li	$2,0
	lw	$4,$L696
	.loc 1 3422 0
	lw	$16,$L697
	.loc 1 3421 0
	sw	$2,8($4)
	.loc 1 3425 0
	li	$6,1
	.loc 1 3421 0
	sw	$2,0($4)
	.loc 1 3425 0
	li	$5,3
	.loc 1 3422 0
	sw	$2,8($16)
	sw	$2,0($16)
	.loc 1 3424 0
	lw	$2,$L698
	.loc 1 3421 0
	sw	$4,4($4)
	.loc 1 3425 0
	sll	$4,$17,4
	.loc 1 3424 0
	sw	$17,0($2)
	.loc 1 3425 0
	sll	$2,$17,2
	sw	$3,16($sp)
	subu	$4,$4,$2
	sw	$7,20($sp)
	.set	noreorder
	.set	nomacro
	jal	cyg_net_malloc
	sw	$16,4($16)
	.set	macro
	.set	reorder

$LVL907 = .
	lw	$3,16($sp)
	.loc 1 3426 0
	lw	$7,20($sp)
	.loc 1 3425 0
	sw	$2,0($3)
	.loc 1 3426 0
	li	$3,0
	lw	$2,0($7)
	lw	$2,0($2)
	beqz	$2,$L682
$L683:
$LVL908 = .
	.loc 1 3430 0 discriminator 1
	slt	$3,$17
	bteqz	$L693
	.loc 1 3431 0 discriminator 3
	li	$4,0
	sw	$2,4($2)
	.loc 1 3430 0 discriminator 3
	addiu	$3,1
$LVL909 = .
	addiu	$2,12
	.loc 1 3431 0 discriminator 3
	sw	$4,-4($2)
	sw	$4,-12($2)
	b	$L683
$L693:
	li	$17,0
$LVL910 = .
$L685:
	.loc 1 3435 0 discriminator 1
	lw	$2,44($sp)
	slt	$17,$2
	bteqz	$L694
$LBB177 = .
	.loc 1 3436 0
	li	$6,1
	li	$5,3
	.set	noreorder
	.set	nomacro
	jal	cyg_net_malloc
	li	$4,76
	.set	macro
	.set	reorder

$LVL911 = .
	.loc 1 3437 0
	beqz	$2,$L687
	.loc 1 3441 0 discriminator 2
	li	$3,0
$LBE177 = .
	.loc 1 3435 0 discriminator 2
	addiu	$17,1
$LVL912 = .
$LBB178 = .
	.loc 1 3441 0 discriminator 2
	sw	$3,68($2)
	lw	$3,4($16)
	sw	$3,72($2)
	sw	$2,0($3)
	addiu	$2,68
$LVL913 = .
	sw	$2,4($16)
$LVL914 = .
	lw	$2,8($16)
$LVL915 = .
	addiu	$2,1
	sw	$2,8($16)
	b	$L685
$LVL916 = .
$L694:
$LBE178 = .
	.loc 1 3444 0
	li	$2,0
	b	$L681
$LVL917 = .
$L687:
$LBB179 = .
	.loc 1 3439 0
	li	$2,2
$LVL918 = .
$L692:
	neg	$2,$2
$L681:
$LBE179 = .
	.loc 1 3445 0
	restore	40,$16,$17,$31
	.cfi_restore 16
	.cfi_restore 17
	.cfi_restore 31
	.cfi_def_cfa_offset 0
	j	$31
	.align	2
$L695:
	.word	table_path
$L696:
	.word	path_list_inuse
$L697:
	.word	path_list_free
$L698:
	.word	path_table_list_max
	.end	init_table_path
	.cfi_endproc
$LFE100:
	.size	init_table_path, .-init_table_path
	.section	.rodata.str1.4
	.align	2
$LC58:
	.ascii	"v1.03\000"
	.align	2
$LC59:
	.ascii	"Realtek FastPath\000"
	.align	2
$LC60:
	.ascii	"%s:%s\012\000"
	.section	.text.get_fastpath_module_info,"ax",@progbits
	.align	2
	.globl	get_fastpath_module_info
$LFB101 = .
	.loc 1 3448 0
	.cfi_startproc
	.set	mips16
	.set	nomicromips
	.ent	get_fastpath_module_info
	.type	get_fastpath_module_info, @function
get_fastpath_module_info:
	.frame	$sp,24,$31		# vars= 0, regs= 1/0, args= 16, gp= 0
	.mask	0x80000000,-4
	.fmask	0x00000000,0
$LVL919 = .
	.loc 1 3449 0
	beqz	$4,$L706
	.loc 1 3448 0
	save	24,$31
	.cfi_def_cfa_offset 24
	.cfi_offset 31, -4
	.loc 1 3453 0
	lw	$7,$L707
	lw	$6,$L708
	lw	$5,$L709
	jal	diag_sprintf
$LVL920 = .
	.loc 1 3454 0
	restore	24,$31
	.cfi_restore 31
	.cfi_def_cfa_offset 0
$L706:
	j	$31
	.align	2
$L707:
	.word	$LC58
$L708:
	.word	$LC59
$L709:
	.word	$LC60
	.end	get_fastpath_module_info
	.cfi_endproc
$LFE101:
	.size	get_fastpath_module_info, .-get_fastpath_module_info
	.globl	fast_path_entry_count
	.section	.bss.fast_path_entry_count,"aw",@nobits
	.align	2
	.type	fast_path_entry_count, @object
	.size	fast_path_entry_count, 4
fast_path_entry_count:
	.space	4

	.comm	udp_frag_cache_timer,24,4
	.section	.bss.max_udp_frag_entry,"aw",@nobits
	.align	2
	.type	max_udp_frag_entry, @object
	.size	max_udp_frag_entry, 4
max_udp_frag_entry:
	.space	4

	.comm	udp_cache_table,4,4

	.comm	udp_cache_list_free,12,4
	.section	.bss.path_table_list_max,"aw",@nobits
	.align	2
	.type	path_table_list_max, @object
	.size	path_table_list_max, 4
path_table_list_max:
	.space	4

	.comm	table_path,4,4

	.comm	path_list_free,12,4

	.comm	path_list_inuse,12,4

	.comm	route_list_free,12,4

	.comm	route_list_inuse,12,4
	.text
$Letext0:
	.file 2 "/home/dingbin_lu/ecos_v1.5.1_20160706/gnutools/msdk-4.9.4/linux/newlib/lib/gcc/mips-elf/4.9.4/include/stddef.h"
	.file 3 "/home/dingbin_lu/ecos_v1.5.1_20160706/ecos-work/97f-8812br-gw_install/include/cyg/infra/cyg_type.h"
	.file 4 "/home/dingbin_lu/ecos_v1.5.1_20160706/ecos-work/97f-8812br-gw_install/include/sys/bsdtypes.h"
	.file 5 "/home/dingbin_lu/ecos_v1.5.1_20160706/ecos-work/97f-8812br-gw_install/include/time.h"
	.file 6 "/home/dingbin_lu/ecos_v1.5.1_20160706/ecos-work/97f-8812br-gw_install/include/cyg/libc/time/time.h"
	.file 7 "/home/dingbin_lu/ecos_v1.5.1_20160706/ecos-work/97f-8812br-gw_install/include/sys/param.h"
	.file 8 "/home/dingbin_lu/ecos_v1.5.1_20160706/ecos-work/97f-8812br-gw_install/include/cyg/io/eth/rltk/819x/wrapper/sys_support.h"
	.file 9 "/home/dingbin_lu/ecos_v1.5.1_20160706/ecos-work/97f-8812br-gw_install/include/sys/socket.h"
	.file 10 "/home/dingbin_lu/ecos_v1.5.1_20160706/ecos-work/97f-8812br-gw_install/include/cyg/posix/sys/time.h"
	.file 11 "/home/dingbin_lu/ecos_v1.5.1_20160706/ecos-work/97f-8812br-gw_install/include/net/if_var.h"
	.file 12 "/home/dingbin_lu/ecos_v1.5.1_20160706/ecos-work/97f-8812br-gw_install/include/net/if.h"
	.file 13 "/home/dingbin_lu/ecos_v1.5.1_20160706/ecos-work/97f-8812br-gw_install/include/sys/mbuf.h"
	.file 14 "/home/dingbin_lu/ecos_v1.5.1_20160706/ecos-work/97f-8812br-gw_install/include/net/route.h"
	.file 15 "/home/dingbin_lu/ecos_v1.5.1_20160706/ecos-work/97f-8812br-gw_install/include/netinet/rtl_vlan.h"
	.file 16 "/home/dingbin_lu/ecos_v1.5.1_20160706/ecos-work/97f-8812br-gw_install/include/cyg/io/eth/rltk/819x/wrapper/wireless.h"
	.file 17 "/home/dingbin_lu/ecos_v1.5.1_20160706/ecos-work/97f-8812br-gw_install/include/cyg/io/eth/rltk/819x/wrapper/skbuff.h"
	.file 18 "/home/dingbin_lu/ecos_v1.5.1_20160706/ecos-work/97f-8812br-gw_install/include/rtl/rtl_types.h"
	.file 19 "/home/dingbin_lu/ecos_v1.5.1_20160706/ecos-work/97f-8812br-gw_install/include/netinet/ip.h"
	.file 20 "/home/dingbin_lu/ecos_v1.5.1_20160706/ecos-work/97f-8812br-gw_install/include/netinet/udp.h"
	.file 21 "/home/dingbin_lu/ecos_v1.5.1_20160706/ecos-work/97f-8812br-gw_install/include/netinet/tcp.h"
	.file 22 "/home/dingbin_lu/ecos_v1.5.1_20160706/ecos-work/97f-8812br-gw_install/include/net/radix.h"
	.file 23 "/home/dingbin_lu/ecos_v1.5.1_20160706/ecos-work/97f-8812br-gw_install/include/net/ethernet.h"
	.file 24 "/home/dingbin_lu/ecos_v1.5.1_20160706/ecos-work/97f-8812br-gw_install/include/rtl/rtl_alias.h"
	.file 25 "/home/dingbin_lu/ecos_v1.5.1_20160706/ecos-work/97f-8812br-gw_install/include/netinet/ip_flow.h"
	.file 26 "/home/dingbin_lu/ecos_v1.5.1_20160706/ecos-work/97f-8812br-gw_install/include/net/if_arp.h"
	.file 27 "/home/dingbin_lu/ecos_v1.5.1_20160706/ecos-work/97f-8812br-gw_install/include/netinet/fastpath/fastpath_core.h"
	.file 28 "/home/dingbin_lu/ecos_v1.5.1_20160706/ecos-work/../ecos-3.0/packages/net/bsd_tcpip/v3_0/src/sys/netinet/fastpath/../libalias/alias_local.h"
	.file 29 "/home/dingbin_lu/ecos_v1.5.1_20160706/ecos-work/97f-8812br-gw_install/include/cyg/libc/time/time.inl"
	.file 30 "/home/dingbin_lu/ecos_v1.5.1_20160706/ecos-work/97f-8812br-gw_install/include/cyg/libc/time/timeutil.h"
	.file 31 "/home/dingbin_lu/ecos_v1.5.1_20160706/ecos-work/97f-8812br-gw_install/include/sys/malloc.h"
	.file 32 "/home/dingbin_lu/ecos_v1.5.1_20160706/ecos-work/97f-8812br-gw_install/include/cyg/libc/string/string.h"
	.file 33 "/home/dingbin_lu/ecos_v1.5.1_20160706/ecos-work/97f-8812br-gw_install/include/cyg/infra/diag.h"