	.section .mdebug.abi32
	.previous
	.nan	legacy
	.gnu_attribute 4, 3
	.text
$Ltext0:
	.cfi_sections	.debug_frame
	.section	.text.dos_pkt_locate,"ax",@progbits
	.align	2
$LFB79 = .
	.file 1 "/home/kai_wang/release-ecos1.5.1/release_tool_v15/ecos_v1.5.1_20160706/ecos-work/../ecos-3.0/packages/net/bsd_tcpip/v3_0/src/sys/netinet/fastpath/filter.c"
	.loc 1 2547 0
	.cfi_startproc
	.set	nomips16
	.set	nomicromips
	.ent	dos_pkt_locate
	.type	dos_pkt_locate, @function
dos_pkt_locate:
	.frame	$sp,0,$31		# vars= 0, regs= 0/0, args= 0, gp= 0
	.mask	0x00000000,0
	.fmask	0x00000000,0
	.set	noreorder
	.set	nomacro
$LVL0 = .
	.loc 1 2550 0
	lwl	$24,15($4)
	.loc 1 2551 0
	lui	$3,%hi(dos_pkt)
	addiu	$3,$3,%lo(dos_pkt)
	.loc 1 2550 0
	lwr	$24,12($4)
$LVL1 = .
	.loc 1 2551 0
	li	$4,36			# 0x24
$LVL2 = .
	andi	$2,$24,0x1ff
	mul	$5,$2,$4
	addu	$4,$5,$3
$LVL3 = .
	.loc 1 2552 0
	andi	$5,$24,0xff
	sll	$6,$5,2
	lui	$5,%hi(ConnectedIp)
	addiu	$5,$5,%lo(ConnectedIp)
	addu	$5,$6,$5
	lw	$5,0($5)
	bne	$24,$5,$L9
	li	$5,36			# 0x24

	.loc 1 2552 0 is_stmt 0 discriminator 1
	lw	$5,24($4)
	bnel	$5,$24,$L2
	li	$5,36			# 0x24

	.loc 1 2554 0 is_stmt 1
	sb	$0,0($4)
	.loc 1 2555 0
	j	$31
	move	$2,$0

$L2:
$L9:
	.loc 1 2557 0
	mul	$6,$2,$5
	addu	$3,$6,$3
	lw	$2,24($3)
	beq	$2,$24,$L4
	lb	$5,0($3)

	.loc 1 2557 0 is_stmt 0 discriminator 1
	bne	$5,$0,$L10
	move	$2,$0

	.loc 1 2559 0 is_stmt 1
	sw	$24,24($3)
	.loc 1 2560 0
	li	$24,1			# 0x1
$LVL4 = .
	j	$L7
	sb	$24,0($3)

$LVL5 = .
$L4:
	.loc 1 2564 0 discriminator 1
	li	$24,1			# 0x1
$LVL6 = .
	bne	$5,$24,$L10
	move	$2,$0

$L7:
	.loc 1 2566 0
	lui	$24,%hi(cur_p_pkt)
	.loc 1 2567 0
	li	$2,1			# 0x1
	.loc 1 2566 0
	sw	$4,%lo(cur_p_pkt)($24)
$L10:
	.loc 1 2571 0
	j	$31
	nop

	.set	macro
	.set	reorder
	.end	dos_pkt_locate
	.cfi_endproc
$LFE79:
	.size	dos_pkt_locate, .-dos_pkt_locate
	.section	.rodata.str1.4,"aMS",@progbits,1
	.align	2
$LC0:
	.ascii	"DoS: Whole System SYN Flood Attack\012\000"
	.align	2
$LC1:
	.ascii	"DoS: Whole System FIN Flood Attack\012\000"
	.align	2
$LC2:
	.ascii	"DoS: Whole System UDP Flood Attack\012\000"
	.align	2
$LC3:
	.ascii	"DoS: Whole System ICMP Flood Attack\012\000"
	.align	2
$LC4:
	.ascii	"DoS: Per-source SYN Flood Attack source=%u.%u.%u.%u dest"
	.ascii	"ination=%u.%u.%u.%u\012\000"
	.align	2
$LC5:
	.ascii	"DoS: Per-source FIN Flood Attack source=%u.%u.%u.%u dest"
	.ascii	"ination=%u.%u.%u.%u\012\000"
	.align	2
$LC6:
	.ascii	"DoS: Per-source UDP Flood Attack source=%u.%u.%u.%u dest"
	.ascii	"ination=%u.%u.%u.%u\012\000"
	.align	2
$LC7:
	.ascii	"DoS: Per-source ICMP Flood Attack source=%u.%u.%u.%u des"
	.ascii	"tination=%u.%u.%u.%u\012\000"
	.align	2
$LC8:
	.ascii	"DoS: Port Scan Attack source=%u.%u.%u.%u destination=%u."
	.ascii	"%u.%u.%u\012\000"
	.align	2
$LC9:
	.ascii	"DoS: Tcp Scan Attack source=%u.%u.%u.%u destination=%u.%"
	.ascii	"u.%u.%u\012\000"
	.align	2
$LC10:
	.ascii	"DoS: Tcp SYN With Data Attack source=%u.%u.%u.%u destina"
	.ascii	"tion=%u.%u.%u.%u\012\000"
	.align	2
$LC11:
	.ascii	"DoS: IP Land Attack source=%u.%u.%u.%u destination=%u.%u"
	.ascii	".%u.%u\012\000"
	.align	2
$LC12:
	.ascii	"DoS: UdpEchoChargen Attack source=%u.%u.%u.%u destinatio"
	.ascii	"n=%u.%u.%u.%u\012\000"
	.align	2
$LC13:
	.ascii	"DoS: UdpBomb Attack source=%u.%u.%u.%u destination=%u.%u"
	.ascii	".%u.%u\012\000"
	.align	2
$LC14:
	.ascii	"DoS: PingOfDeath Attack source=%u.%u.%u.%u destination=%"
	.ascii	"u.%u.%u.%u\012\000"
	.align	2
$LC15:
	.ascii	"DoS: IcmpSmurf Attack source=%u.%u.%u.%u destination=%u."
	.ascii	"%u.%u.%u\012\000"
	.align	2
$LC16:
	.ascii	"DoS: IpSpoof Attack source=%u.%u.%u.%u destination=%u.%u"
	.ascii	".%u.%u\012\000"
	.align	2
$LC17:
	.ascii	"DoS: TearDrop Attack source=%u.%u.%u.%u destination=%u.%"
	.ascii	"u.%u.%u\012\000"
	.section	.text.dos_timer_fn,"ax",@progbits
	.align	2
$LFB91 = .
	.loc 1 3059 0
	.cfi_startproc
	.set	nomips16
	.set	nomicromips
	.ent	dos_timer_fn
	.type	dos_timer_fn, @function
dos_timer_fn:
	.frame	$sp,56,$31		# vars= 0, regs= 4/0, args= 40, gp= 0
	.mask	0x80070000,-4
	.fmask	0x00000000,0
	.set	noreorder
	.set	nomacro
$LVL7 = .
	addiu	$sp,$sp,-56
	.cfi_def_cfa_offset 56
	sw	$31,52($sp)
	sw	$18,48($sp)
	sw	$17,44($sp)
	sw	$16,40($sp)
	.cfi_offset 31, -4
	.cfi_offset 18, -8
	.cfi_offset 17, -12
	.cfi_offset 16, -16
	.loc 1 3060 0
	lui	$17,%hi(item)
	lw	$24,%lo(item)($17)
	bne	$24,$0,$L12
	lui	$24,%hi(block_count)

$LVL8 = .
	.loc 1 3084 0
	lui	$24,%hi(none_dos_drop_pkt_cnt)
$L112:
	lw	$2,%lo(none_dos_drop_pkt_cnt)($24)
	sltu	$3,$2,3001
	beql	$3,$0,$L13
	lw	$2,%lo(item)($17)

	.loc 1 3092 0
	j	$L111
	lui	$3,%hi(item_backup)

$LVL9 = .
$L12:
	.loc 1 3061 0
	lui	$3,%hi(block_time)
	lw	$2,%lo(block_count)($24)
	lw	$3,%lo(block_time)($3)
	slt	$2,$2,$3
	bne	$2,$0,$L15
	lui	$3,%hi(block)

	.loc 1 3064 0
	lui	$2,%hi(whole_syn_count)
	.loc 1 3062 0
	sw	$0,%lo(block)($3)
	.loc 1 3063 0
	sw	$0,%lo(block_count)($24)
	.loc 1 3064 0
	sw	$0,%lo(whole_syn_count)($2)
	.loc 1 3065 0
	lui	$2,%hi(whole_fin_count)
	sw	$0,%lo(whole_fin_count)($2)
	.loc 1 3066 0
	lui	$2,%hi(whole_udp_count)
	sw	$0,%lo(whole_udp_count)($2)
	.loc 1 3067 0
	lui	$2,%hi(whole_icmp_count)
	sw	$0,%lo(whole_icmp_count)($2)
	.loc 1 3068 0
	lui	$2,%hi(whole_syn_block)
	sw	$0,%lo(whole_syn_block)($2)
	.loc 1 3069 0
	lui	$2,%hi(whole_fin_block)
	sw	$0,%lo(whole_fin_block)($2)
	.loc 1 3070 0
	lui	$2,%hi(whole_udp_block)
	sw	$0,%lo(whole_udp_block)($2)
	.loc 1 3071 0
	lui	$2,%hi(whole_icmp_block)
	sw	$0,%lo(whole_icmp_block)($2)
$L15:
	.loc 1 3074 0
	lw	$2,%lo(block)($3)
	bne	$2,$0,$L113
	lw	$2,%lo(block_count)($24)

	.loc 1 3074 0 is_stmt 0 discriminator 1
	lui	$2,%hi(whole_syn_block)
	lw	$2,%lo(whole_syn_block)($2)
	bne	$2,$0,$L113
	lw	$2,%lo(block_count)($24)

	.loc 1 3074 0 discriminator 2
	lui	$2,%hi(whole_fin_block)
	lw	$2,%lo(whole_fin_block)($2)
	bne	$2,$0,$L113
	lw	$2,%lo(block_count)($24)

	.loc 1 3074 0 discriminator 3
	lui	$2,%hi(whole_udp_block)
	lw	$2,%lo(whole_udp_block)($2)
	bne	$2,$0,$L113
	lw	$2,%lo(block_count)($24)

	.loc 1 3075 0 is_stmt 1
	lui	$2,%hi(whole_icmp_block)
	lw	$2,%lo(whole_icmp_block)($2)
	beq	$2,$0,$L114
	lui	$18,%hi(LogFlag)

	.loc 1 3076 0
	lw	$2,%lo(block_count)($24)
$L113:
	addiu	$2,$2,1
	sw	$2,%lo(block_count)($24)
	.loc 1 3079 0
	lui	$18,%hi(LogFlag)
$L114:
	lw	$16,%lo(LogFlag)($18)
$LVL10 = .
$LBB6 = .
$LBB7 = .
	.loc 1 2786 0
	andi	$24,$16,0x2
	beq	$24,$0,$L115
	andi	$24,$16,0x4

	.loc 1 2793 0
	lui	$4,%hi($LC0)
$LVL11 = .
	jal	doslog_printk
	addiu	$4,$4,%lo($LC0)

$LVL12 = .
	.loc 1 2800 0
	andi	$24,$16,0x4
$L115:
	beq	$24,$0,$L116
	andi	$24,$16,0x8

	.loc 1 2807 0
	lui	$4,%hi($LC1)
	jal	doslog_printk
	addiu	$4,$4,%lo($LC1)

$LVL13 = .
	.loc 1 2814 0
	andi	$24,$16,0x8
$L116:
	beq	$24,$0,$L117
	andi	$24,$16,0x10

	.loc 1 2821 0
	lui	$4,%hi($LC2)
	jal	doslog_printk
	addiu	$4,$4,%lo($LC2)

$LVL14 = .
	.loc 1 2828 0
	andi	$24,$16,0x10
$L117:
	beq	$24,$0,$L118
	andi	$24,$16,0x20

	.loc 1 2835 0
	lui	$4,%hi($LC3)
	jal	doslog_printk
	addiu	$4,$4,%lo($LC3)

$LVL15 = .
	.loc 1 2842 0
	andi	$24,$16,0x20
$L118:
	beq	$24,$0,$L119
	andi	$24,$16,0x40

	.loc 1 2850 0
	lui	$2,%hi(attack_daddr)
	lui	$24,%hi(attack_saddr)
	addiu	$2,$2,%lo(attack_daddr)
	addiu	$24,$24,%lo(attack_saddr)
	lui	$4,%hi($LC4)
	lbu	$3,7($2)
	lbu	$7,6($24)
	addiu	$4,$4,%lo($LC4)
	lbu	$6,5($24)
	lbu	$5,4($24)
	sw	$3,32($sp)
	lbu	$3,6($2)
	sw	$3,28($sp)
	lbu	$3,5($2)
	sw	$3,24($sp)
	lbu	$2,4($2)
	sw	$2,20($sp)
	lbu	$24,7($24)
	jal	doslog_printk
	sw	$24,16($sp)

$LVL16 = .
	.loc 1 2857 0
	andi	$24,$16,0x40
$L119:
	beq	$24,$0,$L120
	andi	$24,$16,0x80

	.loc 1 2866 0
	lui	$2,%hi(attack_daddr)
	lui	$24,%hi(attack_saddr)
	addiu	$2,$2,%lo(attack_daddr)
	addiu	$24,$24,%lo(attack_saddr)
	lui	$4,%hi($LC5)
	lbu	$3,11($2)
	lbu	$7,10($24)
	addiu	$4,$4,%lo($LC5)
	lbu	$6,9($24)
	lbu	$5,8($24)
	sw	$3,32($sp)
	lbu	$3,10($2)
	sw	$3,28($sp)
	lbu	$3,9($2)
	sw	$3,24($sp)
	lbu	$2,8($2)
	sw	$2,20($sp)
	lbu	$24,11($24)
	jal	doslog_printk
	sw	$24,16($sp)

$LVL17 = .
	.loc 1 2873 0
	andi	$24,$16,0x80
$L120:
	beq	$24,$0,$L121
	andi	$24,$16,0x100

	.loc 1 2881 0
	lui	$2,%hi(attack_daddr)
	lui	$24,%hi(attack_saddr)
	addiu	$2,$2,%lo(attack_daddr)
	addiu	$24,$24,%lo(attack_saddr)
	lui	$4,%hi($LC6)
	lbu	$3,15($2)
	lbu	$7,14($24)
	addiu	$4,$4,%lo($LC6)
	lbu	$6,13($24)
	lbu	$5,12($24)
	sw	$3,32($sp)
	lbu	$3,14($2)
	sw	$3,28($sp)
	lbu	$3,13($2)
	sw	$3,24($sp)
	lbu	$2,12($2)
	sw	$2,20($sp)
	lbu	$24,15($24)
	jal	doslog_printk
	sw	$24,16($sp)

$LVL18 = .
	.loc 1 2888 0
	andi	$24,$16,0x100
$L121:
	beq	$24,$0,$L122
	andi	$24,$16,0x200

	.loc 1 2896 0
	lui	$2,%hi(attack_daddr)
	lui	$24,%hi(attack_saddr)
	addiu	$2,$2,%lo(attack_daddr)
	addiu	$24,$24,%lo(attack_saddr)
	lui	$4,%hi($LC7)
	lbu	$3,19($2)
	lbu	$7,18($24)
	addiu	$4,$4,%lo($LC7)
	lbu	$6,17($24)
	lbu	$5,16($24)
	sw	$3,32($sp)
	lbu	$3,18($2)
	sw	$3,28($sp)
	lbu	$3,17($2)
	sw	$3,24($sp)
	lbu	$2,16($2)
	sw	$2,20($sp)
	lbu	$24,19($24)
	jal	doslog_printk
	sw	$24,16($sp)

$LVL19 = .
	.loc 1 2903 0
	andi	$24,$16,0x200
$L122:
	beq	$24,$0,$L123
	andi	$24,$16,0x8000

	.loc 1 2912 0
	lui	$2,%hi(attack_daddr)
	lui	$24,%hi(attack_saddr)
	addiu	$2,$2,%lo(attack_daddr)
	addiu	$24,$24,%lo(attack_saddr)
	lui	$4,%hi($LC8)
	lbu	$3,23($2)
	lbu	$7,22($24)
	addiu	$4,$4,%lo($LC8)
	lbu	$6,21($24)
	lbu	$5,20($24)
	sw	$3,32($sp)
	lbu	$3,22($2)
	sw	$3,28($sp)
	lbu	$3,21($2)
	sw	$3,24($sp)
	lbu	$2,20($2)
	sw	$2,20($sp)
	lbu	$24,23($24)
	jal	doslog_printk
	sw	$24,16($sp)

$LVL20 = .
	.loc 1 2919 0
	andi	$24,$16,0x8000
$L123:
	beq	$24,$0,$L124
	ext	$24,$16,16,1

	.loc 1 2927 0
	lui	$2,%hi(attack_daddr)
	lui	$24,%hi(attack_saddr)
	addiu	$2,$2,%lo(attack_daddr)
	addiu	$24,$24,%lo(attack_saddr)
	lui	$4,%hi($LC9)
	lbu	$3,47($2)
	lbu	$7,46($24)
	addiu	$4,$4,%lo($LC9)
	lbu	$6,45($24)
	lbu	$5,44($24)
	sw	$3,32($sp)
	lbu	$3,46($2)
	sw	$3,28($sp)
	lbu	$3,45($2)
	sw	$3,24($sp)
	lbu	$2,44($2)
	sw	$2,20($sp)
	lbu	$24,47($24)
	jal	doslog_printk
	sw	$24,16($sp)

$LVL21 = .
	.loc 1 2934 0
	ext	$24,$16,16,1
$L124:
	beq	$24,$0,$L125
	andi	$24,$16,0x800

	.loc 1 2942 0
	lui	$2,%hi(attack_daddr)
	lui	$24,%hi(attack_saddr)
	addiu	$2,$2,%lo(attack_daddr)
	addiu	$24,$24,%lo(attack_saddr)
	lui	$4,%hi($LC10)
	lbu	$3,51($2)
	lbu	$7,50($24)
	addiu	$4,$4,%lo($LC10)
	lbu	$6,49($24)
	lbu	$5,48($24)
	sw	$3,32($sp)
	lbu	$3,50($2)
	sw	$3,28($sp)
	lbu	$3,49($2)
	sw	$3,24($sp)
	lbu	$2,48($2)
	sw	$2,20($sp)
	lbu	$24,51($24)
	jal	doslog_printk
	sw	$24,16($sp)

$LVL22 = .
	.loc 1 2949 0
	andi	$24,$16,0x800
$L125:
	beq	$24,$0,$L126
	ext	$24,$16,18,1

	.loc 1 2957 0
	lui	$2,%hi(attack_daddr)
	lui	$24,%hi(attack_saddr)
	addiu	$2,$2,%lo(attack_daddr)
	addiu	$24,$24,%lo(attack_saddr)
	lui	$4,%hi($LC11)
	lbu	$3,31($2)
	lbu	$7,30($24)
	addiu	$4,$4,%lo($LC11)
	lbu	$6,29($24)
	lbu	$5,28($24)
	sw	$3,32($sp)
	lbu	$3,30($2)
	sw	$3,28($sp)
	lbu	$3,29($2)
	sw	$3,24($sp)
	lbu	$2,28($2)
	sw	$2,20($sp)
	lbu	$24,31($24)
	jal	doslog_printk
	sw	$24,16($sp)

$LVL23 = .
	.loc 1 2964 0
	ext	$24,$16,18,1
$L126:
	beq	$24,$0,$L127
	ext	$24,$16,17,1

	.loc 1 2972 0
	lui	$2,%hi(attack_daddr)
	lui	$24,%hi(attack_saddr)
	addiu	$2,$2,%lo(attack_daddr)
	addiu	$24,$24,%lo(attack_saddr)
	lui	$4,%hi($LC12)
	lbu	$3,59($2)
	lbu	$7,58($24)
	addiu	$4,$4,%lo($LC12)
	lbu	$6,57($24)
	lbu	$5,56($24)
	sw	$3,32($sp)
	lbu	$3,58($2)
	sw	$3,28($sp)
	lbu	$3,57($2)
	sw	$3,24($sp)
	lbu	$2,56($2)
	sw	$2,20($sp)
	lbu	$24,59($24)
	jal	doslog_printk
	sw	$24,16($sp)

$LVL24 = .
	.loc 1 2978 0
	ext	$24,$16,17,1
$L127:
	beq	$24,$0,$L128
	andi	$24,$16,0x4000

	.loc 1 2987 0
	lui	$2,%hi(attack_daddr)
	lui	$24,%hi(attack_saddr)
	addiu	$2,$2,%lo(attack_daddr)
	addiu	$24,$24,%lo(attack_saddr)
	lui	$4,%hi($LC13)
	lbu	$3,55($2)
	lbu	$7,54($24)
	addiu	$4,$4,%lo($LC13)
	lbu	$6,53($24)
	lbu	$5,52($24)
	sw	$3,32($sp)
	lbu	$3,54($2)
	sw	$3,28($sp)
	lbu	$3,53($2)
	sw	$3,24($sp)
	lbu	$2,52($2)
	sw	$2,20($sp)
	lbu	$24,55($24)
	jal	doslog_printk
	sw	$24,16($sp)

$LVL25 = .
	.loc 1 2994 0
	andi	$24,$16,0x4000
$L128:
	beq	$24,$0,$L129
	andi	$24,$16,0x400

	.loc 1 3003 0
	lui	$2,%hi(attack_daddr)
	lui	$24,%hi(attack_saddr)
	addiu	$2,$2,%lo(attack_daddr)
	addiu	$24,$24,%lo(attack_saddr)
	lui	$4,%hi($LC14)
	lbu	$3,43($2)
	lbu	$7,42($24)
	addiu	$4,$4,%lo($LC14)
	lbu	$6,41($24)
	lbu	$5,40($24)
	sw	$3,32($sp)
	lbu	$3,42($2)
	sw	$3,28($sp)
	lbu	$3,41($2)
	sw	$3,24($sp)
	lbu	$2,40($2)
	sw	$2,20($sp)
	lbu	$24,43($24)
	jal	doslog_printk
	sw	$24,16($sp)

$LVL26 = .
	.loc 1 3010 0
	andi	$24,$16,0x400
$L129:
	beq	$24,$0,$L130
	andi	$24,$16,0x1000

	.loc 1 3018 0
	lui	$2,%hi(attack_daddr)
	lui	$24,%hi(attack_saddr)
	addiu	$2,$2,%lo(attack_daddr)
	addiu	$24,$24,%lo(attack_saddr)
	lui	$4,%hi($LC15)
	lbu	$3,27($2)
	lbu	$7,26($24)
	addiu	$4,$4,%lo($LC15)
	lbu	$6,25($24)
	lbu	$5,24($24)
	sw	$3,32($sp)
	lbu	$3,26($2)
	sw	$3,28($sp)
	lbu	$3,25($2)
	sw	$3,24($sp)
	lbu	$2,24($2)
	sw	$2,20($sp)
	lbu	$24,27($24)
	jal	doslog_printk
	sw	$24,16($sp)

$LVL27 = .
	.loc 1 3025 0
	andi	$24,$16,0x1000
$L130:
	beql	$24,$0,$L131
	andi	$16,$16,0x2000

	.loc 1 3033 0
	lui	$2,%hi(attack_daddr)
	lui	$24,%hi(attack_saddr)
	addiu	$2,$2,%lo(attack_daddr)
	addiu	$24,$24,%lo(attack_saddr)
	lui	$4,%hi($LC16)
	lbu	$3,35($2)
	lbu	$7,34($24)
	addiu	$4,$4,%lo($LC16)
	lbu	$6,33($24)
	lbu	$5,32($24)
	sw	$3,32($sp)
	lbu	$3,34($2)
	sw	$3,28($sp)
	lbu	$3,33($2)
	sw	$3,24($sp)
	lbu	$2,32($2)
	sw	$2,20($sp)
	lbu	$24,35($24)
	jal	doslog_printk
	sw	$24,16($sp)

$LVL28 = .
	.loc 1 3040 0
	andi	$16,$16,0x2000
$LVL29 = .
$L131:
	beq	$16,$0,$L132
	lui	$24,%hi(dos_pkt)

	.loc 1 3048 0
	lui	$2,%hi(attack_daddr)
	lui	$24,%hi(attack_saddr)
	addiu	$2,$2,%lo(attack_daddr)
	addiu	$24,$24,%lo(attack_saddr)
	lui	$4,%hi($LC17)
	lbu	$3,39($2)
	lbu	$7,38($24)
	addiu	$4,$4,%lo($LC17)
	lbu	$6,37($24)
	lbu	$5,36($24)
	sw	$3,32($sp)
	lbu	$3,38($2)
	sw	$3,28($sp)
	lbu	$3,37($2)
	sw	$3,24($sp)
	lbu	$2,36($2)
	sw	$2,20($sp)
	lbu	$24,39($24)
	jal	doslog_printk
	sw	$24,16($sp)

$LVL30 = .
$LBE7 = .
$LBE6 = .
$LBB9 = .
$LBB10 = .
	.loc 1 2362 0
	lui	$24,%hi(dos_pkt)
$L132:
$LBE10 = .
$LBE9 = .
$LBB12 = .
$LBB8 = .
	.loc 1 3055 0
	sw	$0,%lo(LogFlag)($18)
$LVL31 = .
$LBE8 = .
$LBE12 = .
$LBB13 = .
$LBB11 = .
	.loc 1 2363 0
	lui	$2,%hi(dos_pkt+18432)
	.loc 1 2362 0
	addiu	$24,$24,%lo(dos_pkt)
	.loc 1 2363 0
	addiu	$2,$2,%lo(dos_pkt+18432)
$LVL32 = .
$L36:
	.loc 1 2365 0
	sb	$0,0($24)
	.loc 1 2372 0
	addiu	$24,$24,36
$LVL33 = .
	.loc 1 2366 0
	sw	$0,-12($24)
	.loc 1 2367 0
	sw	$0,-32($24)
	.loc 1 2368 0
	sw	$0,-28($24)
	.loc 1 2369 0
	sw	$0,-24($24)
	.loc 1 2370 0
	sw	$0,-20($24)
$LVL34 = .
	.loc 1 2363 0
	bne	$24,$2,$L36
	sw	$0,-16($24)

$LBE11 = .
$LBE13 = .
	.loc 1 3084 0
	j	$L112
	lui	$24,%hi(none_dos_drop_pkt_cnt)

$LVL35 = .
$L13:
	.loc 1 3085 0
	beql	$2,$0,$L40
	sw	$0,%lo(none_dos_drop_pkt_cnt)($24)

	.loc 1 3086 0
	lui	$3,%hi(item_backup)
	sw	$2,%lo(item_backup)($3)
	.loc 1 3087 0
	lui	$2,%hi(item)
	j	$L41
	sw	$0,%lo(item)($2)

$L111:
	.loc 1 3092 0
	lw	$4,%lo(item_backup)($3)
	beq	$4,$0,$L39
	nop

	.loc 1 3093 0
	sw	$4,%lo(item)($17)
	.loc 1 3094 0
	sw	$0,%lo(item_backup)($3)
$L39:
	.loc 1 3098 0
	beql	$2,$0,$L133
	lui	$24,%hi(cyg_hz)

$L41:
	.loc 1 3099 0
	sw	$0,%lo(none_dos_drop_pkt_cnt)($24)
$L40:
	.loc 1 3102 0
	lui	$24,%hi(cyg_hz)
$L133:
	lui	$6,%hi(dos_timer_fn)
	lui	$4,%hi(dos_timer)
	lw	$5,%lo(cyg_hz)($24)
	move	$7,$0
	addiu	$6,$6,%lo(dos_timer_fn)
	jal	cyg_callout_reset
	addiu	$4,$4,%lo(dos_timer)

$LVL36 = .
	.loc 1 3106 0
	lw	$31,52($sp)
	lw	$18,48($sp)
	lw	$17,44($sp)
	lw	$16,40($sp)
	j	$31
	addiu	$sp,$sp,56

	.cfi_def_cfa_offset 0
	.cfi_restore 16
	.cfi_restore 17
	.cfi_restore 18
	.cfi_restore 31
	.set	macro
	.set	reorder
	.end	dos_timer_fn
	.cfi_endproc
$LFE91:
	.size	dos_timer_fn, .-dos_timer_fn
	.section	.text.Add_Pattern_ACL_For_ContentFilter,"ax",@progbits
	.align	2
	.globl	Add_Pattern_ACL_For_ContentFilter
$LFB71 = .
	.loc 1 1167 0
	.cfi_startproc
	.set	nomips16
	.set	nomicromips
	.ent	Add_Pattern_ACL_For_ContentFilter
	.type	Add_Pattern_ACL_For_ContentFilter, @function
Add_Pattern_ACL_For_ContentFilter:
	.frame	$sp,0,$31		# vars= 0, regs= 0/0, args= 0, gp= 0
	.mask	0x00000000,0
	.fmask	0x00000000,0
	.set	noreorder
	.set	nomacro
	.loc 1 1249 0
	j	$31
	move	$2,$0

	.set	macro
	.set	reorder
	.end	Add_Pattern_ACL_For_ContentFilter
	.cfi_endproc
$LFE71:
	.size	Add_Pattern_ACL_For_ContentFilter, .-Add_Pattern_ACL_For_ContentFilter
	.section	.text.Del_Pattern_ACL_For_ContentFilter,"ax",@progbits
	.align	2
	.globl	Del_Pattern_ACL_For_ContentFilter
$LFB72 = .
	.loc 1 1251 0
	.cfi_startproc
	.set	nomips16
	.set	nomicromips
	.ent	Del_Pattern_ACL_For_ContentFilter
	.type	Del_Pattern_ACL_For_ContentFilter, @function
Del_Pattern_ACL_For_ContentFilter:
	.frame	$sp,0,$31		# vars= 0, regs= 0/0, args= 0, gp= 0
	.mask	0x00000000,0
	.fmask	0x00000000,0
	.set	noreorder
	.set	nomacro
	.loc 1 1332 0
	j	$31
	move	$2,$0

	.set	macro
	.set	reorder
	.end	Del_Pattern_ACL_For_ContentFilter
	.cfi_endproc
$LFE72:
	.size	Del_Pattern_ACL_For_ContentFilter, .-Del_Pattern_ACL_For_ContentFilter
	.section	.rodata.str1.4
	.align	2
$LC18:
	.ascii	"item is 0x%x\012\000"
	.section	.text.rtl_setDosParam,"ax",@progbits
	.align	2
	.globl	rtl_setDosParam
$LFB93 = .
	.loc 1 3299 0
	.cfi_startproc
	.set	nomips16
	.set	nomicromips
	.ent	rtl_setDosParam
	.type	rtl_setDosParam, @function
rtl_setDosParam:
	.frame	$sp,24,$31		# vars= 0, regs= 2/0, args= 16, gp= 0
	.mask	0x80010000,-4
	.fmask	0x00000000,0
	.set	noreorder
	.set	nomacro
$LVL37 = .
	addiu	$sp,$sp,-24
	.cfi_def_cfa_offset 24
	sw	$31,20($sp)
	sw	$16,16($sp)
	.cfi_offset 31, -4
	.cfi_offset 16, -8
	.loc 1 3300 0
	lui	$24,%hi(op_mode)
	lw	$2,12($4)
	.loc 1 3299 0
	move	$16,$4
	.loc 1 3303 0
	lw	$5,0($4)
	.loc 1 3300 0
	sb	$2,%lo(op_mode)($24)
	.loc 1 3301 0
	lui	$24,%hi(lan_addr)
	lw	$2,4($4)
	sw	$2,%lo(lan_addr)($24)
	.loc 1 3302 0
	lui	$24,%hi(lan_mask)
	lw	$2,8($4)
	.loc 1 3304 0
	lui	$4,%hi($LC18)
$LVL38 = .
	addiu	$4,$4,%lo($LC18)
	.loc 1 3302 0
	sw	$2,%lo(lan_mask)($24)
	.loc 1 3303 0
	lui	$24,%hi(item)
	.loc 1 3304 0
	jal	diag_printf
	sw	$5,%lo(item)($24)

$LVL39 = .
	.loc 1 3305 0
	lui	$24,%hi(item_backup)
	.loc 1 3306 0
	lw	$2,16($16)
	.loc 1 3305 0
	sw	$0,%lo(item_backup)($24)
	.loc 1 3306 0
	lui	$24,%hi(whole_syn_threshold)
	.loc 1 3315 0
	lw	$31,20($sp)
	.loc 1 3306 0
	sw	$2,%lo(whole_syn_threshold)($24)
	.loc 1 3307 0
	lui	$24,%hi(whole_fin_threshold)
	lw	$2,20($16)
	sw	$2,%lo(whole_fin_threshold)($24)
	.loc 1 3308 0
	lui	$24,%hi(whole_udp_threshold)
	lw	$2,24($16)
	sw	$2,%lo(whole_udp_threshold)($24)
	.loc 1 3309 0
	lui	$24,%hi(whole_icmp_threshold)
	lw	$2,28($16)
	sw	$2,%lo(whole_icmp_threshold)($24)
	.loc 1 3310 0
	lui	$24,%hi(per_syn_threshold)
	lw	$2,32($16)
	sw	$2,%lo(per_syn_threshold)($24)
	.loc 1 3311 0
	lui	$24,%hi(per_fin_threshold)
	lw	$2,36($16)
	sw	$2,%lo(per_fin_threshold)($24)
	.loc 1 3312 0
	lui	$24,%hi(per_udp_threshold)
	lw	$2,40($16)
	sw	$2,%lo(per_udp_threshold)($24)
	.loc 1 3313 0
	lui	$24,%hi(per_icmp_threshold)
	lw	$2,44($16)
	sw	$2,%lo(per_icmp_threshold)($24)
	.loc 1 3314 0
	lui	$24,%hi(block_time)
	lw	$2,48($16)
	.loc 1 3315 0
	lw	$16,16($sp)
$LVL40 = .
	.loc 1 3314 0
	sw	$2,%lo(block_time)($24)
	.loc 1 3315 0
	j	$31
	addiu	$sp,$sp,24

	.cfi_def_cfa_offset 0
	.cfi_restore 16
	.cfi_restore 31
	.set	macro
	.set	reorder
	.end	rtl_setDosParam
	.cfi_endproc
$LFE93:
	.size	rtl_setDosParam, .-rtl_setDosParam
	.section	.rodata.str1.4
	.align	2
$LC19:
	.ascii	"op_mode is %d\012\000"
	.align	2
$LC20:
	.ascii	"lan ip is 0x%x\012\000"
	.align	2
$LC21:
	.ascii	"lan mask is 0x%x\012\000"
	.align	2
$LC22:
	.ascii	"whole_syn_threshold is %d\012\000"
	.align	2
$LC23:
	.ascii	"whole_fin_threshold is %d\012\000"
	.align	2
$LC24:
	.ascii	"whole_udp_threshold is %d\012\000"
	.align	2
$LC25:
	.ascii	"whole_icmp_threshold is %d\012\000"
	.align	2
$LC26:
	.ascii	"per_syn_threshold is %d\012\000"
	.align	2
$LC27:
	.ascii	"per_fin_threshold is %d\012\000"
	.align	2
$LC28:
	.ascii	"per_udp_threshold is %d\012\000"
	.align	2
$LC29:
	.ascii	"per_icmp_threshold is %d\012\000"
	.align	2
$LC30:
	.ascii	"block_time is %d\012\000"
	.section	.text.rtl_showDosParamSetting,"ax",@progbits
	.align	2
	.globl	rtl_showDosParamSetting
$LFB94 = .
	.loc 1 3318 0
	.cfi_startproc
	.set	nomips16
	.set	nomicromips
	.ent	rtl_showDosParamSetting
	.type	rtl_showDosParamSetting, @function
rtl_showDosParamSetting:
	.frame	$sp,24,$31		# vars= 0, regs= 2/0, args= 16, gp= 0
	.mask	0x80010000,-4
	.fmask	0x00000000,0
	.set	noreorder
	.set	nomacro
	addiu	$sp,$sp,-24
	.cfi_def_cfa_offset 24
	sw	$31,20($sp)
	sw	$16,16($sp)
	.cfi_offset 31, -4
	.cfi_offset 16, -8
	.loc 1 3319 0
	lui	$16,%hi(op_mode)
	lui	$4,%hi($LC19)
	lb	$5,%lo(op_mode)($16)
	jal	diag_printf
	addiu	$4,$4,%lo($LC19)

$LVL41 = .
	.loc 1 3320 0
	lui	$24,%hi(lan_addr)
	lui	$4,%hi($LC20)
	lw	$5,%lo(lan_addr)($24)
	jal	diag_printf
	addiu	$4,$4,%lo($LC20)

$LVL42 = .
	.loc 1 3321 0
	lui	$24,%hi(lan_mask)
	lui	$4,%hi($LC21)
	lw	$5,%lo(lan_mask)($24)
	jal	diag_printf
	addiu	$4,$4,%lo($LC21)

$LVL43 = .
	.loc 1 3322 0
	lui	$24,%hi(item)
	lui	$4,%hi($LC18)
	lw	$5,%lo(item)($24)
	jal	diag_printf
	addiu	$4,$4,%lo($LC18)

$LVL44 = .
	.loc 1 3323 0
	lui	$24,%hi(whole_syn_threshold)
	lui	$4,%hi($LC22)
	lw	$5,%lo(whole_syn_threshold)($24)
	jal	diag_printf
	addiu	$4,$4,%lo($LC22)

$LVL45 = .
	.loc 1 3324 0
	lui	$24,%hi(whole_fin_threshold)
	lui	$4,%hi($LC23)
	lw	$5,%lo(whole_fin_threshold)($24)
	jal	diag_printf
	addiu	$4,$4,%lo($LC23)

$LVL46 = .
	.loc 1 3325 0
	lui	$24,%hi(whole_udp_threshold)
	lui	$4,%hi($LC24)
	lw	$5,%lo(whole_udp_threshold)($24)
	jal	diag_printf
	addiu	$4,$4,%lo($LC24)

$LVL47 = .
	.loc 1 3326 0
	lui	$24,%hi(whole_icmp_threshold)
	lui	$4,%hi($LC25)
	lw	$5,%lo(whole_icmp_threshold)($24)
	jal	diag_printf
	addiu	$4,$4,%lo($LC25)

$LVL48 = .
	.loc 1 3327 0
	lui	$24,%hi(per_syn_threshold)
	lui	$4,%hi($LC26)
	lw	$5,%lo(per_syn_threshold)($24)
	jal	diag_printf
	addiu	$4,$4,%lo($LC26)

$LVL49 = .
	.loc 1 3328 0
	lui	$24,%hi(per_fin_threshold)
	lui	$4,%hi($LC27)
	lw	$5,%lo(per_fin_threshold)($24)
	jal	diag_printf
	addiu	$4,$4,%lo($LC27)

$LVL50 = .
	.loc 1 3329 0
	lui	$24,%hi(per_udp_threshold)
	lui	$4,%hi($LC28)
	lw	$5,%lo(per_udp_threshold)($24)
	jal	diag_printf
	addiu	$4,$4,%lo($LC28)

$LVL51 = .
	.loc 1 3330 0
	lui	$24,%hi(per_icmp_threshold)
	lui	$4,%hi($LC29)
	lw	$5,%lo(per_icmp_threshold)($24)
	jal	diag_printf
	addiu	$4,$4,%lo($LC29)

$LVL52 = .
	.loc 1 3331 0
	lui	$4,%hi($LC30)
	lb	$5,%lo(op_mode)($16)
	jal	diag_printf
	addiu	$4,$4,%lo($LC30)

$LVL53 = .
	.loc 1 3332 0
	lw	$31,20($sp)
	lw	$16,16($sp)
	j	$31
	addiu	$sp,$sp,24

	.cfi_def_cfa_offset 0
	.cfi_restore 16
	.cfi_restore 31
	.set	macro
	.set	reorder
	.end	rtl_showDosParamSetting
	.cfi_endproc
$LFE94:
	.size	rtl_showDosParamSetting, .-rtl_showDosParamSetting
	.section	.text.filter_addconnect,"ax",@progbits
	.align	2
	.globl	filter_addconnect
$LFB95 = .
	.loc 1 3337 0
	.cfi_startproc
	.set	nomips16
	.set	nomicromips
	.ent	filter_addconnect
	.type	filter_addconnect, @function
filter_addconnect:
	.frame	$sp,0,$31		# vars= 0, regs= 0/0, args= 0, gp= 0
	.mask	0x00000000,0
	.fmask	0x00000000,0
	.set	noreorder
	.set	nomacro
$LVL54 = .
	.loc 1 3340 0
	andi	$24,$4,0xff
	sll	$2,$24,2
	lui	$24,%hi(ConnectedIp)
	addiu	$24,$24,%lo(ConnectedIp)
	addu	$24,$2,$24
	j	$31
	sw	$4,0($24)

	.set	macro
	.set	reorder
	.end	filter_addconnect
	.cfi_endproc
$LFE95:
	.size	filter_addconnect, .-filter_addconnect
	.section	.text.filter_delconnect,"ax",@progbits
	.align	2
	.globl	filter_delconnect
$LFB96 = .
	.loc 1 3345 0
	.cfi_startproc
	.set	nomips16
	.set	nomicromips
	.ent	filter_delconnect
	.type	filter_delconnect, @function
filter_delconnect:
	.frame	$sp,0,$31		# vars= 0, regs= 0/0, args= 0, gp= 0
	.mask	0x00000000,0
	.fmask	0x00000000,0
	.set	noreorder
	.set	nomacro
$LVL55 = .
	.loc 1 3348 0
	andi	$4,$4,0x00ff
$LVL56 = .
	sll	$24,$4,2
	lui	$4,%hi(ConnectedIp)
	addiu	$4,$4,%lo(ConnectedIp)
	addu	$4,$24,$4
	j	$31
	sw	$0,0($4)

	.set	macro
	.set	reorder
	.end	filter_delconnect
	.cfi_endproc
$LFE96:
	.size	filter_delconnect, .-filter_delconnect
	.section	.text.filter_checkConnect,"ax",@progbits
	.align	2
	.globl	filter_checkConnect
$LFB97 = .
	.loc 1 3353 0
	.cfi_startproc
	.set	nomips16
	.set	nomicromips
	.ent	filter_checkConnect
	.type	filter_checkConnect, @function
filter_checkConnect:
	.frame	$sp,0,$31		# vars= 0, regs= 0/0, args= 0, gp= 0
	.mask	0x00000000,0
	.fmask	0x00000000,0
	.set	noreorder
	.set	nomacro
$LVL57 = .
	.loc 1 3356 0
	lui	$5,%hi(ConnectedIp)
	andi	$24,$4,0xff
	sll	$3,$24,2
	addiu	$5,$5,%lo(ConnectedIp)
	addu	$24,$3,$5
	lw	$24,0($24)
	beq	$24,$0,$L146
	li	$2,1			# 0x1

	.loc 1 3356 0 is_stmt 0 discriminator 1
	xor	$24,$24,$4
	sltu	$2,$0,$24
$LVL58 = .
$L146:
	.loc 1 3361 0 is_stmt 1
	j	$31
	nop

	.set	macro
	.set	reorder
	.end	filter_checkConnect
	.cfi_endproc
$LFE97:
	.size	filter_checkConnect, .-filter_checkConnect
	.section	.text.get_filterEnabled,"ax",@progbits
	.align	2
	.globl	get_filterEnabled
$LFB98 = .
	.loc 1 3432 0
	.cfi_startproc
	.set	nomips16
	.set	nomicromips
	.ent	get_filterEnabled
	.type	get_filterEnabled, @function
get_filterEnabled:
	.frame	$sp,0,$31		# vars= 0, regs= 0/0, args= 0, gp= 0
	.mask	0x00000000,0
	.fmask	0x00000000,0
	.set	noreorder
	.set	nomacro
	.loc 1 3437 0
	lui	$24,%hi(item)
	lw	$24,%lo(item)($24)
	bne	$24,$0,$L150
	li	$2,1			# 0x1

	.loc 1 3444 0
	lui	$2,%hi(none_dos_drop_pkt_cnt)
	lw	$24,%lo(none_dos_drop_pkt_cnt)($2)
	addiu	$24,$24,1
	sw	$24,%lo(none_dos_drop_pkt_cnt)($2)
	.loc 1 3445 0
	move	$2,$0
$L150:
	.loc 1 3451 0
	j	$31
	nop

	.set	macro
	.set	reorder
	.end	get_filterEnabled
	.cfi_endproc
$LFE98:
	.size	get_filterEnabled, .-get_filterEnabled
	.section	.text.filter_enter,"ax",@progbits
	.align	2
	.globl	filter_enter
$LFB99 = .
	.loc 1 3454 0
	.cfi_startproc
	.set	nomips16
	.set	nomicromips
	.ent	filter_enter
	.type	filter_enter, @function
filter_enter:
	.frame	$sp,40,$31		# vars= 0, regs= 6/0, args= 16, gp= 0
	.mask	0x801f0000,-4
	.fmask	0x00000000,0
	.set	noreorder
	.set	nomacro
$LVL59 = .
	addiu	$sp,$sp,-40
	.cfi_def_cfa_offset 40
	sw	$31,36($sp)
	sw	$20,32($sp)
	sw	$19,28($sp)
	sw	$18,24($sp)
	sw	$17,20($sp)
	sw	$16,16($sp)
	.cfi_offset 31, -4
	.cfi_offset 20, -8
	.cfi_offset 19, -12
	.cfi_offset 18, -16
	.cfi_offset 17, -20
	.cfi_offset 16, -24
$LVL60 = .
	.loc 1 3463 0
	lui	$18,%hi(item)
	lw	$19,%lo(item)($18)
	beq	$19,$0,$L328
	move	$17,$6

	.loc 1 3475 0
	lw	$16,8($4)
$LVL61 = .
	.loc 1 3477 0
	beq	$6,$0,$L154
	move	$20,$5

	.loc 1 3477 0 is_stmt 0 discriminator 1
	li	$6,6			# 0x6
$LVL62 = .
	addiu	$5,$5,236
$LVL63 = .
	jal	memcmp
	move	$4,$17

$LVL64 = .
	beql	$2,$0,$L155
	lbu	$24,13($17)

$LVL65 = .
	.loc 1 3478 0 is_stmt 1
	j	$L327
	li	$2,4			# 0x4

$LVL66 = .
$L155:
	.loc 1 3480 0 discriminator 1
	lbu	$2,12($17)
	sll	$24,$24,8
	or	$24,$24,$2
	li	$2,8			# 0x8
	bne	$24,$2,$L327
	li	$2,4			# 0x4

$LVL67 = .
$L154:
	.loc 1 3575 0
	andi	$19,$19,0x1
	bnel	$19,$0,$L157
	lbu	$19,0($16)

$LVL68 = .
$L159:
	.loc 1 3581 0
	lbu	$2,9($16)
$L338:
	li	$24,1			# 0x1
	bnel	$2,$24,$L337
	lui	$2,%hi(none_dos_drop_pkt_cnt)

	j	$L327
	li	$2,4			# 0x4

$LVL69 = .
$L157:
$LBB56 = .
$LBB57 = .
	.loc 1 3130 0
	move	$4,$20
$LVL70 = .
	jal	rtl_isWanDevDecideByIfp
	andi	$19,$19,0xf

$LVL71 = .
	beql	$2,$0,$L338
	lbu	$2,9($16)

	.loc 1 3133 0
	lw	$18,%lo(item)($18)
	.loc 1 3115 0
	sll	$19,$19,2
	.loc 1 3133 0
	andi	$24,$18,0x3fe
	bne	$24,$0,$L160
	addu	$19,$16,$19

$LVL72 = .
$LBE57 = .
$LBE56 = .
	.loc 1 3113 0
	j	$L161
	move	$17,$0

$LVL73 = .
$L160:
$LBB113 = .
$LBB108 = .
	.loc 1 3135 0
	jal	dos_pkt_locate
	move	$4,$16

$LVL74 = .
	beq	$2,$0,$L161
	move	$17,$0

	.loc 1 3137 0
	andi	$24,$18,0x22
	beq	$24,$0,$L339
	andi	$24,$18,0x44

$LVL75 = .
$LBB58 = .
$LBB59 = .
	.loc 1 2415 0
	lui	$24,%hi(cur_p_pkt)
	.loc 1 2417 0
	lbu	$3,9($16)
	.loc 1 2415 0
	lw	$2,%lo(cur_p_pkt)($24)
$LVL76 = .
	.loc 1 2417 0
	li	$24,6			# 0x6
	bne	$3,$24,$L339
	andi	$24,$18,0x44

	lbu	$24,13($19)
	li	$3,2			# 0x2
	andi	$24,$24,0x3f
	bne	$24,$3,$L339
	andi	$24,$18,0x44

	.loc 1 2419 0
	lui	$3,%hi(block)
	li	$24,1			# 0x1
	lw	$4,%lo(block)($3)
	bne	$4,$24,$L340
	lui	$4,%hi(whole_syn_block)

	lwl	$24,15($16)
	lui	$4,%hi(attack_saddr+4)
$LVL77 = .
	lw	$4,%lo(attack_saddr+4)($4)
	lwr	$24,12($16)
	beq	$4,$24,$L164
	li	$17,-1			# 0xffffffffffffffff

	.loc 1 2422 0
	lui	$4,%hi(whole_syn_block)
$L340:
	li	$5,1			# 0x1
	lw	$24,%lo(whole_syn_block)($4)
	beq	$24,$5,$L164
	li	$17,-1			# 0xffffffffffffffff

	.loc 1 2425 0
	lw	$24,4($2)
	.loc 1 2426 0
	lui	$6,%hi(whole_syn_count)
	.loc 1 2425 0
	addiu	$24,$24,1
	sw	$24,4($2)
	.loc 1 2426 0
	lw	$2,%lo(whole_syn_count)($6)
$LVL78 = .
	addiu	$2,$2,1
	sw	$2,%lo(whole_syn_count)($6)
	.loc 1 2428 0
	lui	$6,%hi(whole_syn_threshold)
	lw	$6,%lo(whole_syn_threshold)($6)
	slt	$2,$6,$2
	beq	$2,$0,$L341
	lui	$2,%hi(per_syn_threshold)

	andi	$2,$18,0x2
	beq	$2,$0,$L341
	lui	$2,%hi(per_syn_threshold)

	blez	$6,$L342
	lw	$2,%lo(per_syn_threshold)($2)

	.loc 1 2430 0
	sw	$5,%lo(whole_syn_block)($4)
	.loc 1 2431 0
	lui	$4,%hi(LogFlag)
	lw	$2,%lo(LogFlag)($4)
	ori	$2,$2,0x2
	sw	$2,%lo(LogFlag)($4)
	.loc 1 2434 0
	lui	$2,%hi(per_syn_threshold)
$L341:
	lw	$2,%lo(per_syn_threshold)($2)
$L342:
	slt	$24,$2,$24
	beq	$24,$0,$L330
	andi	$24,$18,0x20

	beq	$24,$0,$L164
	move	$17,$0

	blez	$2,$L164
	lui	$2,%hi(attack_saddr+4)

	.loc 1 2436 0
	lwl	$24,15($16)
	lwr	$24,12($16)
	sw	$24,%lo(attack_saddr+4)($2)
	.loc 1 2437 0
	lui	$2,%hi(attack_daddr+4)
	lwl	$24,19($16)
	lwr	$24,16($16)
	sw	$24,%lo(attack_daddr+4)($2)
	.loc 1 2438 0
	li	$24,1			# 0x1
	.loc 1 2439 0
	lui	$2,%hi(LogFlag)
	.loc 1 2438 0
	sw	$24,%lo(block)($3)
	.loc 1 2439 0
	lw	$24,%lo(LogFlag)($2)
	ori	$24,$24,0x20
	sw	$24,%lo(LogFlag)($2)
$LVL79 = .
$L330:
	.loc 1 2443 0
	move	$17,$0
$L164:
$LVL80 = .
$LBE59 = .
$LBE58 = .
	.loc 1 3139 0
	andi	$24,$18,0x44
$L339:
	beq	$24,$0,$L343
	andi	$24,$18,0x88

$LVL81 = .
$LBB60 = .
$LBB61 = .
	.loc 1 2452 0
	lui	$24,%hi(cur_p_pkt)
	.loc 1 2453 0
	lbu	$2,9($16)
	.loc 1 2452 0
	lw	$6,%lo(cur_p_pkt)($24)
$LVL82 = .
	.loc 1 2453 0
	li	$24,6			# 0x6
	bne	$2,$24,$L170
	move	$24,$0

	lbu	$24,13($19)
	li	$2,1			# 0x1
	andi	$24,$24,0x3f
	bnel	$24,$2,$L170
	move	$24,$0

	.loc 1 2455 0
	lui	$3,%hi(block)
	lw	$2,%lo(block)($3)
	bne	$2,$24,$L344
	lui	$4,%hi(whole_fin_block)

	lwl	$2,15($16)
	lui	$24,%hi(attack_saddr+8)
	lw	$4,%lo(attack_saddr+8)($24)
	lwr	$2,12($16)
	beq	$4,$2,$L170
	li	$24,-1			# 0xffffffffffffffff

	.loc 1 2458 0
	lui	$4,%hi(whole_fin_block)
$L344:
	li	$5,1			# 0x1
	lw	$2,%lo(whole_fin_block)($4)
	beq	$2,$5,$L170
	li	$24,-1			# 0xffffffffffffffff

	.loc 1 2461 0
	lw	$24,8($6)
	addiu	$24,$24,1
	sw	$24,8($6)
	.loc 1 2462 0
	lui	$6,%hi(whole_fin_count)
$LVL83 = .
	lw	$2,%lo(whole_fin_count)($6)
	addiu	$2,$2,1
	sw	$2,%lo(whole_fin_count)($6)
	.loc 1 2464 0
	lui	$6,%hi(whole_fin_threshold)
	lw	$6,%lo(whole_fin_threshold)($6)
	slt	$2,$6,$2
	beq	$2,$0,$L345
	lui	$2,%hi(per_fin_threshold)

	andi	$2,$18,0x4
	beq	$2,$0,$L345
	lui	$2,%hi(per_fin_threshold)

	blez	$6,$L346
	lw	$2,%lo(per_fin_threshold)($2)

	.loc 1 2466 0
	sw	$5,%lo(whole_fin_block)($4)
	.loc 1 2467 0
	lui	$4,%hi(LogFlag)
	lw	$2,%lo(LogFlag)($4)
	ori	$2,$2,0x4
	sw	$2,%lo(LogFlag)($4)
	.loc 1 2470 0
	lui	$2,%hi(per_fin_threshold)
$L345:
	lw	$2,%lo(per_fin_threshold)($2)
$L346:
	slt	$24,$2,$24
	beq	$24,$0,$L331
	andi	$24,$18,0x40

	beq	$24,$0,$L170
	move	$24,$0

	blez	$2,$L170
	lui	$2,%hi(attack_saddr+8)

	.loc 1 2472 0
	lwl	$24,15($16)
	lwr	$24,12($16)
	sw	$24,%lo(attack_saddr+8)($2)
	.loc 1 2473 0
	lui	$2,%hi(attack_daddr+8)
	lwl	$24,19($16)
	lwr	$24,16($16)
	sw	$24,%lo(attack_daddr+8)($2)
	.loc 1 2474 0
	li	$24,1			# 0x1
	.loc 1 2475 0
	lui	$2,%hi(LogFlag)
	.loc 1 2474 0
	sw	$24,%lo(block)($3)
	.loc 1 2475 0
	lw	$24,%lo(LogFlag)($2)
	ori	$24,$24,0x40
	sw	$24,%lo(LogFlag)($2)
$L331:
	.loc 1 2478 0
	move	$24,$0
$L170:
$LBE61 = .
$LBE60 = .
	.loc 1 3140 0
	or	$17,$17,$24
$LVL84 = .
	.loc 1 3141 0
	andi	$24,$18,0x88
$L343:
	beq	$24,$0,$L347
	andi	$24,$18,0x110

$LVL85 = .
$LBB62 = .
$LBB63 = .
	.loc 1 2484 0
	lui	$24,%hi(cur_p_pkt)
	.loc 1 2486 0
	lbu	$2,9($16)
	.loc 1 2484 0
	lw	$6,%lo(cur_p_pkt)($24)
$LVL86 = .
	.loc 1 2486 0
	li	$24,17			# 0x11
	bne	$2,$24,$L176
	move	$24,$0

	.loc 1 2488 0
	lui	$3,%hi(block)
	li	$24,1			# 0x1
	lw	$2,%lo(block)($3)
	bne	$2,$24,$L348
	lui	$4,%hi(whole_udp_block)

	lwl	$2,15($16)
	lui	$24,%hi(attack_saddr+12)
	lw	$4,%lo(attack_saddr+12)($24)
	lwr	$2,12($16)
	beq	$4,$2,$L176
	li	$24,-1			# 0xffffffffffffffff

	.loc 1 2491 0
	lui	$4,%hi(whole_udp_block)
$L348:
	li	$5,1			# 0x1
	lw	$2,%lo(whole_udp_block)($4)
	beq	$2,$5,$L176
	li	$24,-1			# 0xffffffffffffffff

	.loc 1 2494 0
	lw	$24,12($6)
	addiu	$24,$24,1
	sw	$24,12($6)
	.loc 1 2495 0
	lui	$6,%hi(whole_udp_count)
$LVL87 = .
	lw	$2,%lo(whole_udp_count)($6)
	addiu	$2,$2,1
	sw	$2,%lo(whole_udp_count)($6)
	.loc 1 2497 0
	lui	$6,%hi(whole_udp_threshold)
	lw	$6,%lo(whole_udp_threshold)($6)
	slt	$2,$6,$2
	beq	$2,$0,$L349
	lui	$2,%hi(per_udp_threshold)

	andi	$2,$18,0x8
	beq	$2,$0,$L349
	lui	$2,%hi(per_udp_threshold)

	blez	$6,$L350
	lw	$2,%lo(per_udp_threshold)($2)

	.loc 1 2499 0
	sw	$5,%lo(whole_udp_block)($4)
	.loc 1 2500 0
	lui	$4,%hi(LogFlag)
	lw	$2,%lo(LogFlag)($4)
	ori	$2,$2,0x8
	sw	$2,%lo(LogFlag)($4)
	.loc 1 2503 0
	lui	$2,%hi(per_udp_threshold)
$L349:
	lw	$2,%lo(per_udp_threshold)($2)
$L350:
	slt	$24,$2,$24
	beq	$24,$0,$L332
	andi	$24,$18,0x80

	beq	$24,$0,$L176
	move	$24,$0

	blez	$2,$L176
	lui	$2,%hi(attack_saddr+12)

	.loc 1 2505 0
	lwl	$24,15($16)
	lwr	$24,12($16)
	sw	$24,%lo(attack_saddr+12)($2)
	.loc 1 2506 0
	lui	$2,%hi(attack_daddr+12)
	lwl	$24,19($16)
	lwr	$24,16($16)
	sw	$24,%lo(attack_daddr+12)($2)
	.loc 1 2507 0
	li	$24,1			# 0x1
	.loc 1 2508 0
	lui	$2,%hi(LogFlag)
	.loc 1 2507 0
	sw	$24,%lo(block)($3)
	.loc 1 2508 0
	lw	$24,%lo(LogFlag)($2)
	ori	$24,$24,0x80
	sw	$24,%lo(LogFlag)($2)
$L332:
	.loc 1 2511 0
	move	$24,$0
$L176:
$LBE63 = .
$LBE62 = .
	.loc 1 3142 0
	or	$17,$17,$24
$LVL88 = .
	.loc 1 3143 0
	andi	$24,$18,0x110
$L347:
	beq	$24,$0,$L351
	andi	$24,$18,0x200

$LVL89 = .
$LBB64 = .
$LBB65 = .
	.loc 1 2517 0
	lui	$24,%hi(cur_p_pkt)
	.loc 1 2518 0
	li	$2,1			# 0x1
	.loc 1 2517 0
	lw	$6,%lo(cur_p_pkt)($24)
$LVL90 = .
	.loc 1 2518 0
	lbu	$24,9($16)
	bnel	$24,$2,$L182
	move	$24,$0

	.loc 1 2520 0
	lui	$3,%hi(block)
	lw	$2,%lo(block)($3)
	bne	$2,$24,$L352
	lui	$4,%hi(whole_icmp_block)

	lwl	$2,15($16)
	lui	$24,%hi(attack_saddr+16)
	lw	$4,%lo(attack_saddr+16)($24)
	lwr	$2,12($16)
	beq	$4,$2,$L182
	li	$24,-1			# 0xffffffffffffffff

	.loc 1 2523 0
	lui	$4,%hi(whole_icmp_block)
$L352:
	li	$5,1			# 0x1
	lw	$2,%lo(whole_icmp_block)($4)
	beq	$2,$5,$L182
	li	$24,-1			# 0xffffffffffffffff

	.loc 1 2526 0
	lw	$24,16($6)
	addiu	$24,$24,1
	sw	$24,16($6)
	.loc 1 2527 0
	lui	$6,%hi(whole_icmp_count)
$LVL91 = .
	lw	$2,%lo(whole_icmp_count)($6)
	addiu	$2,$2,1
	sw	$2,%lo(whole_icmp_count)($6)
	.loc 1 2529 0
	lui	$6,%hi(whole_icmp_threshold)
	lw	$6,%lo(whole_icmp_threshold)($6)
	slt	$2,$6,$2
	beq	$2,$0,$L353
	lui	$2,%hi(per_icmp_threshold)

	andi	$2,$18,0x10
	beq	$2,$0,$L353
	lui	$2,%hi(per_icmp_threshold)

	blez	$6,$L354
	lw	$2,%lo(per_icmp_threshold)($2)

	.loc 1 2531 0
	sw	$5,%lo(whole_icmp_block)($4)
	.loc 1 2532 0
	lui	$4,%hi(LogFlag)
	lw	$2,%lo(LogFlag)($4)
	ori	$2,$2,0x10
	sw	$2,%lo(LogFlag)($4)
	.loc 1 2535 0
	lui	$2,%hi(per_icmp_threshold)
$L353:
	lw	$2,%lo(per_icmp_threshold)($2)
$L354:
	slt	$24,$2,$24
	beq	$24,$0,$L333
	andi	$24,$18,0x100

	beq	$24,$0,$L182
	move	$24,$0

	blez	$2,$L182
	lui	$2,%hi(attack_saddr+16)

	.loc 1 2537 0
	lwl	$24,15($16)
	lwr	$24,12($16)
	sw	$24,%lo(attack_saddr+16)($2)
	.loc 1 2538 0
	lui	$2,%hi(attack_daddr+16)
	lwl	$24,19($16)
	lwr	$24,16($16)
	sw	$24,%lo(attack_daddr+16)($2)
	.loc 1 2539 0
	li	$24,1			# 0x1
	.loc 1 2540 0
	lui	$2,%hi(LogFlag)
	.loc 1 2539 0
	sw	$24,%lo(block)($3)
	.loc 1 2540 0
	lw	$24,%lo(LogFlag)($2)
	ori	$24,$24,0x100
	sw	$24,%lo(LogFlag)($2)
$L333:
	.loc 1 2543 0
	move	$24,$0
$L182:
$LBE65 = .
$LBE64 = .
	.loc 1 3144 0
	or	$17,$17,$24
$LVL92 = .
	.loc 1 3145 0
	andi	$24,$18,0x200
$L351:
	beq	$24,$0,$L355
	andi	$24,$18,0x8000

$LVL93 = .
$LBB66 = .
$LBB67 = .
	.loc 1 2751 0
	lui	$24,%hi(cur_p_pkt)
	.loc 1 2753 0
	lbu	$2,9($16)
	.loc 1 2751 0
	lw	$3,%lo(cur_p_pkt)($24)
$LVL94 = .
	.loc 1 2753 0
	li	$24,6			# 0x6
	bnel	$2,$24,$L356
	li	$24,17			# 0x11

	.loc 1 2756 0
	lhu	$5,32($3)
	lbu	$4,2($19)
	beq	$5,$0,$L187
	lbu	$24,3($19)

	sll	$2,$24,8
	or	$24,$2,$4
	beql	$5,$24,$L357
	lbu	$2,9($16)

	.loc 1 2757 0
	lw	$24,20($3)
	addiu	$24,$24,1
	sw	$24,20($3)
$L186:
	.loc 1 2761 0
	lbu	$2,9($16)
$L357:
	li	$24,17			# 0x11
$L356:
	bne	$2,$24,$L358
	ext	$2,$18,23,1

	.loc 1 2763 0
	lhu	$5,32($3)
	lbu	$4,2($19)
	beq	$5,$0,$L190
	lbu	$24,3($19)

	sll	$2,$24,8
	or	$24,$2,$4
	beq	$5,$24,$L358
	ext	$2,$18,23,1

	.loc 1 2764 0
	lw	$24,20($3)
	addiu	$24,$24,1
	sw	$24,20($3)
$L189:
	.loc 1 2769 0
	ext	$2,$18,23,1
$L358:
	beq	$2,$0,$L192
	lw	$24,20($3)

	slt	$24,$24,11
$L335:
	bne	$24,$0,$L355
	andi	$24,$18,0x8000

	.loc 1 2777 0
	lui	$2,%hi(LogFlag)
	lw	$24,%lo(LogFlag)($2)
	ori	$24,$24,0x200
	sw	$24,%lo(LogFlag)($2)
	.loc 1 2778 0
	lui	$2,%hi(attack_saddr+20)
	lwl	$24,15($16)
	lwr	$24,12($16)
	sw	$24,%lo(attack_saddr+20)($2)
	.loc 1 2779 0
	lui	$2,%hi(attack_daddr+20)
	lwl	$24,19($16)
	lwr	$24,16($16)
	sw	$24,%lo(attack_daddr+20)($2)
$LVL95 = .
$L161:
$LBE67 = .
$LBE66 = .
	.loc 1 3149 0
	andi	$24,$18,0x8000
$L355:
	beql	$24,$0,$L359
	li	$4,65536			# 0x10000

$LVL96 = .
$LBB70 = .
$LBB71 = .
	.loc 1 2700 0
	lbu	$2,9($16)
	li	$24,6			# 0x6
	bne	$2,$24,$L195
	move	$3,$0

	.loc 1 2702 0
	lbu	$24,13($19)
	andi	$2,$24,0x3f
	lui	$24,%hi(_tcpDosScanBitmap)
	addiu	$24,$24,%lo(_tcpDosScanBitmap)
	addu	$24,$2,$24
	lb	$24,0($24)
	beql	$24,$0,$L360
	or	$17,$17,$3

	.loc 1 2704 0
	lui	$2,%hi(LogFlag)
	.loc 1 2707 0
	li	$3,-1			# 0xffffffffffffffff
	.loc 1 2704 0
	lw	$24,%lo(LogFlag)($2)
	ori	$24,$24,0x8000
	sw	$24,%lo(LogFlag)($2)
	.loc 1 2705 0
	lui	$2,%hi(attack_saddr+44)
	lwl	$24,15($16)
	lwr	$24,12($16)
	sw	$24,%lo(attack_saddr+44)($2)
	.loc 1 2706 0
	lui	$2,%hi(attack_daddr+44)
	lwl	$24,19($16)
	lwr	$24,16($16)
	sw	$24,%lo(attack_daddr+44)($2)
$L195:
$LBE71 = .
$LBE70 = .
	.loc 1 3150 0
	or	$17,$17,$3
$LVL97 = .
$L360:
	.loc 1 3151 0
	li	$4,65536			# 0x10000
$L359:
	and	$24,$18,$4
	beq	$24,$0,$L361
	andi	$24,$18,0x800

$LVL98 = .
$LBB72 = .
$LBB73 = .
	.loc 1 2641 0
	lbu	$2,9($16)
	li	$24,6			# 0x6
	bne	$2,$24,$L197
	move	$3,$0

	lbu	$24,13($19)
	li	$2,2			# 0x2
	andi	$24,$24,0x3f
	bnel	$24,$2,$L362
	or	$17,$17,$3

$LVL99 = .
$LBB74 = .
$LBB75 = .
	.loc 1 2643 0
	lbu	$24,3($16)
	lbu	$2,2($16)
	sll	$24,$24,8
	or	$24,$24,$2
	wsbh	$24,$24
	andi	$2,$24,0xffff
$LVL100 = .
$LBE75 = .
	lbu	$24,0($16)
$LVL101 = .
	andi	$24,$24,0xf
	sll	$24,$24,2
	subu	$24,$2,$24
	lbu	$2,12($19)
$LVL102 = .
	ext	$2,$2,4,4
	sll	$2,$2,2
	.loc 1 2644 0
	bne	$24,$2,$L363
	lui	$2,%hi(LogFlag)

$LVL103 = .
$LBB76 = .
	.loc 1 2651 0
	lbu	$24,7($16)
	lbu	$2,6($16)
	sll	$24,$24,8
	or	$24,$24,$2
	wsbh	$24,$24
$LBE76 = .
	andi	$24,$24,0x2000
	beql	$24,$0,$L362
	or	$17,$17,$3

$LVL104 = .
	.loc 1 2653 0
	lui	$2,%hi(LogFlag)
$L363:
	.loc 1 2656 0
	li	$3,-1			# 0xffffffffffffffff
	.loc 1 2653 0
	lw	$24,%lo(LogFlag)($2)
	or	$24,$24,$4
	sw	$24,%lo(LogFlag)($2)
$LVL105 = .
	.loc 1 2654 0
	lui	$2,%hi(attack_saddr+48)
	lwl	$24,15($16)
	lwr	$24,12($16)
	sw	$24,%lo(attack_saddr+48)($2)
	.loc 1 2655 0
	lui	$2,%hi(attack_daddr+48)
	lwl	$24,19($16)
	lwr	$24,16($16)
	sw	$24,%lo(attack_daddr+48)($2)
$LVL106 = .
$L197:
$LBE74 = .
$LBE73 = .
$LBE72 = .
	.loc 1 3152 0
	or	$17,$17,$3
$LVL107 = .
$L362:
	.loc 1 3153 0
	andi	$24,$18,0x800
$L361:
	beq	$24,$0,$L364
	ext	$24,$18,18,1

$LVL108 = .
$LBB77 = .
$LBB78 = .
	.loc 1 2605 0
	lwl	$24,15($16)
	lwl	$2,19($16)
	lwr	$24,12($16)
	lwr	$2,16($16)
	bne	$24,$2,$L200
	move	$3,$0

	.loc 1 2607 0
	lui	$3,%hi(LogFlag)
	lw	$2,%lo(LogFlag)($3)
	ori	$2,$2,0x800
	sw	$2,%lo(LogFlag)($3)
	.loc 1 2608 0
	lui	$2,%hi(attack_saddr+28)
	.loc 1 2610 0
	li	$3,-1			# 0xffffffffffffffff
	.loc 1 2608 0
	sw	$24,%lo(attack_saddr+28)($2)
	.loc 1 2609 0
	lui	$2,%hi(attack_daddr+28)
	sw	$24,%lo(attack_daddr+28)($2)
$L200:
$LBE78 = .
$LBE77 = .
	.loc 1 3154 0
	or	$17,$17,$3
$LVL109 = .
	.loc 1 3155 0
	ext	$24,$18,18,1
$L364:
	beql	$24,$0,$L365
	li	$5,131072			# 0x20000

$LVL110 = .
$LBB79 = .
$LBB80 = .
	.loc 1 2684 0
	lbu	$2,9($16)
	li	$24,17			# 0x11
	bne	$2,$24,$L202
	move	$3,$0

	.loc 1 2686 0
	lbu	$24,3($19)
	li	$6,1792			# 0x700
	lbu	$2,2($19)
	sll	$24,$24,8
	or	$2,$24,$2
$LVL111 = .
	beq	$2,$6,$L203
	li	$5,-513			# 0xfffffffffffffdff

$LVL112 = .
	li	$4,4352			# 0x1100
	and	$2,$2,$5
	beq	$2,$4,$L366
	lui	$2,%hi(LogFlag)

$LVL113 = .
	lbu	$2,1($19)
	lbu	$24,0($19)
	sll	$2,$2,8
	or	$24,$2,$24
$LVL114 = .
	beq	$24,$6,$L203
	and	$24,$24,$5

$LVL115 = .
	bnel	$24,$4,$L367
	or	$17,$17,$3

$LVL116 = .
$L203:
	.loc 1 2688 0
	lui	$2,%hi(LogFlag)
$L366:
	li	$3,262144			# 0x40000
	lw	$24,%lo(LogFlag)($2)
	or	$24,$24,$3
	.loc 1 2691 0
	li	$3,-1			# 0xffffffffffffffff
	.loc 1 2688 0
	sw	$24,%lo(LogFlag)($2)
	.loc 1 2689 0
	lui	$2,%hi(attack_saddr+56)
	lwl	$24,15($16)
	lwr	$24,12($16)
	sw	$24,%lo(attack_saddr+56)($2)
	.loc 1 2690 0
	lui	$2,%hi(attack_daddr+56)
	lwl	$24,19($16)
	lwr	$24,16($16)
	sw	$24,%lo(attack_daddr+56)($2)
$LVL117 = .
$L202:
$LBE80 = .
$LBE79 = .
	.loc 1 3156 0
	or	$17,$17,$3
$LVL118 = .
$L367:
	.loc 1 3157 0
	li	$5,131072			# 0x20000
$L365:
	and	$24,$18,$5
	beq	$24,$0,$L368
	andi	$24,$18,0x4000

$LVL119 = .
$LBB81 = .
$LBB82 = .
	.loc 1 2620 0
	lbu	$2,9($16)
	li	$24,17			# 0x11
	bne	$2,$24,$L205
	move	$4,$0

$LVL120 = .
$LBB83 = .
	.loc 1 2622 0
	lbu	$24,7($16)
	lbu	$2,6($16)
	sll	$24,$24,8
	or	$24,$24,$2
	wsbh	$24,$24
$LBE83 = .
	andi	$24,$24,0x3fff
	bnel	$24,$0,$L369
	or	$17,$17,$4

$LVL121 = .
$LBB84 = .
	.loc 1 2624 0
	lbu	$24,3($16)
	lbu	$2,2($16)
$LBE84 = .
$LBB85 = .
	.loc 1 2625 0
	lbu	$3,4($19)
$LBE85 = .
$LBB86 = .
	.loc 1 2624 0
	sll	$24,$24,8
	or	$24,$24,$2
	wsbh	$24,$24
	andi	$2,$24,0xffff
$LVL122 = .
$LBE86 = .
$LBB87 = .
	.loc 1 2625 0
	lbu	$24,5($19)
$LVL123 = .
	sll	$24,$24,8
	or	$24,$24,$3
	wsbh	$24,$24
	andi	$3,$24,0xffff
$LBE87 = .
	.loc 1 2624 0
	lbu	$24,0($16)
	andi	$24,$24,0xf
	sll	$24,$24,2
	subu	$24,$2,$24
	.loc 1 2625 0
	slt	$24,$3,$24
	beql	$24,$0,$L369
	or	$17,$17,$4

	.loc 1 2627 0
	lui	$2,%hi(LogFlag)
$LVL124 = .
	.loc 1 2630 0
	li	$4,-1			# 0xffffffffffffffff
	.loc 1 2627 0
	lw	$24,%lo(LogFlag)($2)
	or	$5,$24,$5
	sw	$5,%lo(LogFlag)($2)
$LVL125 = .
	.loc 1 2628 0
	lui	$2,%hi(attack_saddr+52)
	lwl	$24,15($16)
	lwr	$24,12($16)
	sw	$24,%lo(attack_saddr+52)($2)
	.loc 1 2629 0
	lui	$2,%hi(attack_daddr+52)
	lwl	$24,19($16)
	lwr	$24,16($16)
	sw	$24,%lo(attack_daddr+52)($2)
$LVL126 = .
$L205:
$LBE82 = .
$LBE81 = .
	.loc 1 3158 0
	or	$17,$17,$4
$LVL127 = .
$L369:
	.loc 1 3159 0
	andi	$24,$18,0x4000
$L368:
	beq	$24,$0,$L370
	andi	$24,$18,0x400

$LVL128 = .
$LBB88 = .
$LBB89 = .
$LBB90 = .
	.loc 1 2665 0
	lbu	$24,7($16)
	lbu	$2,6($16)
	sll	$24,$24,8
	or	$24,$24,$2
	wsbh	$24,$24
	andi	$24,$24,0xffff
$LVL129 = .
$LBE90 = .
	.loc 1 2668 0
	andi	$2,$24,0x2000
	bne	$2,$0,$L207
	move	$3,$0

	andi	$24,$24,0x1fff
$LVL130 = .
	beq	$24,$0,$L207
	sll	$24,$24,3

$LVL131 = .
$LBB91 = .
	.loc 1 2671 0
	lbu	$2,3($16)
$LVL132 = .
	lbu	$4,2($16)
	sll	$2,$2,8
	or	$2,$2,$4
	wsbh	$2,$2
	andi	$2,$2,0xffff
$LVL133 = .
$LBE91 = .
	addu	$2,$24,$2
	lbu	$24,0($16)
	andi	$24,$24,0xf
	sll	$24,$24,2
	subu	$24,$2,$24
	.loc 1 2672 0
	li	$2,65536			# 0x10000
	sltu	$24,$24,$2
	bnel	$24,$0,$L371
	or	$17,$17,$3

	.loc 1 2674 0
	lui	$2,%hi(LogFlag)
	.loc 1 2677 0
	li	$3,-1			# 0xffffffffffffffff
	.loc 1 2674 0
	lw	$24,%lo(LogFlag)($2)
	ori	$24,$24,0x4000
	sw	$24,%lo(LogFlag)($2)
$LVL134 = .
	.loc 1 2675 0
	lui	$2,%hi(attack_saddr+40)
	lwl	$24,15($16)
	lwr	$24,12($16)
	sw	$24,%lo(attack_saddr+40)($2)
	.loc 1 2676 0
	lui	$2,%hi(attack_daddr+40)
	lwl	$24,19($16)
	lwr	$24,16($16)
	sw	$24,%lo(attack_daddr+40)($2)
$LVL135 = .
$L207:
$LBE89 = .
$LBE88 = .
	.loc 1 3160 0
	or	$17,$17,$3
$LVL136 = .
$L371:
	.loc 1 3161 0
	andi	$24,$18,0x400
$L370:
	beql	$24,$0,$L372
	andi	$24,$18,0x1000

$LVL137 = .
$LBB92 = .
$LBB93 = .
	.loc 1 2589 0
	lbu	$24,0($16)
	.loc 1 2590 0
	li	$2,1			# 0x1
	lbu	$4,9($16)
	.loc 1 2600 0
	move	$3,$0
$LVL138 = .
	.loc 1 2590 0
	bne	$4,$2,$L209
	andi	$24,$24,0xf

	sll	$24,$24,2
	addu	$24,$16,$24
	lbu	$2,0($24)
	li	$24,8			# 0x8
	bnel	$2,$24,$L373
	or	$17,$17,$3

	.loc 1 2592 0
	lwl	$2,15($16)
	lui	$24,%hi(lan_addr)
	lui	$4,%hi(lan_mask)
	lw	$24,%lo(lan_addr)($24)
	lwr	$2,12($16)
	lw	$4,%lo(lan_mask)($4)
	xor	$24,$2,$24
	and	$24,$24,$4
	bnel	$24,$0,$L373
	or	$17,$17,$3

	.loc 1 2594 0
	lui	$3,%hi(LogFlag)
	lw	$24,%lo(LogFlag)($3)
	ori	$24,$24,0x400
	sw	$24,%lo(LogFlag)($3)
	.loc 1 2595 0
	lui	$24,%hi(attack_saddr+24)
	.loc 1 2597 0
	li	$3,-1			# 0xffffffffffffffff
	.loc 1 2595 0
	sw	$2,%lo(attack_saddr+24)($24)
	.loc 1 2596 0
	lui	$2,%hi(attack_daddr+24)
	lwl	$24,19($16)
	lwr	$24,16($16)
	sw	$24,%lo(attack_daddr+24)($2)
$L209:
$LBE93 = .
$LBE92 = .
	.loc 1 3162 0
	or	$17,$17,$3
$LVL139 = .
$L373:
	.loc 1 3163 0
	andi	$24,$18,0x1000
$L372:
	beql	$24,$0,$L374
	andi	$18,$18,0x2000

$LVL140 = .
$LBB94 = .
$LBB95 = .
	.loc 1 2576 0
	lwl	$2,15($16)
	lui	$24,%hi(lan_addr)
	lui	$3,%hi(lan_mask)
	lw	$24,%lo(lan_addr)($24)
	lwr	$2,12($16)
	lw	$3,%lo(lan_mask)($3)
	xor	$24,$2,$24
	and	$24,$24,$3
	bne	$24,$0,$L211
	move	$3,$0

	lbu	$4,9($16)
	li	$24,1			# 0x1
	beql	$4,$24,$L375
	or	$17,$17,$3

	.loc 1 2578 0
	lui	$3,%hi(LogFlag)
	lw	$24,%lo(LogFlag)($3)
	ori	$24,$24,0x1000
	sw	$24,%lo(LogFlag)($3)
	.loc 1 2579 0
	lui	$24,%hi(attack_saddr+32)
	.loc 1 2581 0
	li	$3,-1			# 0xffffffffffffffff
	.loc 1 2579 0
	sw	$2,%lo(attack_saddr+32)($24)
	.loc 1 2580 0
	lui	$2,%hi(attack_daddr+32)
	lwl	$24,19($16)
	lwr	$24,16($16)
	sw	$24,%lo(attack_daddr+32)($2)
$L211:
$LBE95 = .
$LBE94 = .
	.loc 1 3164 0
	or	$17,$17,$3
$LVL141 = .
$L375:
	.loc 1 3165 0
	andi	$18,$18,0x2000
$L374:
	beq	$18,$0,$L212
	nop

$LVL142 = .
$LBB96 = .
$LBB97 = .
	.loc 1 2715 0
	jal	dos_pkt_locate
	move	$4,$16

$LVL143 = .
	beq	$2,$0,$L213
	lui	$24,%hi(cur_p_pkt)

$LBB98 = .
	.loc 1 2719 0
	lbu	$3,5($16)
$LBE98 = .
	.loc 1 2716 0
	lw	$4,%lo(cur_p_pkt)($24)
$LVL144 = .
$LBB99 = .
	.loc 1 2719 0
	sll	$3,$3,8
	lbu	$24,4($16)
	or	$3,$3,$24
$LBE99 = .
	lhu	$24,28($4)
	wsbh	$3,$3
	andi	$2,$3,0xffff
	beql	$2,$24,$L376
	lbu	$24,7($16)

$LVL145 = .
	bne	$24,$0,$L213
	move	$2,$0

$LVL146 = .
$LBB100 = .
	.loc 1 2722 0
	lbu	$24,7($16)
$L376:
	lbu	$2,6($16)
	sll	$24,$24,8
	or	$24,$24,$2
	wsbh	$24,$24
	andi	$24,$24,0xffff
$LBE100 = .
	andi	$5,$24,0x3fff
	beq	$5,$0,$L213
	move	$2,$0

$LVL147 = .
	.loc 1 2724 0
	lhu	$5,30($4)
	sll	$6,$24,3
	andi	$6,$6,0xffff
	slt	$6,$6,$5
	bne	$6,$0,$L215
	andi	$24,$24,0x2000

$LVL148 = .
	.loc 1 2726 0
	bnel	$24,$0,$L216
	sh	$3,28($4)

	.loc 1 2728 0
	sh	$0,28($4)
$LVL149 = .
$LBE97 = .
$LBE96 = .
$LBE108 = .
$LBE113 = .
	.loc 1 2729 0
	j	$L213
	sh	$0,30($4)

$LVL150 = .
$L216:
$LBB114 = .
$LBB109 = .
$LBB104 = .
$LBB102 = .
$LBB101 = .
	.loc 1 2734 0
	lbu	$3,3($16)
	lbu	$24,2($16)
	sll	$3,$3,8
	or	$24,$3,$24
$LBE101 = .
	lbu	$3,0($16)
	wsbh	$24,$24
	sll	$3,$3,2
	andi	$3,$3,0x3c
	subu	$5,$5,$3
	addu	$24,$5,$24
$LVL151 = .
$LBE102 = .
$LBE104 = .
$LBE109 = .
$LBE114 = .
	j	$L213
	sh	$24,30($4)

$LVL152 = .
$L215:
$LBB115 = .
$LBB110 = .
$LBB105 = .
$LBB103 = .
	.loc 1 2739 0
	lui	$2,%hi(LogFlag)
	lw	$24,%lo(LogFlag)($2)
	ori	$24,$24,0x2000
	sw	$24,%lo(LogFlag)($2)
	.loc 1 2740 0
	lui	$2,%hi(attack_saddr+36)
	lwl	$24,15($16)
	lwr	$24,12($16)
	sw	$24,%lo(attack_saddr+36)($2)
	.loc 1 2741 0
	lui	$2,%hi(attack_daddr+36)
	lwl	$24,19($16)
	lwr	$24,16($16)
	sw	$24,%lo(attack_daddr+36)($2)
	.loc 1 2742 0
	li	$2,-1			# 0xffffffffffffffff
$LVL153 = .
$L213:
$LBE103 = .
$LBE105 = .
	.loc 1 3166 0
	or	$17,$17,$2
$LVL154 = .
$L212:
	.loc 1 3169 0
	beq	$17,$0,$L159
	move	$2,$0

$LBE110 = .
$LBE115 = .
	.loc 1 3600 0
	j	$L336
	lw	$31,36($sp)

$LVL155 = .
$L328:
	.loc 1 3596 0
	lui	$2,%hi(none_dos_drop_pkt_cnt)
$L337:
	lw	$24,%lo(none_dos_drop_pkt_cnt)($2)
	addiu	$24,$24,1
	sw	$24,%lo(none_dos_drop_pkt_cnt)($2)
	.loc 1 3599 0
	j	$L327
	li	$2,1			# 0x1

$LVL156 = .
$L187:
$LBB116 = .
$LBB111 = .
$LBB106 = .
$LBB68 = .
	.loc 1 2759 0
	sll	$24,$24,8
	or	$24,$24,$4
$LBE68 = .
$LBE106 = .
$LBE111 = .
$LBE116 = .
	j	$L186
	sh	$24,32($3)

$L190:
$LBB117 = .
$LBB112 = .
$LBB107 = .
$LBB69 = .
	.loc 1 2766 0
	sll	$24,$24,8
	or	$24,$24,$4
$LBE69 = .
$LBE107 = .
$LBE112 = .
$LBE117 = .
	j	$L189
	sh	$24,32($3)

$L192:
	.loc 1 2775 0
	j	$L335
	slt	$24,$24,201

$LVL157 = .
$L327:
	.loc 1 3600 0
	lw	$31,36($sp)
$L336:
	lw	$20,32($sp)
	lw	$19,28($sp)
	lw	$18,24($sp)
	lw	$17,20($sp)
	lw	$16,16($sp)
	j	$31
	addiu	$sp,$sp,40

	.cfi_def_cfa_offset 0
	.cfi_restore 16
	.cfi_restore 17
	.cfi_restore 18
	.cfi_restore 19
	.cfi_restore 20
	.cfi_restore 31
	.set	macro
	.set	reorder
	.end	filter_enter
	.cfi_endproc
$LFE99:
	.size	filter_enter, .-filter_enter
	.section	.text.filter_init,"ax",@progbits
	.align	2
	.globl	filter_init
$LFB100 = .
	.loc 1 3628 0
	.cfi_startproc
	.set	nomips16
	.set	nomicromips
	.ent	filter_init
	.type	filter_init, @function
filter_init:
	.frame	$sp,32,$31		# vars= 0, regs= 3/0, args= 16, gp= 0
	.mask	0x80030000,-4
	.fmask	0x00000000,0
	.set	noreorder
	.set	nomacro
	addiu	$sp,$sp,-32
	.cfi_def_cfa_offset 32
	sw	$31,28($sp)
	sw	$17,24($sp)
	sw	$16,20($sp)
	.cfi_offset 31, -4
	.cfi_offset 17, -8
	.cfi_offset 16, -12
	.loc 1 3631 0
	lui	$24,%hi(item)
	.loc 1 3642 0
	lui	$16,%hi(dos_timer)
	.loc 1 3631 0
	sw	$0,%lo(item)($24)
	.loc 1 3632 0
	lui	$24,%hi(none_dos_drop_pkt_cnt)
	.loc 1 3642 0
	addiu	$4,$16,%lo(dos_timer)
	.loc 1 3632 0
	sw	$0,%lo(none_dos_drop_pkt_cnt)($24)
	.loc 1 3633 0
	lui	$24,%hi(whole_syn_count)
	.loc 1 3645 0
	lui	$17,%hi(_tcpDosScanBitmap)
	.loc 1 3633 0
	sw	$0,%lo(whole_syn_count)($24)
	.loc 1 3634 0
	lui	$24,%hi(whole_fin_count)
	sw	$0,%lo(whole_fin_count)($24)
	.loc 1 3635 0
	lui	$24,%hi(whole_udp_count)
	sw	$0,%lo(whole_udp_count)($24)
	.loc 1 3636 0
	lui	$24,%hi(whole_icmp_count)
	sw	$0,%lo(whole_icmp_count)($24)
	.loc 1 3637 0
	lui	$24,%hi(whole_syn_block)
	sw	$0,%lo(whole_syn_block)($24)
	.loc 1 3638 0
	lui	$24,%hi(whole_fin_block)
	sw	$0,%lo(whole_fin_block)($24)
	.loc 1 3639 0
	lui	$24,%hi(whole_udp_block)
	sw	$0,%lo(whole_udp_block)($24)
	.loc 1 3640 0
	lui	$24,%hi(whole_icmp_block)
	.loc 1 3642 0
	jal	cyg_callout_init
	sw	$0,%lo(whole_icmp_block)($24)

$LVL158 = .
	.loc 1 3643 0
	lui	$24,%hi(cyg_hz)
	lui	$6,%hi(dos_timer_fn)
	move	$7,$0
	lw	$5,%lo(cyg_hz)($24)
	addiu	$4,$16,%lo(dos_timer)
	addiu	$6,$6,%lo(dos_timer_fn)
	jal	cyg_callout_reset
	addiu	$16,$17,%lo(_tcpDosScanBitmap)

$LVL159 = .
	.loc 1 3645 0
	li	$6,64			# 0x40
	move	$5,$0
	jal	memset
	move	$4,$16

$LVL160 = .
	.loc 1 3646 0
	li	$24,1			# 0x1
	.loc 1 3709 0
	move	$2,$0
	.loc 1 3646 0
	sb	$24,63($16)
	sb	$24,58($16)
	sb	$24,41($16)
	sb	$24,40($16)
	sb	$24,33($16)
	sb	$24,32($16)
	sb	$24,9($16)
	sb	$24,8($16)
	sb	$24,3($16)
	sb	$24,%lo(_tcpDosScanBitmap)($17)
	.loc 1 3709 0
	lw	$31,28($sp)
	lw	$17,24($sp)
	lw	$16,20($sp)
	j	$31
	addiu	$sp,$sp,32

	.cfi_def_cfa_offset 0
	.cfi_restore 16
	.cfi_restore 17
	.cfi_restore 31
	.set	macro
	.set	reorder
	.end	filter_init
	.cfi_endproc
$LFE100:
	.size	filter_init, .-filter_init
	.section	.text.filter_exit,"ax",@progbits
	.align	2
	.globl	filter_exit
$LFB101 = .
	.loc 1 3712 0
	.cfi_startproc
	.set	nomips16
	.set	nomicromips
	.ent	filter_exit
	.type	filter_exit, @function
filter_exit:
	.frame	$sp,0,$31		# vars= 0, regs= 0/0, args= 0, gp= 0
	.mask	0x00000000,0
	.fmask	0x00000000,0
	.set	noreorder
	.set	nomacro
	j	$31
	nop

	.set	macro
	.set	reorder
	.end	filter_exit
	.cfi_endproc
$LFE101:
	.size	filter_exit, .-filter_exit
	.section	.bss.item_backup,"aw",@nobits
	.align	2
	.type	item_backup, @object
	.size	item_backup, 4
item_backup:
	.space	4
	.section	.bss.none_dos_drop_pkt_cnt,"aw",@nobits
	.align	2
	.type	none_dos_drop_pkt_cnt, @object
	.size	none_dos_drop_pkt_cnt, 4
none_dos_drop_pkt_cnt:
	.space	4
	.section	.bss.attack_daddr,"aw",@nobits
	.align	2
	.type	attack_daddr, @object
	.size	attack_daddr, 60
attack_daddr:
	.space	60
	.section	.bss.attack_saddr,"aw",@nobits
	.align	2
	.type	attack_saddr, @object
	.size	attack_saddr, 60
attack_saddr:
	.space	60
	.section	.bss.lan_mask,"aw",@nobits
	.align	2
	.type	lan_mask, @object
	.size	lan_mask, 4
lan_mask:
	.space	4
	.section	.bss.lan_addr,"aw",@nobits
	.align	2
	.type	lan_addr, @object
	.size	lan_addr, 4
lan_addr:
	.space	4
	.section	.bss.item,"aw",@nobits
	.align	2
	.type	item, @object
	.size	item, 4
item:
	.space	4
	.section	.bss.whole_icmp_block,"aw",@nobits
	.align	2
	.type	whole_icmp_block, @object
	.size	whole_icmp_block, 4
whole_icmp_block:
	.space	4
	.section	.bss.whole_udp_block,"aw",@nobits
	.align	2
	.type	whole_udp_block, @object
	.size	whole_udp_block, 4
whole_udp_block:
	.space	4
	.section	.bss.whole_fin_block,"aw",@nobits
	.align	2
	.type	whole_fin_block, @object
	.size	whole_fin_block, 4
whole_fin_block:
	.space	4
	.section	.bss.whole_syn_block,"aw",@nobits
	.align	2
	.type	whole_syn_block, @object
	.size	whole_syn_block, 4
whole_syn_block:
	.space	4
	.section	.bss.whole_icmp_count,"aw",@nobits
	.align	2
	.type	whole_icmp_count, @object
	.size	whole_icmp_count, 4
whole_icmp_count:
	.space	4
	.section	.bss.whole_udp_count,"aw",@nobits
	.align	2
	.type	whole_udp_count, @object
	.size	whole_udp_count, 4
whole_udp_count:
	.space	4
	.section	.bss.whole_fin_count,"aw",@nobits
	.align	2
	.type	whole_fin_count, @object
	.size	whole_fin_count, 4
whole_fin_count:
	.space	4
	.section	.bss.whole_syn_count,"aw",@nobits
	.align	2
	.type	whole_syn_count, @object
	.size	whole_syn_count, 4
whole_syn_count:
	.space	4
	.section	.bss.block_count,"aw",@nobits
	.align	2
	.type	block_count, @object
	.size	block_count, 4
block_count:
	.space	4
	.section	.bss.block_time,"aw",@nobits
	.align	2
	.type	block_time, @object
	.size	block_time, 4
block_time:
	.space	4
	.section	.bss.block,"aw",@nobits
	.align	2
	.type	block, @object
	.size	block, 4
block:
	.space	4
	.section	.bss.per_icmp_threshold,"aw",@nobits
	.align	2
	.type	per_icmp_threshold, @object
	.size	per_icmp_threshold, 4
per_icmp_threshold:
	.space	4
	.section	.bss.per_udp_threshold,"aw",@nobits
	.align	2
	.type	per_udp_threshold, @object
	.size	per_udp_threshold, 4
per_udp_threshold:
	.space	4
	.section	.bss.per_fin_threshold,"aw",@nobits
	.align	2
	.type	per_fin_threshold, @object
	.size	per_fin_threshold, 4
per_fin_threshold:
	.space	4
	.section	.bss.per_syn_threshold,"aw",@nobits
	.align	2
	.type	per_syn_threshold, @object
	.size	per_syn_threshold, 4
per_syn_threshold:
	.space	4
	.section	.bss.whole_icmp_threshold,"aw",@nobits
	.align	2
	.type	whole_icmp_threshold, @object
	.size	whole_icmp_threshold, 4
whole_icmp_threshold:
	.space	4
	.section	.bss.whole_udp_threshold,"aw",@nobits
	.align	2
	.type	whole_udp_threshold, @object
	.size	whole_udp_threshold, 4
whole_udp_threshold:
	.space	4
	.section	.bss.whole_fin_threshold,"aw",@nobits
	.align	2
	.type	whole_fin_threshold, @object
	.size	whole_fin_threshold, 4
whole_fin_threshold:
	.space	4
	.section	.bss.whole_syn_threshold,"aw",@nobits
	.align	2
	.type	whole_syn_threshold, @object
	.size	whole_syn_threshold, 4
whole_syn_threshold:
	.space	4
	.section	.bss.op_mode,"aw",@nobits
	.type	op_mode, @object
	.size	op_mode, 1
op_mode:
	.space	1
	.section	.bss._tcpDosScanBitmap,"aw",@nobits
	.align	2
	.type	_tcpDosScanBitmap, @object
	.size	_tcpDosScanBitmap, 64
_tcpDosScanBitmap:
	.space	64

	.comm	dos_timer,24,4
	.section	.bss.cur_p_pkt,"aw",@nobits
	.align	2
	.type	cur_p_pkt, @object
	.size	cur_p_pkt, 4
cur_p_pkt:
	.space	4
	.section	.bss.dos_pkt,"aw",@nobits
	.align	2
	.type	dos_pkt, @object
	.size	dos_pkt, 18432
dos_pkt:
	.space	18432
	.section	.bss.ConnectedIp,"aw",@nobits
	.align	2
	.type	ConnectedIp, @object
	.size	ConnectedIp, 1024
ConnectedIp:
	.space	1024
	.section	.bss.LogFlag,"aw",@nobits
	.align	2
	.type	LogFlag, @object
	.size	LogFlag, 4
LogFlag:
	.space	4
	.text
$Letext0:
	.file 2 "/home/kai_wang/release-ecos1.5.1/release_tool_v15/ecos_v1.5.1_20160706/gnutools/msdk-4.9.4/linux/newlib/lib/gcc/mips-elf/4.9.4/include/stddef.h"
	.file 3 "/home/kai_wang/release-ecos1.5.1/release_tool_v15/ecos_v1.5.1_20160706/ecos-work/97f-8812br-16M-gw_install/include/cyg/infra/cyg_type.h"
	.file 4 "/home/kai_wang/release-ecos1.5.1/release_tool_v15/ecos_v1.5.1_20160706/ecos-work/97f-8812br-16M-gw_install/include/sys/bsdtypes.h"
	.file 5 "/home/kai_wang/release-ecos1.5.1/release_tool_v15/ecos_v1.5.1_20160706/ecos-work/97f-8812br-16M-gw_install/include/time.h"
	.file 6 "/home/kai_wang/release-ecos1.5.1/release_tool_v15/ecos_v1.5.1_20160706/ecos-work/97f-8812br-16M-gw_install/include/cyg/libc/time/time.h"
	.file 7 "/home/kai_wang/release-ecos1.5.1/release_tool_v15/ecos_v1.5.1_20160706/ecos-work/97f-8812br-16M-gw_install/include/sys/param.h"
	.file 8 "/home/kai_wang/release-ecos1.5.1/release_tool_v15/ecos_v1.5.1_20160706/ecos-work/97f-8812br-16M-gw_install/include/sys/socket.h"
	.file 9 "/home/kai_wang/release-ecos1.5.1/release_tool_v15/ecos_v1.5.1_20160706/ecos-work/97f-8812br-16M-gw_install/include/cyg/posix/sys/time.h"
	.file 10 "/home/kai_wang/release-ecos1.5.1/release_tool_v15/ecos_v1.5.1_20160706/ecos-work/97f-8812br-16M-gw_install/include/net/if_var.h"
	.file 11 "/home/kai_wang/release-ecos1.5.1/release_tool_v15/ecos_v1.5.1_20160706/ecos-work/97f-8812br-16M-gw_install/include/net/if.h"
	.file 12 "/home/kai_wang/release-ecos1.5.1/release_tool_v15/ecos_v1.5.1_20160706/ecos-work/97f-8812br-16M-gw_install/include/sys/mbuf.h"
	.file 13 "/home/kai_wang/release-ecos1.5.1/release_tool_v15/ecos_v1.5.1_20160706/ecos-work/97f-8812br-16M-gw_install/include/net/route.h"
	.file 14 "/home/kai_wang/release-ecos1.5.1/release_tool_v15/ecos_v1.5.1_20160706/ecos-work/97f-8812br-16M-gw_install/include/netinet/rtl_vlan.h"
	.file 15 "/home/kai_wang/release-ecos1.5.1/release_tool_v15/ecos_v1.5.1_20160706/ecos-work/97f-8812br-16M-gw_install/include/cyg/io/eth/rltk/819x/wrapper/wireless.h"
	.file 16 "/home/kai_wang/release-ecos1.5.1/release_tool_v15/ecos_v1.5.1_20160706/ecos-work/97f-8812br-16M-gw_install/include/rtl/rtl_types.h"
	.file 17 "/home/kai_wang/release-ecos1.5.1/release_tool_v15/ecos_v1.5.1_20160706/ecos-work/97f-8812br-16M-gw_install/include/netinet/in_systm.h"
	.file 18 "/home/kai_wang/release-ecos1.5.1/release_tool_v15/ecos_v1.5.1_20160706/ecos-work/97f-8812br-16M-gw_install/include/netinet/ip.h"
	.file 19 "/home/kai_wang/release-ecos1.5.1/release_tool_v15/ecos_v1.5.1_20160706/ecos-work/97f-8812br-16M-gw_install/include/netinet/udp.h"
	.file 20 "/home/kai_wang/release-ecos1.5.1/release_tool_v15/ecos_v1.5.1_20160706/ecos-work/97f-8812br-16M-gw_install/include/netinet/tcp.h"
	.file 21 "/home/kai_wang/release-ecos1.5.1/release_tool_v15/ecos_v1.5.1_20160706/ecos-work/97f-8812br-16M-gw_install/include/net/radix.h"
	.file 22 "/home/kai_wang/release-ecos1.5.1/release_tool_v15/ecos_v1.5.1_20160706/ecos-work/97f-8812br-16M-gw_install/include/net/ethernet.h"
	.file 23 "/home/kai_wang/release-ecos1.5.1/release_tool_v15/ecos_v1.5.1_20160706/ecos-work/97f-8812br-16M-gw_install/include/net/if_arp.h"
	.file 24 "/home/kai_wang/release-ecos1.5.1/release_tool_v15/ecos_v1.5.1_20160706/ecos-work/97f-8812br-16M-gw_install/include/netinet/ip_icmp.h"
	.file 25 "/home/kai_wang/release-ecos1.5.1/release_tool_v15/ecos_v1.5.1_20160706/ecos-work/97f-8812br-16M-gw_install/include/cyg/libc/time/time.inl"
	.file 26 "/home/kai_wang/release-ecos1.5.1/release_tool_v15/ecos_v1.5.1_20160706/ecos-work/97f-8812br-16M-gw_install/include/cyg/libc/time/timeutil.h"
	.file 27 "/home/kai_wang/release-ecos1.5.1/release_tool_v15/ecos_v1.5.1_20160706/ecos-work/97f-8812br-16M-gw_install/include/cyg/infra/diag.h"
	.file 28 "/home/kai_wang/release-ecos1.5.1/release_tool_v15/ecos_v1.5.1_20160706/ecos-work/97f-8812br-16M-gw_install/include/cyg/libc/string/string.h"