	.section .mdebug.abi32
	.previous
	.nan	legacy
	.gnu_attribute 4, 3
	.text
$Ltext0:
	.cfi_sections	.debug_frame
	.section	.text.set_fast_l2tp_fw,"ax",@progbits
	.align	2
	.globl	set_fast_l2tp_fw
$LFB72 = .
	.file 1 "/home/kai_wang/release-ecos1.5.1/release_tool_v15/ecos_v1.5.1_20160706/ecos-work/../ecos-3.0/packages/net/bsd_tcpip/v3_0/src/sys/netinet/fastpath/fast_l2tp_core.c"
	.loc 1 89 0
	.cfi_startproc
	.set	nomips16
	.set	nomicromips
	.ent	set_fast_l2tp_fw
	.type	set_fast_l2tp_fw, @function
set_fast_l2tp_fw:
	.frame	$sp,0,$31		# vars= 0, regs= 0/0, args= 0, gp= 0
	.mask	0x00000000,0
	.fmask	0x00000000,0
	.set	noreorder
	.set	nomacro
$LVL0 = .
	.loc 1 90 0
	lui	$24,%hi(fast_l2tp_fw)
	j	$31
	sw	$4,%lo(fast_l2tp_fw)($24)

	.set	macro
	.set	reorder
	.end	set_fast_l2tp_fw
	.cfi_endproc
$LFE72:
	.size	set_fast_l2tp_fw, .-set_fast_l2tp_fw
	.section	.rodata.str1.4,"aMS",@progbits,1
	.align	2
$LC0:
	.ascii	"wan_dev %p\012\000"
	.align	2
$LC1:
	.ascii	"ppp0_dev %p\012\000"
	.align	2
$LC2:
	.ascii	"sessionp %p\012\000"
	.align	2
$LC3:
	.ascii	"tid %d\012\000"
	.align	2
$LC4:
	.ascii	"cid %d\012\000"
	.align	2
$LC5:
	.ascii	"peer tid %d\012\000"
	.align	2
$LC6:
	.ascii	"peer cid %d\012\000"
	.align	2
$LC7:
	.ascii	"valid %d\012\000"
	.section	.text.dump_one_l2tp_session,"ax",@progbits
	.align	2
	.globl	dump_one_l2tp_session
$LFB73 = .
	.loc 1 94 0
	.cfi_startproc
	.set	nomips16
	.set	nomicromips
	.ent	dump_one_l2tp_session
	.type	dump_one_l2tp_session, @function
dump_one_l2tp_session:
	.frame	$sp,24,$31		# vars= 0, regs= 2/0, args= 16, gp= 0
	.mask	0x80010000,-4
	.fmask	0x00000000,0
	.set	noreorder
	.set	nomacro
$LVL1 = .
	addiu	$sp,$sp,-24
	.cfi_def_cfa_offset 24
	sw	$31,20($sp)
	sw	$16,16($sp)
	.cfi_offset 31, -4
	.cfi_offset 16, -8
	.loc 1 94 0
	move	$16,$4
	.loc 1 95 0
	lw	$5,0($4)
	lui	$4,%hi($LC0)
$LVL2 = .
	jal	diag_printf
	addiu	$4,$4,%lo($LC0)

$LVL3 = .
	.loc 1 96 0
	lui	$4,%hi($LC1)
	lw	$5,4($16)
	jal	diag_printf
	addiu	$4,$4,%lo($LC1)

$LVL4 = .
	.loc 1 97 0
	lui	$4,%hi($LC2)
	lw	$5,8($16)
	jal	diag_printf
	addiu	$4,$4,%lo($LC2)

$LVL5 = .
	.loc 1 98 0
	lui	$4,%hi($LC3)
	lhu	$5,20($16)
	jal	diag_printf
	addiu	$4,$4,%lo($LC3)

$LVL6 = .
	.loc 1 99 0
	lui	$4,%hi($LC4)
	lhu	$5,22($16)
	jal	diag_printf
	addiu	$4,$4,%lo($LC4)

$LVL7 = .
	.loc 1 100 0
	lui	$4,%hi($LC5)
	lhu	$5,16($16)
	jal	diag_printf
	addiu	$4,$4,%lo($LC5)

$LVL8 = .
	.loc 1 101 0
	lui	$4,%hi($LC6)
	lhu	$5,18($16)
	jal	diag_printf
	addiu	$4,$4,%lo($LC6)

$LVL9 = .
	.loc 1 102 0
	lui	$4,%hi($LC7)
	lhu	$5,24($16)
	jal	diag_printf
	addiu	$4,$4,%lo($LC7)

$LVL10 = .
	.loc 1 103 0
	lw	$31,20($sp)
	lw	$16,16($sp)
$LVL11 = .
	j	$31
	addiu	$sp,$sp,24

	.cfi_def_cfa_offset 0
	.cfi_restore 16
	.cfi_restore 31
	.set	macro
	.set	reorder
	.end	dump_one_l2tp_session
	.cfi_endproc
$LFE73:
	.size	dump_one_l2tp_session, .-dump_one_l2tp_session
	.section	.rodata.str1.4
	.align	2
$LC8:
	.ascii	"index:%d\012\000"
	.section	.text.dump_l2tp_session,"ax",@progbits
	.align	2
	.globl	dump_l2tp_session
$LFB74 = .
	.loc 1 105 0
	.cfi_startproc
	.set	nomips16
	.set	nomicromips
	.ent	dump_l2tp_session
	.type	dump_l2tp_session, @function
dump_l2tp_session:
	.frame	$sp,24,$31		# vars= 0, regs= 2/0, args= 16, gp= 0
	.mask	0x80010000,-4
	.fmask	0x00000000,0
	.set	noreorder
	.set	nomacro
	addiu	$sp,$sp,-24
	.cfi_def_cfa_offset 24
	sw	$31,20($sp)
	sw	$16,16($sp)
	.cfi_offset 31, -4
	.cfi_offset 16, -8
$LVL12 = .
	.loc 1 108 0
	lui	$16,%hi($LC8)
	move	$5,$0
	jal	diag_printf
	addiu	$4,$16,%lo($LC8)

$LVL13 = .
	.loc 1 109 0
	lui	$4,%hi(l2tpInfo)
	jal	dump_one_l2tp_session
	addiu	$4,$4,%lo(l2tpInfo)

$LVL14 = .
	.loc 1 108 0
	addiu	$4,$16,%lo($LC8)
	jal	diag_printf
	li	$5,1			# 0x1

$LVL15 = .
	.loc 1 109 0
	lui	$4,%hi(l2tpInfo+80)
	.loc 1 111 0
	lw	$31,20($sp)
	lw	$16,16($sp)
	.loc 1 109 0
	addiu	$4,$4,%lo(l2tpInfo+80)
	.loc 1 111 0
	.cfi_restore 16
	.cfi_restore 31
	.loc 1 109 0
	j	dump_one_l2tp_session
	addiu	$sp,$sp,24

	.cfi_def_cfa_offset 0
$LVL16 = .
	.set	macro
	.set	reorder
	.end	dump_l2tp_session
	.cfi_endproc
$LFE74:
	.size	dump_l2tp_session, .-dump_l2tp_session
	.section	.text.get_l2tp_session,"ax",@progbits
	.align	2
	.globl	get_l2tp_session
$LFB75 = .
	.loc 1 113 0
	.cfi_startproc
	.set	nomips16
	.set	nomicromips
	.ent	get_l2tp_session
	.type	get_l2tp_session, @function
get_l2tp_session:
	.frame	$sp,0,$31		# vars= 0, regs= 0/0, args= 0, gp= 0
	.mask	0x00000000,0
	.fmask	0x00000000,0
	.set	noreorder
	.set	nomacro
$LVL17 = .
	lui	$24,%hi(l2tpInfo)
	.loc 1 115 0
	move	$3,$0
	addiu	$24,$24,%lo(l2tpInfo)
	li	$8,1			# 0x1
	.loc 1 113 0
	andi	$6,$6,0xffff
	andi	$7,$7,0xffff
	move	$2,$24
$LVL18 = .
$L13:
	.loc 1 116 0
	beq	$5,$0,$L7
	nop

	.loc 1 117 0
	lw	$9,4($24)
	beql	$9,$5,$L30
	li	$24,80			# 0x50

$L7:
	.loc 1 120 0
	beq	$4,$0,$L9
	nop

	.loc 1 121 0
	lw	$9,8($24)
	beql	$9,$4,$L30
	li	$24,80			# 0x50

$L9:
	.loc 1 124 0
	beq	$6,$0,$L10
	nop

	.loc 1 124 0 is_stmt 0 discriminator 1
	beq	$7,$0,$L10
	nop

	.loc 1 125 0 is_stmt 1
	lhu	$9,20($24)
	bnel	$9,$6,$L31
	lhu	$9,16($24)

	.loc 1 125 0 is_stmt 0 discriminator 1
	lhu	$9,22($24)
	bnel	$9,$7,$L11
	lhu	$9,16($24)

	.loc 1 126 0 is_stmt 1
	li	$24,80			# 0x50
$L30:
	mul	$4,$3,$24
$LVL19 = .
	j	$31
	addu	$2,$4,$2

$LVL20 = .
$L11:
$L31:
	.loc 1 125 0 discriminator 3
	bne	$9,$6,$L10
	nop

	.loc 1 125 0 is_stmt 0 discriminator 4
	lhu	$9,18($24)
	beql	$9,$7,$L30
	li	$24,80			# 0x50

$L10:
$LVL21 = .
	.loc 1 115 0 is_stmt 1 discriminator 2
	beq	$3,$8,$L29
	addiu	$24,$24,80

$LVL22 = .
	j	$L13
	li	$3,1			# 0x1

$LVL23 = .
$L29:
	.loc 1 129 0
	j	$31
	move	$2,$0

	.set	macro
	.set	reorder
	.end	get_l2tp_session
	.cfi_endproc
$LFE75:
	.size	get_l2tp_session, .-get_l2tp_session
	.section	.text.fill_l2tp_session,"ax",@progbits
	.align	2
	.globl	fill_l2tp_session
$LFB76 = .
	.loc 1 132 0
	.cfi_startproc
	.set	nomips16
	.set	nomicromips
	.ent	fill_l2tp_session
	.type	fill_l2tp_session, @function
fill_l2tp_session:
	.frame	$sp,40,$31		# vars= 0, regs= 5/0, args= 16, gp= 0
	.mask	0x800f0000,-4
	.fmask	0x00000000,0
	.set	noreorder
	.set	nomacro
$LVL24 = .
	addiu	$sp,$sp,-40
	.cfi_def_cfa_offset 40
	sw	$31,36($sp)
	sw	$19,32($sp)
	sw	$18,28($sp)
	sw	$17,24($sp)
	sw	$16,20($sp)
	.cfi_offset 31, -4
	.cfi_offset 19, -8
	.cfi_offset 18, -12
	.cfi_offset 17, -16
	.cfi_offset 16, -20
	.loc 1 132 0
	move	$16,$4
	move	$17,$5
$LVL25 = .
	.loc 1 142 0
	jal	rtl_get_skb_data
	move	$4,$5

$LVL26 = .
	.loc 1 143 0
	move	$4,$17
$LVL27 = .
	jal	rtl_ip_hdr
	move	$19,$2

$LVL28 = .
	.loc 1 144 0
	lw	$17,0($2)
$LVL29 = .
	.loc 1 149 0
	li	$6,6			# 0x6
	addiu	$5,$19,-8
	addiu	$4,$16,26
	.loc 1 144 0
	andi	$17,$17,0xf
	sll	$17,$17,2
	.loc 1 143 0
	move	$18,$2
$LVL30 = .
	.loc 1 149 0
	jal	memcpy
	addu	$17,$2,$17

$LVL31 = .
	.loc 1 150 0
	li	$6,6			# 0x6
	addiu	$5,$19,-14
$LVL32 = .
	jal	memcpy
	addiu	$4,$16,32

$LVL33 = .
	.loc 1 154 0
	addiu	$4,$16,40
	.loc 1 151 0
	lbu	$24,-2($19)
	.loc 1 154 0
	li	$6,20			# 0x14
	move	$5,$18
	.loc 1 151 0
	sb	$24,38($16)
	lbu	$24,-1($19)
	.loc 1 154 0
	jal	memcpy
	sb	$24,39($16)

$LVL34 = .
$LBB2 = .
	.loc 1 155 0
	lw	$5,16($18)
	lw	$4,52($16)
$LVL35 = .
	srl	$2,$5,16
	andi	$24,$5,0xffff
	addu	$24,$24,$2
	srl	$3,$4,16
	subu	$2,$3,$24
	andi	$24,$4,0xffff
	addu	$24,$2,$24
$LVL36 = .
	lhu	$2,50($16)
	addu	$24,$24,$2
$LVL37 = .
	bgez	$24,$L33
	sra	$2,$24,16

	.loc 1 155 0 is_stmt 0 discriminator 1
	subu	$24,$0,$24
$LVL38 = .
	sra	$2,$24,16
	andi	$24,$24,0xffff
$LVL39 = .
	addu	$24,$2,$24
$LVL40 = .
	sra	$2,$24,16
$LVL41 = .
	addu	$24,$24,$2
$LVL42 = .
$LBE2 = .
	j	$L38
	nor	$24,$0,$24

$LVL43 = .
$L33:
$LBB3 = .
	.loc 1 155 0 discriminator 2
	andi	$24,$24,0xffff
$LVL44 = .
	addu	$24,$2,$24
$LVL45 = .
	sra	$2,$24,16
$LVL46 = .
	addu	$24,$24,$2
$LVL47 = .
$L38:
$LBE3 = .
$LBB4 = .
	.loc 1 157 0 is_stmt 1 discriminator 2
	lw	$4,56($16)
$LBE4 = .
	.loc 1 156 0 discriminator 2
	sw	$5,52($16)
$LVL48 = .
$LBB5 = .
	.loc 1 155 0 discriminator 2
	sh	$24,50($16)
$LBE5 = .
$LBB6 = .
	.loc 1 157 0 discriminator 2
	lw	$5,12($18)
$LVL49 = .
	srl	$3,$4,16
	srl	$2,$5,16
	andi	$24,$5,0xffff
	addu	$24,$24,$2
	subu	$2,$3,$24
	andi	$24,$4,0xffff
	addu	$24,$2,$24
$LVL50 = .
	lhu	$2,50($16)
	addu	$24,$24,$2
$LVL51 = .
	bgez	$24,$L35
	sra	$2,$24,16

	.loc 1 157 0 is_stmt 0 discriminator 1
	subu	$24,$0,$24
$LVL52 = .
	sra	$2,$24,16
	andi	$24,$24,0xffff
$LVL53 = .
	addu	$24,$2,$24
$LVL54 = .
	sra	$2,$24,16
$LVL55 = .
	addu	$24,$24,$2
$LVL56 = .
$LBE6 = .
	j	$L39
	nor	$24,$0,$24

$LVL57 = .
$L35:
$LBB7 = .
	.loc 1 157 0 discriminator 2
	andi	$24,$24,0xffff
$LVL58 = .
	addu	$24,$2,$24
$LVL59 = .
	sra	$2,$24,16
$LVL60 = .
	addu	$24,$24,$2
$LVL61 = .
$L39:
$LBE7 = .
	.loc 1 158 0 is_stmt 1 discriminator 2
	sw	$5,56($16)
	.loc 1 161 0 discriminator 2
	addiu	$4,$16,60
	addiu	$5,$18,20
$LBB8 = .
	.loc 1 157 0 discriminator 2
	sh	$24,50($16)
$LBE8 = .
	.loc 1 161 0 discriminator 2
	jal	memcpy
	li	$6,8			# 0x8

$LVL62 = .
	.loc 1 165 0 discriminator 2
	lhu	$24,60($16)
$LVL63 = .
	.loc 1 166 0 discriminator 2
	lhu	$2,62($16)
	.loc 1 181 0 discriminator 2
	lw	$31,36($sp)
	lw	$19,32($sp)
$LVL64 = .
	.loc 1 167 0 discriminator 2
	sh	$24,62($16)
$LVL65 = .
	.loc 1 172 0 discriminator 2
	lhu	$24,8($17)
	.loc 1 181 0 discriminator 2
	lw	$18,28($sp)
$LVL66 = .
	lw	$17,24($sp)
$LVL67 = .
	.loc 1 172 0 discriminator 2
	andi	$24,$24,0xffbf
	.loc 1 166 0 discriminator 2
	sh	$2,60($16)
$LVL68 = .
	.loc 1 163 0 discriminator 2
	sh	$0,66($16)
	.loc 1 181 0 discriminator 2
	move	$2,$0
	.loc 1 172 0 discriminator 2
	sh	$24,68($16)
$LVL69 = .
	lhu	$24,16($16)
	wsbh	$24,$24
	.loc 1 173 0 discriminator 2
	sh	$24,70($16)
$LVL70 = .
	lhu	$24,18($16)
	wsbh	$24,$24
	.loc 1 174 0 discriminator 2
	sh	$24,72($16)
$LVL71 = .
	.loc 1 175 0 discriminator 2
	li	$24,1023			# 0x3ff
	sh	$24,74($16)
$LVL72 = .
	.loc 1 176 0 discriminator 2
	li	$24,8448			# 0x2100
	sh	$24,76($16)
	.loc 1 179 0 discriminator 2
	li	$24,1			# 0x1
	sh	$24,24($16)
	.loc 1 181 0 discriminator 2
	lw	$16,20($sp)
$LVL73 = .
	j	$31
	addiu	$sp,$sp,40

	.cfi_def_cfa_offset 0
	.cfi_restore 16
	.cfi_restore 17
	.cfi_restore 18
	.cfi_restore 19
	.cfi_restore 31
	.set	macro
	.set	reorder
	.end	fill_l2tp_session
	.cfi_endproc
$LFE76:
	.size	fill_l2tp_session, .-fill_l2tp_session
	.section	.text.find_l2tp_session,"ax",@progbits
	.align	2
	.globl	find_l2tp_session
$LFB77 = .
	.loc 1 183 0
	.cfi_startproc
	.set	nomips16
	.set	nomicromips
	.ent	find_l2tp_session
	.type	find_l2tp_session, @function
find_l2tp_session:
	.frame	$sp,24,$31		# vars= 0, regs= 2/0, args= 16, gp= 0
	.mask	0x80010000,-4
	.fmask	0x00000000,0
	.set	noreorder
	.set	nomacro
$LVL74 = .
	addiu	$sp,$sp,-24
	.cfi_def_cfa_offset 24
	sw	$31,20($sp)
	sw	$16,16($sp)
	.cfi_offset 31, -4
	.cfi_offset 16, -8
	.loc 1 194 0
	jal	rtl_ip_hdr
	move	$16,$4

$LVL75 = .
	.loc 1 198 0
	li	$3,1701			# 0x6a5
	.loc 1 195 0
	lw	$24,0($2)
	andi	$24,$24,0xf
	sll	$24,$24,2
	addu	$24,$2,$24
$LVL76 = .
	lhu	$2,0($24)
$LVL77 = .
	wsbh	$2,$2
	andi	$2,$2,0xffff
	.loc 1 198 0
	bne	$2,$3,$L41
	move	$4,$0

$LVL78 = .
	lhu	$2,8($24)
	wsbh	$2,$2
	andi	$3,$2,0xffff
	.loc 1 198 0 is_stmt 0 discriminator 1
	seh	$2,$2
	bltz	$2,$L41
	andi	$3,$3,0x4000

$LVL79 = .
	.loc 1 200 0 is_stmt 1
	bnel	$3,$0,$L42
	lhu	$6,12($24)

	.loc 1 201 0
	addiu	$2,$24,10
$LVL80 = .
	j	$L43
	lhu	$6,10($24)

$LVL81 = .
$L42:
	.loc 1 203 0
	addiu	$2,$24,12
$LVL82 = .
$L43:
	lhu	$7,2($2)
	wsbh	$6,$6
	.loc 1 204 0
	move	$4,$0
	move	$5,$0
	wsbh	$7,$7
	andi	$6,$6,0xffff
	jal	get_l2tp_session
	andi	$7,$7,0xffff

$LVL83 = .
	.loc 1 205 0
	beq	$2,$0,$L41
	move	$4,$0

	.loc 1 205 0 is_stmt 0 discriminator 1
	lhu	$24,24($2)
	bne	$24,$0,$L41
	move	$4,$2

	.loc 1 209 0 is_stmt 1 discriminator 1
	jal	fill_l2tp_session
	move	$5,$16

$LVL84 = .
	.loc 1 217 0 discriminator 1
	move	$4,$0
$L41:
	.loc 1 218 0
	lw	$31,20($sp)
	move	$2,$4
	lw	$16,16($sp)
$LVL85 = .
	j	$31
	addiu	$sp,$sp,24

	.cfi_def_cfa_offset 0
	.cfi_restore 16
	.cfi_restore 31
	.set	macro
	.set	reorder
	.end	find_l2tp_session
	.cfi_endproc
$LFE77:
	.size	find_l2tp_session, .-find_l2tp_session
	.section	.text.alloc_l2tp_session,"ax",@progbits
	.align	2
	.globl	alloc_l2tp_session
$LFB78 = .
	.loc 1 221 0
	.cfi_startproc
	.set	nomips16
	.set	nomicromips
	.ent	alloc_l2tp_session
	.type	alloc_l2tp_session, @function
alloc_l2tp_session:
	.frame	$sp,0,$31		# vars= 0, regs= 0/0, args= 0, gp= 0
	.mask	0x00000000,0
	.fmask	0x00000000,0
	.set	noreorder
	.set	nomacro
$LVL86 = .
	.loc 1 225 0
	lui	$24,%hi(l2tpInfo)
	addiu	$24,$24,%lo(l2tpInfo)
	lhu	$2,24($24)
	bnel	$2,$0,$L56
	lhu	$3,104($24)

	lw	$2,8($24)
	beq	$2,$0,$L53
	move	$2,$0

$LVL87 = .
	lhu	$3,104($24)
$L56:
	bne	$3,$0,$L57
	move	$2,$0

	lw	$4,88($24)
	bne	$4,$0,$L57
	move	$2,$3

	li	$2,1			# 0x1
$LVL88 = .
$L53:
	.loc 1 226 0
	li	$3,80			# 0x50
	mul	$4,$2,$3
	addu	$2,$4,$24
$L57:
	.loc 1 229 0
	j	$31
	nop

	.set	macro
	.set	reorder
	.end	alloc_l2tp_session
	.cfi_endproc
$LFE78:
	.size	alloc_l2tp_session, .-alloc_l2tp_session
	.section	.text.set_l2tp_session,"ax",@progbits
	.align	2
	.globl	set_l2tp_session
$LFB79 = .
	.loc 1 232 0
	.cfi_startproc
	.set	nomips16
	.set	nomicromips
	.ent	set_l2tp_session
	.type	set_l2tp_session, @function
set_l2tp_session:
	.frame	$sp,0,$31		# vars= 0, regs= 0/0, args= 0, gp= 0
	.mask	0x00000000,0
	.fmask	0x00000000,0
$LVL89 = .
	.loc 1 232 0
	lhu	$8,16($sp)
	lhu	$3,20($sp)
	lhu	$2,24($sp)
	lhu	$24,28($sp)
	.loc 1 234 0
 #APP
 # 234 "/home/kai_wang/release-ecos1.5.1/release_tool_v15/ecos_v1.5.1_20160706/ecos-work/../ecos-3.0/packages/net/bsd_tcpip/v3_0/src/sys/netinet/fastpath/fast_l2tp_core.c" 1
	di		$9;andi	$9, 1;nop; nop; nop;
 # 0 "" 2
$LVL90 = .
	.loc 1 235 0
 #NO_APP
	.set	noreorder
	.set	nomacro
	bnel	$5,$0,$L59
	sw	$5,8($4)
	.set	macro
	.set	reorder

$L59:
	.loc 1 237 0
	.set	noreorder
	.set	nomacro
	bnel	$6,$0,$L60
	sw	$6,4($4)
	.set	macro
	.set	reorder

$L60:
	.loc 1 239 0
	.set	noreorder
	.set	nomacro
	bnel	$7,$0,$L61
	sw	$7,0($4)
	.set	macro
	.set	reorder

$L61:
	.loc 1 241 0
	.set	noreorder
	.set	nomacro
	bnel	$8,$0,$L62
	sh	$8,20($4)
	.set	macro
	.set	reorder

$L62:
	.loc 1 243 0
	.set	noreorder
	.set	nomacro
	bnel	$3,$0,$L63
	sh	$3,22($4)
	.set	macro
	.set	reorder

$L63:
	.loc 1 245 0
	.set	noreorder
	.set	nomacro
	bnel	$2,$0,$L64
	sh	$2,16($4)
	.set	macro
	.set	reorder

$L64:
	.loc 1 247 0
	.set	noreorder
	.set	nomacro
	bnel	$24,$0,$L65
	sh	$24,18($4)
	.set	macro
	.set	reorder

$L65:
	.loc 1 249 0
 #APP
 # 249 "/home/kai_wang/release-ecos1.5.1/release_tool_v15/ecos_v1.5.1_20160706/ecos-work/../ecos-3.0/packages/net/bsd_tcpip/v3_0/src/sys/netinet/fastpath/fast_l2tp_core.c" 1
	beqz	$9, 1f;di;ei;1:nop; nop; nop;
 # 0 "" 2
	.loc 1 251 0
 #NO_APP
	.set	noreorder
	.set	nomacro
	j	$31
	move	$2,$0
	.set	macro
	.set	reorder

	.end	set_l2tp_session
	.cfi_endproc
$LFE79:
	.size	set_l2tp_session, .-set_l2tp_session
	.section	.text.new_l2tp_session,"ax",@progbits
	.align	2
	.globl	new_l2tp_session
$LFB80 = .
	.loc 1 253 0
	.cfi_startproc
	.set	nomips16
	.set	nomicromips
	.ent	new_l2tp_session
	.type	new_l2tp_session, @function
new_l2tp_session:
	.frame	$sp,64,$31		# vars= 0, regs= 8/0, args= 32, gp= 0
	.mask	0x807f0000,-4
	.fmask	0x00000000,0
	.set	noreorder
	.set	nomacro
$LVL91 = .
	addiu	$sp,$sp,-64
	.cfi_def_cfa_offset 64
	sw	$31,60($sp)
	sw	$22,56($sp)
	sw	$21,52($sp)
	sw	$20,48($sp)
	sw	$19,44($sp)
	sw	$18,40($sp)
	sw	$17,36($sp)
	sw	$16,32($sp)
	.cfi_offset 31, -4
	.cfi_offset 22, -8
	.cfi_offset 21, -12
	.cfi_offset 20, -16
	.cfi_offset 19, -20
	.cfi_offset 18, -24
	.cfi_offset 17, -28
	.cfi_offset 16, -32
	.loc 1 253 0
	andi	$16,$7,0xffff
	lhu	$17,80($sp)
	move	$20,$6
	.loc 1 255 0
	move	$6,$16
$LVL92 = .
	.loc 1 253 0
	lhu	$21,84($sp)
	move	$18,$4
	lhu	$22,88($sp)
	.loc 1 255 0
	move	$7,$17
$LVL93 = .
	jal	get_l2tp_session
	move	$19,$5

$LVL94 = .
	.loc 1 256 0
	bnel	$2,$0,$L92
	sw	$22,28($sp)

	.loc 1 258 0
	jal	alloc_l2tp_session
	nop

$LVL95 = .
	.loc 1 259 0
	beq	$2,$0,$L89
	li	$24,-1			# 0xffffffffffffffff

	.loc 1 262 0
	sw	$22,28($sp)
$L92:
	move	$7,$20
	sw	$21,24($sp)
	move	$6,$19
	sw	$17,20($sp)
	move	$5,$18
	sw	$16,16($sp)
	jal	set_l2tp_session
	move	$4,$2

$LVL96 = .
	.loc 1 263 0
	move	$24,$0
$L89:
	.loc 1 264 0
	lw	$31,60($sp)
	move	$2,$24
	lw	$22,56($sp)
	lw	$21,52($sp)
	lw	$20,48($sp)
$LVL97 = .
	lw	$19,44($sp)
$LVL98 = .
	lw	$18,40($sp)
$LVL99 = .
	lw	$17,36($sp)
	lw	$16,32($sp)
$LVL100 = .
$LVL101 = .
	j	$31
	addiu	$sp,$sp,64

	.cfi_def_cfa_offset 0
	.cfi_restore 16
	.cfi_restore 17
	.cfi_restore 18
	.cfi_restore 19
	.cfi_restore 20
	.cfi_restore 21
	.cfi_restore 22
	.cfi_restore 31
	.set	macro
	.set	reorder
	.end	new_l2tp_session
	.cfi_endproc
$LFE80:
	.size	new_l2tp_session, .-new_l2tp_session
	.section	.text.clear_l2tp_session,"ax",@progbits
	.align	2
	.globl	clear_l2tp_session
$LFB81 = .
	.loc 1 267 0
	.cfi_startproc
	.set	nomips16
	.set	nomicromips
	.ent	clear_l2tp_session
	.type	clear_l2tp_session, @function
clear_l2tp_session:
	.frame	$sp,24,$31		# vars= 0, regs= 2/0, args= 16, gp= 0
	.mask	0x80010000,-4
	.fmask	0x00000000,0
$LVL102 = .
	addiu	$sp,$sp,-24
	.cfi_def_cfa_offset 24
	sw	$31,20($sp)
	sw	$16,16($sp)
	.cfi_offset 31, -4
	.cfi_offset 16, -8
	.loc 1 267 0
	andi	$5,$5,0xffff
	andi	$7,$6,0xffff
	.loc 1 270 0
 #APP
 # 270 "/home/kai_wang/release-ecos1.5.1/release_tool_v15/ecos_v1.5.1_20160706/ecos-work/../ecos-3.0/packages/net/bsd_tcpip/v3_0/src/sys/netinet/fastpath/fast_l2tp_core.c" 1
	di		$16;andi	$16, 1;nop; nop; nop;
 # 0 "" 2
$LVL103 = .
	.loc 1 271 0
 #NO_APP
	move	$6,$5
$LVL104 = .
	.set	noreorder
	.set	nomacro
	jal	get_l2tp_session
	move	$5,$0
	.set	macro
	.set	reorder

$LVL105 = .
	.loc 1 272 0
	.set	noreorder
	.set	nomacro
	beq	$2,$0,$L94
	li	$6,80			# 0x50
	.set	macro
	.set	reorder

	.loc 1 273 0
	move	$5,$0
	.set	noreorder
	.set	nomacro
	jal	memset
	move	$4,$2
	.set	macro
	.set	reorder

$LVL106 = .
$L94:
	.loc 1 274 0
 #APP
 # 274 "/home/kai_wang/release-ecos1.5.1/release_tool_v15/ecos_v1.5.1_20160706/ecos-work/../ecos-3.0/packages/net/bsd_tcpip/v3_0/src/sys/netinet/fastpath/fast_l2tp_core.c" 1
	beqz	$16, 1f;di;ei;1:nop; nop; nop;
 # 0 "" 2
	.loc 1 276 0
 #NO_APP
	lw	$31,20($sp)
	move	$2,$0
	lw	$16,16($sp)
$LVL107 = .
	.set	noreorder
	.set	nomacro
	j	$31
	addiu	$sp,$sp,24
	.set	macro
	.set	reorder

	.cfi_def_cfa_offset 0
	.cfi_restore 16
	.cfi_restore 31
	.end	clear_l2tp_session
	.cfi_endproc
$LFE81:
	.size	clear_l2tp_session, .-clear_l2tp_session
	.section	.rodata.str1.4
	.align	2
$LC9:
	.ascii	"%s\012\000"
	.align	2
$LC10:
	.ascii	"\012\000"
	.align	2
$LC11:
	.ascii	"%02x \000"
	.section	.text.dump_skb_mem,"ax",@progbits
	.align	2
	.globl	dump_skb_mem
$LFB82 = .
	.loc 1 408 0
	.cfi_startproc
	.set	nomips16
	.set	nomicromips
	.ent	dump_skb_mem
	.type	dump_skb_mem, @function
dump_skb_mem:
	.frame	$sp,40,$31		# vars= 0, regs= 6/0, args= 16, gp= 0
	.mask	0x801f0000,-4
	.fmask	0x00000000,0
	.set	noreorder
	.set	nomacro
$LVL108 = .
	addiu	$sp,$sp,-40
	.cfi_def_cfa_offset 40
	sw	$31,36($sp)
	sw	$20,32($sp)
	sw	$19,28($sp)
	sw	$18,24($sp)
	sw	$17,20($sp)
	sw	$16,16($sp)
	.cfi_offset 31, -4
	.cfi_offset 20, -8
	.cfi_offset 19, -12
	.cfi_offset 18, -16
	.cfi_offset 17, -20
	.cfi_offset 16, -24
	.loc 1 408 0
	move	$20,$5
	.loc 1 410 0
	move	$5,$4
$LVL109 = .
	lui	$4,%hi($LC9)
$LVL110 = .
	.loc 1 414 0
	lui	$17,%hi($LC10)
	.loc 1 415 0
	lui	$18,%hi($LC11)
	.loc 1 410 0
	addiu	$4,$4,%lo($LC9)
	.loc 1 411 0
	move	$16,$0
	.loc 1 414 0
	addiu	$17,$17,%lo($LC10)
	.loc 1 415 0
	addiu	$18,$18,%lo($LC11)
	.loc 1 410 0
	jal	diag_printf
	move	$19,$6

$LVL111 = .
	.loc 1 411 0 discriminator 1
	slt	$24,$16,$19
$L105:
	beq	$24,$0,$L104
	addiu	$16,$16,1

$LVL112 = .
	.loc 1 413 0
	andi	$24,$16,0xf
	bnel	$24,$0,$L106
	addu	$24,$20,$16

	.loc 1 414 0
	jal	diag_printf
	move	$4,$17

$LVL113 = .
	addu	$24,$20,$16
$L106:
	.loc 1 415 0 discriminator 2
	move	$4,$18
	jal	diag_printf
	lbu	$5,-1($24)

$LVL114 = .
	.loc 1 411 0 discriminator 2
	j	$L105
	slt	$24,$16,$19

$L104:
	.loc 1 417 0
	lw	$31,36($sp)
	lw	$20,32($sp)
$LVL115 = .
	lw	$19,28($sp)
$LVL116 = .
	lw	$18,24($sp)
	lw	$17,20($sp)
	lw	$16,16($sp)
$LVL117 = .
	j	$31
	addiu	$sp,$sp,40

	.cfi_def_cfa_offset 0
	.cfi_restore 16
	.cfi_restore 17
	.cfi_restore 18
	.cfi_restore 19
	.cfi_restore 20
	.cfi_restore 31
	.set	macro
	.set	reorder
	.end	dump_skb_mem
	.cfi_endproc
$LFE82:
	.size	dump_skb_mem, .-dump_skb_mem
	.section	.text.check_and_restore_l2tp_hdr,"ax",@progbits
	.align	2
	.globl	check_and_restore_l2tp_hdr
$LFB83 = .
	.loc 1 420 0
	.cfi_startproc
	.set	nomips16
	.set	nomicromips
	.ent	check_and_restore_l2tp_hdr
	.type	check_and_restore_l2tp_hdr, @function
check_and_restore_l2tp_hdr:
	.frame	$sp,24,$31		# vars= 0, regs= 2/0, args= 16, gp= 0
	.mask	0x80010000,-4
	.fmask	0x00000000,0
	.set	noreorder
	.set	nomacro
$LVL118 = .
	.loc 1 421 0
	lui	$24,%hi(fast_l2tp_fw)
	lw	$24,%lo(fast_l2tp_fw)($24)
	beq	$24,$0,$L117
	nop

	.loc 1 420 0
	addiu	$sp,$sp,-24
	.cfi_def_cfa_offset 24
	sw	$31,20($sp)
	sw	$16,16($sp)
	.cfi_offset 31, -4
	.cfi_offset 16, -8
	.loc 1 423 0
	lbu	$24,71($4)
	beq	$24,$0,$L107
	move	$16,$4

$LBB9 = .
	.loc 1 424 0
	jal	rtl_skb_push
	lbu	$5,72($4)

$LVL119 = .
	.loc 1 425 0
	sb	$0,71($16)
$L107:
$LBE9 = .
	.loc 1 428 0
	lw	$31,20($sp)
	lw	$16,16($sp)
$LVL120 = .
	addiu	$sp,$sp,24
	.cfi_restore 16
	.cfi_restore 31
	.cfi_def_cfa_offset 0
$L117:
	j	$31
	nop

	.set	macro
	.set	reorder
	.end	check_and_restore_l2tp_hdr
	.cfi_endproc
$LFE83:
	.size	check_and_restore_l2tp_hdr, .-check_and_restore_l2tp_hdr
	.section	.text.fast_l2tp_rx,"ax",@progbits
	.align	2
	.globl	fast_l2tp_rx
$LFB84 = .
	.loc 1 430 0
	.cfi_startproc
	.set	nomips16
	.set	nomicromips
	.ent	fast_l2tp_rx
	.type	fast_l2tp_rx, @function
fast_l2tp_rx:
	.frame	$sp,40,$31		# vars= 0, regs= 5/0, args= 16, gp= 0
	.mask	0x800f0000,-4
	.fmask	0x00000000,0
	.set	noreorder
	.set	nomacro
$LVL121 = .
	addiu	$sp,$sp,-40
	.cfi_def_cfa_offset 40
	sw	$31,36($sp)
	sw	$19,32($sp)
	sw	$18,28($sp)
	sw	$17,24($sp)
	sw	$16,20($sp)
	.cfi_offset 31, -4
	.cfi_offset 19, -8
	.cfi_offset 18, -12
	.cfi_offset 17, -16
	.cfi_offset 16, -20
	.loc 1 431 0
	jal	rtl_ip_hdr
	move	$18,$4

$LVL122 = .
	.loc 1 440 0
	move	$4,$18
	.loc 1 432 0
	lw	$16,0($2)
$LVL123 = .
	.loc 1 440 0
	jal	rtl_get_skb_data
	move	$19,$2

$LVL124 = .
	.loc 1 442 0
	move	$4,$18
	jal	rtl_get_skb_len
	move	$17,$2

$LVL125 = .
	slt	$2,$2,40
$LVL126 = .
	bne	$2,$0,$L118
	andi	$16,$16,0xf

	.loc 1 432 0
	sll	$16,$16,2
	.loc 1 444 0
	move	$5,$0
	.loc 1 432 0
	addu	$16,$19,$16
	.loc 1 444 0
	jal	rtl_set_skb_l2tp_flag
	move	$4,$18

$LVL127 = .
	.loc 1 446 0
	li	$2,1701			# 0x6a5
	lhu	$24,0($16)
	wsbh	$24,$24
	andi	$24,$24,0xffff
	bne	$24,$2,$L140
	lw	$31,36($sp)

$LVL128 = .
	lhu	$24,8($16)
	wsbh	$24,$24
	.loc 1 446 0 is_stmt 0 discriminator 1
	seh	$24,$24
	bltz	$24,$L140
	li	$16,2			# 0x2

	.loc 1 454 0 is_stmt 1
	lbu	$2,28($17)
$LVL129 = .
	andi	$24,$2,0x40
	.loc 1 455 0
	movz	$16,$0,$24
$LVL130 = .
	.loc 1 457 0
	andi	$2,$2,0x2
	.loc 1 458 0
	addu	$16,$16,$2
$LVL131 = .
	.loc 1 462 0
	addu	$24,$17,$16
	.loc 1 463 0
	addiu	$2,$16,2
	.loc 1 462 0
	lbu	$24,34($24)
	.loc 1 463 0
	xori	$24,$24,0xff
	movz	$16,$2,$24
$LVL132 = .
	.loc 1 465 0
	addu	$24,$17,$16
	lbu	$2,34($24)
	bnel	$2,$0,$L141
	lw	$19,32($sp)

	.loc 1 465 0 is_stmt 0 discriminator 1
	lbu	$2,35($24)
	li	$24,33			# 0x21
	bnel	$2,$24,$L141
	lw	$19,32($sp)

	.loc 1 466 0 is_stmt 1
	jal	find_l2tp_session
	move	$4,$18

$LVL133 = .
	.loc 1 467 0
	beq	$2,$0,$L118
	move	$19,$2

	.loc 1 473 0
	addiu	$16,$16,36
$LVL134 = .
	.loc 1 474 0
	li	$2,6			# 0x6
$LVL135 = .
	.loc 1 473 0
	addu	$17,$17,$16
$LVL136 = .
	.loc 1 474 0
	lbu	$24,9($17)
	bnel	$24,$2,$L125
	li	$2,17			# 0x11

$LVL137 = .
	.loc 1 476 0
	lw	$24,0($17)
	andi	$24,$24,0xf
	.loc 1 477 0
	sll	$24,$24,2
	addu	$17,$17,$24
$LVL138 = .
	lbu	$24,13($17)
	andi	$24,$24,0x7
	beq	$24,$0,$L142
	move	$5,$16

	.loc 1 513 0
	j	$L140
	lw	$31,36($sp)

$LVL139 = .
$L125:
	.loc 1 480 0 discriminator 1
	bne	$24,$2,$L140
	lw	$31,36($sp)

$LVL140 = .
$LBB10 = .
	.loc 1 484 0
	move	$5,$16
$L142:
	jal	skb_pull
	move	$4,$18

$LVL141 = .
	.loc 1 485 0
	li	$5,1			# 0x1
	jal	rtl_set_skb_l2tp_flag
	move	$4,$18

$LVL142 = .
	.loc 1 486 0
	move	$5,$16
	jal	rtl_set_skb_l2tp_offset
	move	$4,$18

$LVL143 = .
	.loc 1 489 0
	lw	$24,4($19)
$LVL144 = .
	.loc 1 490 0
	beq	$24,$0,$L140
	lw	$31,36($sp)

	.loc 1 490 0 is_stmt 0 discriminator 1
	lhu	$2,58($24)
	andi	$2,$2,0x1
	beq	$2,$0,$L141
	lw	$19,32($sp)

	.loc 1 492 0 is_stmt 1
	lw	$2,92($24)
	addiu	$2,$2,1
	sw	$2,92($24)
$LVL145 = .
$L118:
$LBE10 = .
	.loc 1 513 0
	lw	$31,36($sp)
$L140:
	lw	$19,32($sp)
$L141:
	lw	$18,28($sp)
$LVL146 = .
	lw	$17,24($sp)
	lw	$16,20($sp)
	j	$31
	addiu	$sp,$sp,40

	.cfi_def_cfa_offset 0
	.cfi_restore 16
	.cfi_restore 17
	.cfi_restore 18
	.cfi_restore 19
	.cfi_restore 31
	.set	macro
	.set	reorder
	.end	fast_l2tp_rx
	.cfi_endproc
$LFE84:
	.size	fast_l2tp_rx, .-fast_l2tp_rx
	.section	.text.get_fast_l2tp_lastxmit,"ax",@progbits
	.align	2
	.globl	get_fast_l2tp_lastxmit
$LFB85 = .
	.loc 1 516 0
	.cfi_startproc
	.set	nomips16
	.set	nomicromips
	.ent	get_fast_l2tp_lastxmit
	.type	get_fast_l2tp_lastxmit, @function
get_fast_l2tp_lastxmit:
	.frame	$sp,24,$31		# vars= 0, regs= 1/0, args= 16, gp= 0
	.mask	0x80000000,-4
	.fmask	0x00000000,0
	.set	noreorder
	.set	nomacro
$LVL147 = .
	addiu	$sp,$sp,-24
	.cfi_def_cfa_offset 24
	sw	$31,20($sp)
	.cfi_offset 31, -4
	.loc 1 519 0
	jal	cyg_ifunit
	nop

$LVL148 = .
	.loc 1 520 0
	beq	$2,$0,$L144
	move	$24,$0

	.loc 1 521 0
	move	$7,$0
	move	$6,$0
	move	$4,$0
	jal	get_l2tp_session
	move	$5,$2

$LVL149 = .
	.loc 1 522 0
	beq	$2,$0,$L144
	move	$24,$0

	.loc 1 523 0
	lw	$24,12($2)
$LVL150 = .
$L144:
	.loc 1 526 0
	lw	$31,20($sp)
	move	$2,$24
	j	$31
	addiu	$sp,$sp,24

	.cfi_def_cfa_offset 0
	.cfi_restore 31
	.set	macro
	.set	reorder
	.end	get_fast_l2tp_lastxmit
	.cfi_endproc
$LFE85:
	.size	get_fast_l2tp_lastxmit, .-get_fast_l2tp_lastxmit
	.section	.text.fast_l2tp_to_wan,"ax",@progbits
	.align	2
	.globl	fast_l2tp_to_wan
$LFB86 = .
	.loc 1 553 0
	.cfi_startproc
	.set	nomips16
	.set	nomicromips
	.ent	fast_l2tp_to_wan
	.type	fast_l2tp_to_wan, @function
fast_l2tp_to_wan:
	.frame	$sp,48,$31		# vars= 0, regs= 7/0, args= 16, gp= 0
	.mask	0x803f0000,-4
	.fmask	0x00000000,0
	.set	noreorder
	.set	nomacro
$LVL151 = .
	.loc 1 561 0
	lui	$24,%hi(fast_l2tp_fw)
	lw	$2,%lo(fast_l2tp_fw)($24)
	beq	$2,$0,$L175
	nop

	.loc 1 553 0
	addiu	$sp,$sp,-48
	.cfi_def_cfa_offset 48
	sw	$31,44($sp)
	sw	$21,40($sp)
	sw	$20,36($sp)
	sw	$19,32($sp)
	sw	$18,28($sp)
	sw	$17,24($sp)
	sw	$16,20($sp)
	.cfi_offset 31, -4
	.cfi_offset 21, -8
	.cfi_offset 20, -12
	.cfi_offset 19, -16
	.cfi_offset 18, -20
	.cfi_offset 17, -24
	.cfi_offset 16, -28
	.loc 1 564 0
	move	$7,$0
	move	$16,$4
	move	$6,$0
	move	$4,$0
$LVL152 = .
	jal	get_l2tp_session
	move	$20,$5

$LVL153 = .
	move	$17,$2
$LVL154 = .
	.loc 1 565 0
	beq	$17,$0,$L149
	move	$2,$0

	.loc 1 565 0 is_stmt 0 discriminator 1
	lhu	$24,24($17)
	beq	$24,$0,$L178
	lw	$31,44($sp)

	.loc 1 570 0 is_stmt 1
	jal	rtl_ip_hdr
	move	$4,$16

$LVL155 = .
$LBB20 = .
$LBB21 = .
	.file 2 "/home/kai_wang/release-ecos1.5.1/release_tool_v15/ecos_v1.5.1_20160706/ecos-work/97f-8812br-16M-gw_install/include/cyg/io/eth/rltk/819x/wrapper/skbuff.h"
	.loc 2 464 0
	lw	$24,36($16)
	.loc 2 463 0
	lw	$4,16($16)
	lhu	$19,2($2)
	.loc 2 464 0
	addiu	$24,$24,52
	.loc 2 463 0
	addiu	$4,$4,-52
	wsbh	$19,$19
	.loc 2 464 0
	sw	$24,36($16)
$LVL156 = .
	.loc 2 463 0
	sw	$4,16($16)
$LVL157 = .
	.loc 2 469 0
	lw	$24,84($16)
	beq	$24,$0,$L150
	andi	$19,$19,0xffff

$LVL158 = .
$LBB22 = .
$LBB23 = .
	lw	$24,76($16)
	beq	$24,$0,$L150
	addiu	$24,$24,52

	.loc 2 470 0
	sw	$24,76($16)
$LVL159 = .
$L150:
$LBE23 = .
$LBE22 = .
$LBE21 = .
$LBE20 = .
	.loc 1 590 0
	li	$6,14			# 0xe
	addiu	$5,$17,26
	jal	memcpy
	addiu	$21,$17,40

$LVL160 = .
$LBB24 = .
	.loc 1 605 0
	move	$4,$16
$LVL161 = .
	jal	rtl_get_skb_len
	lhu	$18,42($17)

$LVL162 = .
	addiu	$2,$2,-14
$LVL163 = .
	wsbh	$2,$2
	andi	$24,$2,0xffff
$LBE24 = .
$LBB25 = .
	.loc 1 610 0
	subu	$18,$18,$24
$LVL164 = .
	lhu	$24,50($17)
$LVL165 = .
	addu	$24,$18,$24
$LVL166 = .
	bgez	$24,$L151
	sh	$2,42($17)

$LVL167 = .
$LBE25 = .
	.loc 1 610 0 is_stmt 0 discriminator 1
	j	$L176
	addiu	$24,$24,-1

$LVL168 = .
$L151:
$LBB26 = .
	.loc 1 610 0 discriminator 2
	sra	$2,$24,16
	andi	$24,$24,0xffff
$LVL169 = .
	addu	$24,$2,$24
$LVL170 = .
	sra	$2,$24,16
$LVL171 = .
	addu	$24,$24,$2
$LVL172 = .
$L176:
$LBE26 = .
$LBB27 = .
	.loc 1 615 0 is_stmt 1 discriminator 2
	addiu	$19,$19,18
$LVL173 = .
$LBE27 = .
$LBB28 = .
	.loc 1 610 0 discriminator 2
	sh	$24,50($17)
$LBE28 = .
	.loc 1 611 0 discriminator 2
	jal	rtl_get_skb_data
	move	$4,$16

$LVL174 = .
	wsbh	$19,$19
$LVL175 = .
	li	$6,20			# 0x14
	addiu	$4,$2,14
	jal	memcpy
	move	$5,$21

$LVL176 = .
	.loc 1 622 0 discriminator 2
	move	$4,$16
	jal	rtl_get_skb_data
	sh	$19,64($17)

$LVL177 = .
	addiu	$5,$17,60
$LVL178 = .
	li	$6,18			# 0x12
	jal	memcpy
	addiu	$4,$2,34

$LVL179 = .
	.loc 1 627 0 discriminator 2
	jal	cyg_current_time
	nop

$LVL180 = .
	sw	$2,12($17)
	.loc 1 639 0 discriminator 2
	lw	$17,0($17)
$LVL181 = .
	beq	$17,$0,$L153
	move	$5,$17

$LVL182 = .
$LBB29 = .
	.loc 1 642 0
	jal	rtl_set_skb_dev
	move	$4,$16

$LVL183 = .
	.loc 1 643 0
	beql	$20,$0,$L179
	lw	$24,48($17)

	.loc 1 643 0 is_stmt 0 discriminator 1
	lhu	$24,58($20)
	andi	$24,$24,0x1
	beql	$24,$0,$L179
	lw	$24,48($17)

	.loc 1 645 0 is_stmt 1
	lw	$24,100($20)
	addiu	$24,$24,1
	sw	$24,100($20)
	.loc 1 647 0
	lw	$24,48($17)
$L179:
	move	$5,$17
	jalr	$24
	move	$4,$16

$LVL184 = .
$LBE29 = .
	.loc 1 679 0
	j	$L149
	li	$2,1			# 0x1

$LVL185 = .
$L153:
	.loc 1 650 0
	jal	kfree_skb
	move	$4,$16

$LVL186 = .
	.loc 1 679 0
	li	$2,1			# 0x1
$LVL187 = .
$L149:
	.loc 1 680 0
	lw	$31,44($sp)
$L178:
	lw	$21,40($sp)
	lw	$20,36($sp)
$LVL188 = .
	lw	$19,32($sp)
	lw	$18,28($sp)
	lw	$17,24($sp)
	lw	$16,20($sp)
$LVL189 = .
	addiu	$sp,$sp,48
	.cfi_restore 16
	.cfi_restore 17
	.cfi_restore 18
	.cfi_restore 19
	.cfi_restore 20
	.cfi_restore 21
	.cfi_restore 31
	.cfi_def_cfa_offset 0
$L175:
	j	$31
	nop

	.set	macro
	.set	reorder
	.end	fast_l2tp_to_wan
	.cfi_endproc
$LFE86:
	.size	fast_l2tp_to_wan, .-fast_l2tp_to_wan
	.section	.text.fast_l2tp_to_wan_check,"ax",@progbits
	.align	2
	.globl	fast_l2tp_to_wan_check
$LFB87 = .
	.loc 1 684 0
	.cfi_startproc
	.set	nomips16
	.set	nomicromips
	.ent	fast_l2tp_to_wan_check
	.type	fast_l2tp_to_wan_check, @function
fast_l2tp_to_wan_check:
	.frame	$sp,24,$31		# vars= 0, regs= 1/0, args= 16, gp= 0
	.mask	0x80000000,-4
	.fmask	0x00000000,0
	.set	noreorder
	.set	nomacro
$LVL190 = .
	.loc 1 692 0
	lui	$24,%hi(fast_l2tp_fw)
	lw	$24,%lo(fast_l2tp_fw)($24)
	beq	$24,$0,$L187
	nop

	.loc 1 684 0
	addiu	$sp,$sp,-24
	.cfi_def_cfa_offset 24
	sw	$31,20($sp)
	.cfi_offset 31, -4
	.loc 1 695 0
	move	$7,$0
	move	$5,$4
$LVL191 = .
	move	$6,$0
$LVL192 = .
	jal	get_l2tp_session
	move	$4,$0

$LVL193 = .
	.loc 1 696 0
	beq	$2,$0,$L181
	move	$24,$0

	.loc 1 696 0 is_stmt 0 discriminator 1
	lhu	$24,24($2)
	sltu	$24,$0,$24
$L181:
	.loc 1 702 0 is_stmt 1
	lw	$31,20($sp)
	move	$2,$24
$LVL194 = .
	j	$31
	addiu	$sp,$sp,24

	.cfi_def_cfa_offset 0
	.cfi_restore 31
$LVL195 = .
$L187:
	j	$31
	move	$2,$24

	.set	macro
	.set	reorder
	.end	fast_l2tp_to_wan_check
	.cfi_endproc
$LFE87:
	.size	fast_l2tp_to_wan_check, .-fast_l2tp_to_wan_check
	.section	.text.fast_l2tp_to_wan2,"ax",@progbits
	.align	2
	.globl	fast_l2tp_to_wan2
$LFB88 = .
	.loc 1 705 0
	.cfi_startproc
	.set	nomips16
	.set	nomicromips
	.ent	fast_l2tp_to_wan2
	.type	fast_l2tp_to_wan2, @function
fast_l2tp_to_wan2:
	.frame	$sp,48,$31		# vars= 0, regs= 7/0, args= 16, gp= 0
	.mask	0x803f0000,-4
	.fmask	0x00000000,0
	.set	noreorder
	.set	nomacro
$LVL196 = .
	addiu	$sp,$sp,-48
	.cfi_def_cfa_offset 48
	sw	$31,44($sp)
	sw	$21,40($sp)
	sw	$20,36($sp)
	sw	$19,32($sp)
	sw	$18,28($sp)
	sw	$17,24($sp)
	sw	$16,20($sp)
	.cfi_offset 31, -4
	.cfi_offset 21, -8
	.cfi_offset 20, -12
	.cfi_offset 19, -16
	.cfi_offset 18, -20
	.cfi_offset 17, -24
	.cfi_offset 16, -28
	.loc 1 713 0
	lui	$24,%hi(fast_l2tp_fw)
	lw	$24,%lo(fast_l2tp_fw)($24)
	beq	$24,$0,$L189
	move	$16,$5

	.loc 1 716 0
	move	$5,$4
$LVL197 = .
	move	$20,$4
	move	$7,$0
$LVL198 = .
	move	$6,$0
$LVL199 = .
	jal	get_l2tp_session
	move	$4,$0

$LVL200 = .
	.loc 1 717 0
	beq	$2,$0,$L189
	move	$17,$2

	.loc 1 717 0 is_stmt 0 discriminator 1
	lhu	$24,24($2)
	beq	$24,$0,$L189
	nop

	.loc 1 722 0 is_stmt 1
	jal	rtl_ip_hdr
	move	$4,$16

$LVL201 = .
$LBB39 = .
$LBB40 = .
	.loc 2 464 0
	lw	$24,36($16)
	.loc 2 463 0
	lw	$4,16($16)
	lhu	$19,2($2)
	.loc 2 464 0
	addiu	$24,$24,52
	.loc 2 463 0
	addiu	$4,$4,-52
	wsbh	$19,$19
	.loc 2 464 0
	sw	$24,36($16)
$LVL202 = .
	.loc 2 463 0
	sw	$4,16($16)
$LVL203 = .
	.loc 2 469 0
	lw	$24,84($16)
	beq	$24,$0,$L190
	andi	$19,$19,0xffff

$LVL204 = .
$LBB41 = .
$LBB42 = .
	lw	$24,76($16)
	beq	$24,$0,$L190
	addiu	$24,$24,52

	.loc 2 470 0
	sw	$24,76($16)
$LVL205 = .
$L190:
$LBE42 = .
$LBE41 = .
$LBE40 = .
$LBE39 = .
	.loc 1 742 0
	li	$6,14			# 0xe
	addiu	$5,$17,26
	jal	memcpy
	addiu	$21,$17,40

$LVL206 = .
$LBB43 = .
	.loc 1 757 0
	move	$4,$16
$LVL207 = .
	jal	rtl_get_skb_len
	lhu	$18,42($17)

$LVL208 = .
	addiu	$2,$2,-14
$LVL209 = .
	wsbh	$2,$2
	andi	$24,$2,0xffff
$LBE43 = .
$LBB44 = .
	.loc 1 762 0
	subu	$18,$18,$24
$LVL210 = .
	lhu	$24,50($17)
$LVL211 = .
	addu	$24,$18,$24
$LVL212 = .
	bgez	$24,$L191
	sh	$2,42($17)

$LVL213 = .
$LBE44 = .
	.loc 1 762 0 is_stmt 0 discriminator 1
	j	$L218
	addiu	$24,$24,-1

$LVL214 = .
$L191:
$LBB45 = .
	.loc 1 762 0 discriminator 2
	sra	$2,$24,16
	andi	$24,$24,0xffff
$LVL215 = .
	addu	$24,$2,$24
$LVL216 = .
	sra	$2,$24,16
$LVL217 = .
	addu	$24,$24,$2
$LVL218 = .
$L218:
$LBE45 = .
$LBB46 = .
	.loc 1 767 0 is_stmt 1 discriminator 2
	addiu	$19,$19,18
$LVL219 = .
$LBE46 = .
$LBB47 = .
	.loc 1 762 0 discriminator 2
	sh	$24,50($17)
$LBE47 = .
	.loc 1 763 0 discriminator 2
	jal	rtl_get_skb_data
	move	$4,$16

$LVL220 = .
	wsbh	$19,$19
$LVL221 = .
	li	$6,20			# 0x14
	addiu	$4,$2,14
	jal	memcpy
	move	$5,$21

$LVL222 = .
	.loc 1 774 0 discriminator 2
	move	$4,$16
	jal	rtl_get_skb_data
	sh	$19,64($17)

$LVL223 = .
	addiu	$5,$17,60
$LVL224 = .
	li	$6,18			# 0x12
	jal	memcpy
	addiu	$4,$2,34

$LVL225 = .
	.loc 1 779 0 discriminator 2
	jal	cyg_current_time
	nop

$LVL226 = .
	sw	$2,12($17)
	.loc 1 791 0 discriminator 2
	lw	$17,0($17)
$LVL227 = .
	beq	$17,$0,$L193
	move	$5,$17

$LVL228 = .
$LBB48 = .
	.loc 1 794 0
	jal	rtl_set_skb_dev
	move	$4,$16

$LVL229 = .
	.loc 1 795 0
	beql	$20,$0,$L220
	lw	$24,48($17)

	.loc 1 795 0 is_stmt 0 discriminator 1
	lhu	$24,58($20)
	andi	$24,$24,0x1
	beql	$24,$0,$L220
	lw	$24,48($17)

	.loc 1 797 0 is_stmt 1
	lw	$24,100($20)
	addiu	$24,$24,1
	sw	$24,100($20)
	.loc 1 799 0
	lw	$24,48($17)
$L220:
	move	$5,$17
	jalr	$24
	move	$4,$16

$LVL230 = .
$LBE48 = .
	.loc 1 831 0
	j	$L195
	li	$2,1			# 0x1

$LVL231 = .
$L193:
	.loc 1 802 0
	jal	kfree_skb
	move	$4,$16

$LVL232 = .
	.loc 1 831 0
	j	$L195
	li	$2,1			# 0x1

$LVL233 = .
$L189:
	.loc 1 834 0
	jal	kfree_skb
	move	$4,$16

$LVL234 = .
	.loc 1 835 0
	move	$2,$0
$L195:
	.loc 1 837 0
	lw	$31,44($sp)
	lw	$21,40($sp)
	lw	$20,36($sp)
	lw	$19,32($sp)
	lw	$18,28($sp)
	lw	$17,24($sp)
	lw	$16,20($sp)
$LVL235 = .
	j	$31
	addiu	$sp,$sp,48

	.cfi_def_cfa_offset 0
	.cfi_restore 16
	.cfi_restore 17
	.cfi_restore 18
	.cfi_restore 19
	.cfi_restore 20
	.cfi_restore 21
	.cfi_restore 31
	.set	macro
	.set	reorder
	.end	fast_l2tp_to_wan2
	.cfi_endproc
$LFE88:
	.size	fast_l2tp_to_wan2, .-fast_l2tp_to_wan2
	.section	.text.fast_l2tp_init,"ax",@progbits
	.align	2
	.globl	fast_l2tp_init
$LFB89 = .
	.loc 1 898 0
	.cfi_startproc
	.set	nomips16
	.set	nomicromips
	.ent	fast_l2tp_init
	.type	fast_l2tp_init, @function
fast_l2tp_init:
	.frame	$sp,24,$31		# vars= 0, regs= 1/0, args= 16, gp= 0
	.mask	0x80000000,-4
	.fmask	0x00000000,0
	.set	noreorder
	.set	nomacro
	addiu	$sp,$sp,-24
	.cfi_def_cfa_offset 24
	sw	$31,20($sp)
	.cfi_offset 31, -4
	.loc 1 907 0
	lui	$24,%hi(l2tp_tx_id_hook)
	.loc 1 910 0
	lui	$4,%hi(l2tpInfo)
	.loc 1 907 0
	sw	$0,%lo(l2tp_tx_id_hook)($24)
	.loc 1 908 0
	lui	$24,%hi(fast_l2tp_fw)
	.loc 1 910 0
	li	$6,160			# 0xa0
	.loc 1 908 0
	sw	$0,%lo(fast_l2tp_fw)($24)
	.loc 1 910 0
	move	$5,$0
	.loc 1 909 0
	lui	$24,%hi(state)
	.loc 1 910 0
	addiu	$4,$4,%lo(l2tpInfo)
	jal	memset
	sw	$0,%lo(state)($24)

$LVL236 = .
	.loc 1 912 0
	move	$2,$0
	lw	$31,20($sp)
	j	$31
	addiu	$sp,$sp,24

	.cfi_def_cfa_offset 0
	.cfi_restore 31
	.set	macro
	.set	reorder
	.end	fast_l2tp_init
	.cfi_endproc
$LFE89:
	.size	fast_l2tp_init, .-fast_l2tp_init
	.section	.text.fast_l2tp_exit,"ax",@progbits
	.align	2
	.globl	fast_l2tp_exit
$LFB90 = .
	.loc 1 915 0
	.cfi_startproc
	.set	nomips16
	.set	nomicromips
	.ent	fast_l2tp_exit
	.type	fast_l2tp_exit, @function
fast_l2tp_exit:
	.frame	$sp,0,$31		# vars= 0, regs= 0/0, args= 0, gp= 0
	.mask	0x00000000,0
	.fmask	0x00000000,0
	.set	noreorder
	.set	nomacro
	j	$31
	nop

	.set	macro
	.set	reorder
	.end	fast_l2tp_exit
	.cfi_endproc
$LFE90:
	.size	fast_l2tp_exit, .-fast_l2tp_exit

	.comm	fast_l2tp_fw,4,4

	.comm	state,4,4
	.section	.bss.l2tpInfo,"aw",@nobits
	.align	2
	.type	l2tpInfo, @object
	.size	l2tpInfo, 160
l2tpInfo:
	.space	160

	.comm	l2tp_tx_id_hook,4,4
	.text
$Letext0:
	.file 3 "/home/kai_wang/release-ecos1.5.1/release_tool_v15/ecos_v1.5.1_20160706/gnutools/msdk-4.9.4/linux/newlib/lib/gcc/mips-elf/4.9.4/include/stddef.h"
	.file 4 "/home/kai_wang/release-ecos1.5.1/release_tool_v15/ecos_v1.5.1_20160706/ecos-work/97f-8812br-16M-gw_install/include/cyg/infra/cyg_type.h"
	.file 5 "/home/kai_wang/release-ecos1.5.1/release_tool_v15/ecos_v1.5.1_20160706/ecos-work/97f-8812br-16M-gw_install/include/sys/bsdtypes.h"
	.file 6 "/home/kai_wang/release-ecos1.5.1/release_tool_v15/ecos_v1.5.1_20160706/ecos-work/97f-8812br-16M-gw_install/include/cyg/kernel/kapi.h"
	.file 7 "/home/kai_wang/release-ecos1.5.1/release_tool_v15/ecos_v1.5.1_20160706/ecos-work/97f-8812br-16M-gw_install/include/time.h"
	.file 8 "/home/kai_wang/release-ecos1.5.1/release_tool_v15/ecos_v1.5.1_20160706/ecos-work/97f-8812br-16M-gw_install/include/cyg/libc/time/time.h"
	.file 9 "/home/kai_wang/release-ecos1.5.1/release_tool_v15/ecos_v1.5.1_20160706/ecos-work/97f-8812br-16M-gw_install/include/rtl/rtl_types.h"
	.file 10 "/home/kai_wang/release-ecos1.5.1/release_tool_v15/ecos_v1.5.1_20160706/ecos-work/97f-8812br-16M-gw_install/include/cyg/io/eth/rltk/819x/wrapper/sys_support.h"
	.file 11 "/home/kai_wang/release-ecos1.5.1/release_tool_v15/ecos_v1.5.1_20160706/ecos-work/97f-8812br-16M-gw_install/include/sys/socket.h"
	.file 12 "/home/kai_wang/release-ecos1.5.1/release_tool_v15/ecos_v1.5.1_20160706/ecos-work/97f-8812br-16M-gw_install/include/cyg/posix/sys/time.h"
	.file 13 "/home/kai_wang/release-ecos1.5.1/release_tool_v15/ecos_v1.5.1_20160706/ecos-work/97f-8812br-16M-gw_install/include/net/if_var.h"
	.file 14 "/home/kai_wang/release-ecos1.5.1/release_tool_v15/ecos_v1.5.1_20160706/ecos-work/97f-8812br-16M-gw_install/include/net/if.h"
	.file 15 "/home/kai_wang/release-ecos1.5.1/release_tool_v15/ecos_v1.5.1_20160706/ecos-work/97f-8812br-16M-gw_install/include/sys/mbuf.h"
	.file 16 "/home/kai_wang/release-ecos1.5.1/release_tool_v15/ecos_v1.5.1_20160706/ecos-work/97f-8812br-16M-gw_install/include/net/route.h"
	.file 17 "/home/kai_wang/release-ecos1.5.1/release_tool_v15/ecos_v1.5.1_20160706/ecos-work/97f-8812br-16M-gw_install/include/netinet/rtl_vlan.h"
	.file 18 "/home/kai_wang/release-ecos1.5.1/release_tool_v15/ecos_v1.5.1_20160706/ecos-work/97f-8812br-16M-gw_install/include/cyg/io/eth/rltk/819x/wrapper/wireless.h"
	.file 19 "/home/kai_wang/release-ecos1.5.1/release_tool_v15/ecos_v1.5.1_20160706/ecos-work/97f-8812br-16M-gw_install/include/netinet/tcp.h"
	.file 20 "/home/kai_wang/release-ecos1.5.1/release_tool_v15/ecos_v1.5.1_20160706/ecos-work/97f-8812br-16M-gw_install/include/net/radix.h"
	.file 21 "/home/kai_wang/release-ecos1.5.1/release_tool_v15/ecos_v1.5.1_20160706/ecos-work/97f-8812br-16M-gw_install/include/netinet/fastpath/fastpath_core.h"
	.file 22 "/home/kai_wang/release-ecos1.5.1/release_tool_v15/ecos_v1.5.1_20160706/ecos-work/97f-8812br-16M-gw_install/include/cyg/libc/time/time.inl"
	.file 23 "/home/kai_wang/release-ecos1.5.1/release_tool_v15/ecos_v1.5.1_20160706/ecos-work/97f-8812br-16M-gw_install/include/cyg/libc/time/timeutil.h"
	.file 24 "/home/kai_wang/release-ecos1.5.1/release_tool_v15/ecos_v1.5.1_20160706/ecos-work/../ecos-3.0/packages/net/bsd_tcpip/v3_0/src/sys/netinet/fastpath/fast_l2tp_core.h"
	.file 25 "/home/kai_wang/release-ecos1.5.1/release_tool_v15/ecos_v1.5.1_20160706/ecos-work/97f-8812br-16M-gw_install/include/cyg/infra/diag.h"